ARM GAS  C:\Users\YBOURA~1\AppData\Local\Temp\cctTxG75.s 			page 1


   1              		.cpu cortex-m0
   2              		.fpu softvfp
   3              		.eabi_attribute 20, 1
   4              		.eabi_attribute 21, 1
   5              		.eabi_attribute 23, 3
   6              		.eabi_attribute 24, 1
   7              		.eabi_attribute 25, 1
   8              		.eabi_attribute 26, 1
   9              		.eabi_attribute 30, 6
  10              		.eabi_attribute 34, 0
  11              		.eabi_attribute 18, 4
  12              		.code	16
  13              		.file	"BLE.c"
  14              		.text
  15              	.Ltext0:
  16              		.cfi_sections	.debug_frame
  17              		.global	cyBle_initVar
  18              		.bss
  19              		.type	cyBle_initVar, %object
  20              		.size	cyBle_initVar, 1
  21              	cyBle_initVar:
  22 0000 00       		.space	1
  23              		.comm	cyBle_stackMemoryRam,2752,8
  24              		.global	cyBle_discoveryInfo
  25              		.data
  26              		.align	2
  27              		.type	cyBle_discoveryInfo, %object
  28              		.size	cyBle_discoveryInfo, 12
  29              	cyBle_discoveryInfo:
  30 0000 00       		.byte	0
  31 0001 01       		.byte	1
  32 0002 3000     		.short	48
  33 0004 3000     		.short	48
  34 0006 00       		.byte	0
  35 0007 00       		.byte	0
  36 0008 0000     		.short	0
  37 000a 01       		.byte	1
  38 000b 00       		.space	1
  39              		.comm	CyBle_ApplCallback,4,4
  40              		.global	cyBle_deviceAddress
  41              		.align	2
  42              		.type	cyBle_deviceAddress, %object
  43              		.size	cyBle_deviceAddress, 7
  44              	cyBle_deviceAddress:
  45 000c 00       		.byte	0
  46 000d 00       		.byte	0
  47 000e 00       		.byte	0
  48 000f 00       		.byte	0
  49 0010 A5       		.byte	-91
  50 0011 00       		.byte	0
  51 0012 00       		.byte	0
  52              		.global	cyBle_sflashDeviceAddress
  53 0013 00       		.align	2
  54              		.type	cyBle_sflashDeviceAddress, %object
  55              		.size	cyBle_sflashDeviceAddress, 4
  56              	cyBle_sflashDeviceAddress:
  57 0014 00F2FF0F 		.word	268431872
ARM GAS  C:\Users\YBOURA~1\AppData\Local\Temp\cctTxG75.s 			page 2


  58              		.global	cyBle_StackFlashptr
  59              		.section	.rodata
  60              		.align	7
  61              		.type	cyBle_StackFlashptr, %object
  62              		.size	cyBle_StackFlashptr, 365
  63              	cyBle_StackFlashptr:
  64 0000 00000000 		.space	365
  64      00000000 
  64      00000000 
  64      00000000 
  64      00000000 
  65              		.section	.text.CyBle_Init,"ax",%progbits
  66              		.align	2
  67              		.global	CyBle_Init
  68              		.code	16
  69              		.thumb_func
  70              		.type	CyBle_Init, %function
  71              	CyBle_Init:
  72              	.LFB2:
  73              		.file 1 ".\\Generated_Source\\PSoC4\\BLE.c"
   1:.\Generated_Source\PSoC4/BLE.c **** /***************************************************************************//**
   2:.\Generated_Source\PSoC4/BLE.c **** * \file CYBLE.c
   3:.\Generated_Source\PSoC4/BLE.c **** * \version 2.30
   4:.\Generated_Source\PSoC4/BLE.c **** * 
   5:.\Generated_Source\PSoC4/BLE.c **** * \brief
   6:.\Generated_Source\PSoC4/BLE.c **** *  This file contains the source code for the Common APIs of the BLE Component.
   7:.\Generated_Source\PSoC4/BLE.c **** * 
   8:.\Generated_Source\PSoC4/BLE.c **** ********************************************************************************
   9:.\Generated_Source\PSoC4/BLE.c **** * \copyright
  10:.\Generated_Source\PSoC4/BLE.c **** * Copyright 2014-2015, Cypress Semiconductor Corporation.  All rights reserved.
  11:.\Generated_Source\PSoC4/BLE.c **** * You may use this file only in accordance with the license, terms, conditions,
  12:.\Generated_Source\PSoC4/BLE.c **** * disclaimers, and limitations in the end user license agreement accompanying
  13:.\Generated_Source\PSoC4/BLE.c **** * the software package with which this file was provided.
  14:.\Generated_Source\PSoC4/BLE.c **** *******************************************************************************/
  15:.\Generated_Source\PSoC4/BLE.c **** 
  16:.\Generated_Source\PSoC4/BLE.c **** #include "BLE_eventHandler.h"
  17:.\Generated_Source\PSoC4/BLE.c **** #include "BLE_HAL_PVT.h"
  18:.\Generated_Source\PSoC4/BLE.c **** #include <stdlib.h>
  19:.\Generated_Source\PSoC4/BLE.c **** 
  20:.\Generated_Source\PSoC4/BLE.c **** 
  21:.\Generated_Source\PSoC4/BLE.c **** /***************************************
  22:.\Generated_Source\PSoC4/BLE.c **** * Function Prototypes
  23:.\Generated_Source\PSoC4/BLE.c **** ***************************************/
  24:.\Generated_Source\PSoC4/BLE.c **** 
  25:.\Generated_Source\PSoC4/BLE.c **** #if(CYBLE_GATT_ROLE_SERVER)
  26:.\Generated_Source\PSoC4/BLE.c ****     #if(CYBLE_GAP_ROLE_PERIPHERAL)
  27:.\Generated_Source\PSoC4/BLE.c ****         static void CyBle_ChangeAdLocalName(const char8 name[], uint8 dest);
  28:.\Generated_Source\PSoC4/BLE.c ****     #endif /* (CYBLE_GAP_ROLE_PERIPHERAL) */
  29:.\Generated_Source\PSoC4/BLE.c **** #endif /* (CYBLE_GATT_ROLE_SERVER) */
  30:.\Generated_Source\PSoC4/BLE.c ****     
  31:.\Generated_Source\PSoC4/BLE.c **** 
  32:.\Generated_Source\PSoC4/BLE.c **** /***************************************
  33:.\Generated_Source\PSoC4/BLE.c **** * Global Variables
  34:.\Generated_Source\PSoC4/BLE.c **** ***************************************/
  35:.\Generated_Source\PSoC4/BLE.c **** 
  36:.\Generated_Source\PSoC4/BLE.c **** /* Indicates whether the BLE has been initialized. The variable is initialized to
  37:.\Generated_Source\PSoC4/BLE.c ****    0 and set to 1 the first time CyBle_Start() is called. This allows the component
ARM GAS  C:\Users\YBOURA~1\AppData\Local\Temp\cctTxG75.s 			page 3


  38:.\Generated_Source\PSoC4/BLE.c ****    to restart without reinitialization after the first call to the CyBle_Start() 
  39:.\Generated_Source\PSoC4/BLE.c ****    routine. If reinitialization of the component is required, the variable should 
  40:.\Generated_Source\PSoC4/BLE.c ****    be set to 0 before the CyBle_Start() routine is called. Alternatively, the BLE
  41:.\Generated_Source\PSoC4/BLE.c ****    can be reinitialized by calling the CyBle_Init() function.
  42:.\Generated_Source\PSoC4/BLE.c **** */
  43:.\Generated_Source\PSoC4/BLE.c **** uint8  cyBle_initVar = 0u;
  44:.\Generated_Source\PSoC4/BLE.c **** 
  45:.\Generated_Source\PSoC4/BLE.c **** /* Allocate RAM memory for stack. This buffer could be reused by application when 
  46:.\Generated_Source\PSoC4/BLE.c ****    BLE component is stopped. For export mode buffer is allocated in heap.
  47:.\Generated_Source\PSoC4/BLE.c **** */
  48:.\Generated_Source\PSoC4/BLE.c **** #if(CYBLE_SHARING_MODE_EXPORT)
  49:.\Generated_Source\PSoC4/BLE.c ****     
  50:.\Generated_Source\PSoC4/BLE.c **** uint8 *cyBle_stackMemoryRam = NULL;
  51:.\Generated_Source\PSoC4/BLE.c **** 
  52:.\Generated_Source\PSoC4/BLE.c **** #else
  53:.\Generated_Source\PSoC4/BLE.c **** 
  54:.\Generated_Source\PSoC4/BLE.c **** CYBLE_CYALIGNED_BEGIN uint8 cyBle_stackMemoryRam[CYBLE_STACK_RAM_SIZE] CYBLE_CYALIGNED_END;
  55:.\Generated_Source\PSoC4/BLE.c **** 
  56:.\Generated_Source\PSoC4/BLE.c **** #endif  /* CYBLE_SHARING_MODE_EXPORT */
  57:.\Generated_Source\PSoC4/BLE.c **** 
  58:.\Generated_Source\PSoC4/BLE.c **** #if(CYBLE_GAP_ROLE_PERIPHERAL || CYBLE_GAP_ROLE_BROADCASTER)
  59:.\Generated_Source\PSoC4/BLE.c **** 
  60:.\Generated_Source\PSoC4/BLE.c **** 
  61:.\Generated_Source\PSoC4/BLE.c **** 
  62:.\Generated_Source\PSoC4/BLE.c **** #endif /* CYBLE_GAP_ROLE_PERIPHERAL || CYBLE_GAP_ROLE_BROADCASTER */
  63:.\Generated_Source\PSoC4/BLE.c **** 
  64:.\Generated_Source\PSoC4/BLE.c **** #if(CYBLE_GAP_ROLE_CENTRAL)
  65:.\Generated_Source\PSoC4/BLE.c ****     
  66:.\Generated_Source\PSoC4/BLE.c **** CYBLE_GAPC_CONN_PARAM_T cyBle_connectionParameters;
  67:.\Generated_Source\PSoC4/BLE.c **** 
  68:.\Generated_Source\PSoC4/BLE.c **** /* Connecting timeout is set to 30 seconds in CyBle_Init function. 
  69:.\Generated_Source\PSoC4/BLE.c ****    Not zero value starts timer in CyBle_GapcConnectDevice API.
  70:.\Generated_Source\PSoC4/BLE.c **** */
  71:.\Generated_Source\PSoC4/BLE.c **** uint16 cyBle_connectingTimeout;
  72:.\Generated_Source\PSoC4/BLE.c ****     
  73:.\Generated_Source\PSoC4/BLE.c **** #endif /* CYBLE_GAP_ROLE_CENTRAL */
  74:.\Generated_Source\PSoC4/BLE.c **** 
  75:.\Generated_Source\PSoC4/BLE.c **** #if(CYBLE_GAP_ROLE_CENTRAL || CYBLE_GAP_ROLE_OBSERVER)
  76:.\Generated_Source\PSoC4/BLE.c ****     
  77:.\Generated_Source\PSoC4/BLE.c **** /* This variable of type CYBLE_GAPC_DISC_INFO_T is present only when  
  78:.\Generated_Source\PSoC4/BLE.c ****    the BLE component is configured for Central GAP role or Central and  
  79:.\Generated_Source\PSoC4/BLE.c ****    Peripheral GAP role. It contains the Scan settings entered in the  
  80:.\Generated_Source\PSoC4/BLE.c ****    customizer. This variable can be used by advanced users to change Scan  
  81:.\Generated_Source\PSoC4/BLE.c ****    settings in runtime.
  82:.\Generated_Source\PSoC4/BLE.c **** */
  83:.\Generated_Source\PSoC4/BLE.c **** CYBLE_GAPC_DISC_INFO_T cyBle_discoveryInfo =
  84:.\Generated_Source\PSoC4/BLE.c **** {
  85:.\Generated_Source\PSoC4/BLE.c ****     0x00u,      /* discProcedure */
  86:.\Generated_Source\PSoC4/BLE.c ****     0x01u,      /* scanType */
  87:.\Generated_Source\PSoC4/BLE.c ****     0x0030u,    /* scanInterval */
  88:.\Generated_Source\PSoC4/BLE.c ****     0x0030u,    /* scanWindow */
  89:.\Generated_Source\PSoC4/BLE.c ****     0x00u,      /* ownAddrType */
  90:.\Generated_Source\PSoC4/BLE.c ****     0x00u,      /* scanFilterPolicy */
  91:.\Generated_Source\PSoC4/BLE.c ****     0x0000u,    /* scanTO */
  92:.\Generated_Source\PSoC4/BLE.c ****     0x01u,      /* filterDuplicates */
  93:.\Generated_Source\PSoC4/BLE.c **** };
  94:.\Generated_Source\PSoC4/BLE.c ****     
ARM GAS  C:\Users\YBOURA~1\AppData\Local\Temp\cctTxG75.s 			page 4


  95:.\Generated_Source\PSoC4/BLE.c **** #endif /* CYBLE_GAP_ROLE_CENTRAL || CYBLE_GAP_ROLE_OBSERVER */
  96:.\Generated_Source\PSoC4/BLE.c **** 
  97:.\Generated_Source\PSoC4/BLE.c **** #if((CYBLE_GAP_ROLE_PERIPHERAL || CYBLE_GAP_ROLE_CENTRAL) && (CYBLE_BONDING_REQUIREMENT == CYBLE_BO
  98:.\Generated_Source\PSoC4/BLE.c **** 
  99:.\Generated_Source\PSoC4/BLE.c **** uint8 cyBle_peerBonding;
 100:.\Generated_Source\PSoC4/BLE.c **** uint8 cyBle_pendingFlashWrite;
 101:.\Generated_Source\PSoC4/BLE.c ****     
 102:.\Generated_Source\PSoC4/BLE.c **** #endif  /* (CYBLE_BONDING_REQUIREMENT == CYBLE_BONDING_YES) */
 103:.\Generated_Source\PSoC4/BLE.c **** 
 104:.\Generated_Source\PSoC4/BLE.c **** CYBLE_CALLBACK_T CyBle_ApplCallback;
 105:.\Generated_Source\PSoC4/BLE.c **** CYBLE_GAP_BD_ADDR_T cyBle_deviceAddress = {{0x00u, 0x00u, 0x00u, 0x00u, 0xA5u, 0x00u}, 0x00u };
 106:.\Generated_Source\PSoC4/BLE.c **** CYBLE_GAP_BD_ADDR_T * cyBle_sflashDeviceAddress = CYBLE_SFLASH_DEVICE_ADDRESS_PTR;
 107:.\Generated_Source\PSoC4/BLE.c **** 
 108:.\Generated_Source\PSoC4/BLE.c **** #if(CYBLE_MODE_PROFILE)
 109:.\Generated_Source\PSoC4/BLE.c ****     #if defined(__ARMCC_VERSION)
 110:.\Generated_Source\PSoC4/BLE.c ****         CY_ALIGN(CYDEV_FLS_ROW_SIZE) const uint8 cyBle_StackFlashptr[CYBLE_STACK_FLASH_SIZE] = {0u}
 111:.\Generated_Source\PSoC4/BLE.c ****     #elif defined (__GNUC__)
 112:.\Generated_Source\PSoC4/BLE.c ****         const uint8 cyBle_StackFlashptr[CYBLE_STACK_FLASH_SIZE] CY_ALIGN(CYDEV_FLS_ROW_SIZE) = {0u}
 113:.\Generated_Source\PSoC4/BLE.c ****     #elif defined (__ICCARM__)
 114:.\Generated_Source\PSoC4/BLE.c ****         #pragma data_alignment=CY_FLASH_SIZEOF_ROW
 115:.\Generated_Source\PSoC4/BLE.c ****         const uint8 cyBle_StackFlashptr[CYBLE_STACK_FLASH_SIZE] = {0u};
 116:.\Generated_Source\PSoC4/BLE.c ****     #endif  /* (__ARMCC_VERSION) */
 117:.\Generated_Source\PSoC4/BLE.c **** #endif /* (CYBLE_MODE_PROFILE) */
 118:.\Generated_Source\PSoC4/BLE.c **** 
 119:.\Generated_Source\PSoC4/BLE.c **** 
 120:.\Generated_Source\PSoC4/BLE.c **** /******************************************************************************
 121:.\Generated_Source\PSoC4/BLE.c **** * Function Name: CyBle_Init
 122:.\Generated_Source\PSoC4/BLE.c **** ***************************************************************************//**
 123:.\Generated_Source\PSoC4/BLE.c **** *
 124:.\Generated_Source\PSoC4/BLE.c **** *   Initializes the component with the parameters set in the customizer.
 125:.\Generated_Source\PSoC4/BLE.c **** * 
 126:.\Generated_Source\PSoC4/BLE.c **** *  \return
 127:.\Generated_Source\PSoC4/BLE.c **** *   None
 128:.\Generated_Source\PSoC4/BLE.c **** * 
 129:.\Generated_Source\PSoC4/BLE.c **** ******************************************************************************/
 130:.\Generated_Source\PSoC4/BLE.c **** void CyBle_Init(void)
 131:.\Generated_Source\PSoC4/BLE.c **** {
  74              		.loc 1 131 0
  75              		.cfi_startproc
  76 0000 80B5     		push	{r7, lr}
  77              		.cfi_def_cfa_offset 8
  78              		.cfi_offset 7, -8
  79              		.cfi_offset 14, -4
  80 0002 00AF     		add	r7, sp, #0
  81              		.cfi_def_cfa_register 7
 132:.\Generated_Source\PSoC4/BLE.c ****     cyBle_eventHandlerFlag = 0u;
  82              		.loc 1 132 0
  83 0004 064B     		ldr	r3, .L2
  84 0006 0022     		mov	r2, #0
  85 0008 1A70     		strb	r2, [r3]
 133:.\Generated_Source\PSoC4/BLE.c ****     cyBle_busyStatus = CYBLE_STACK_STATE_FREE;
  86              		.loc 1 133 0
  87 000a 064B     		ldr	r3, .L2+4
  88 000c 0022     		mov	r2, #0
  89 000e 1A70     		strb	r2, [r3]
 134:.\Generated_Source\PSoC4/BLE.c **** 
 135:.\Generated_Source\PSoC4/BLE.c ****     #if(CYBLE_GAP_ROLE_PERIPHERAL || CYBLE_GAP_ROLE_BROADCASTER) 
ARM GAS  C:\Users\YBOURA~1\AppData\Local\Temp\cctTxG75.s 			page 5


 136:.\Generated_Source\PSoC4/BLE.c ****         cyBle_advertisingIntervalType = CYBLE_ADVERTISING_FAST; 
 137:.\Generated_Source\PSoC4/BLE.c ****     #endif /* (CYBLE_GAP_ROLE_PERIPHERAL || CYBLE_GAP_ROLE_BROADCASTER)  */
 138:.\Generated_Source\PSoC4/BLE.c ****     #if(CYBLE_GAP_ROLE_CENTRAL || CYBLE_GAP_ROLE_OBSERVER)
 139:.\Generated_Source\PSoC4/BLE.c ****         cyBle_scanningIntervalType = CYBLE_SCANNING_FAST; 
  90              		.loc 1 139 0
  91 0010 054B     		ldr	r3, .L2+8
  92 0012 0022     		mov	r2, #0
  93 0014 1A70     		strb	r2, [r3]
 140:.\Generated_Source\PSoC4/BLE.c ****     #endif /* (CYBLE_GAP_ROLE_CENTRAL || CYBLE_GAP_ROLE_OBSERVER) */
 141:.\Generated_Source\PSoC4/BLE.c ****         
 142:.\Generated_Source\PSoC4/BLE.c ****     /* Init default connection parameters. 
 143:.\Generated_Source\PSoC4/BLE.c ****        Application may change it before initiating a connection */
 144:.\Generated_Source\PSoC4/BLE.c ****     #if(CYBLE_GAP_ROLE_CENTRAL)
 145:.\Generated_Source\PSoC4/BLE.c ****         cyBle_connectionParameters.scanIntv = cyBle_discoveryInfo.scanIntv;
 146:.\Generated_Source\PSoC4/BLE.c ****         cyBle_connectionParameters.scanWindow = cyBle_discoveryInfo.scanWindow;
 147:.\Generated_Source\PSoC4/BLE.c ****         cyBle_connectionParameters.ownAddrType = cyBle_discoveryInfo.ownAddrType;
 148:.\Generated_Source\PSoC4/BLE.c ****         cyBle_connectionParameters.initiatorFilterPolicy = cyBle_discoveryInfo.scanFilterPolicy;
 149:.\Generated_Source\PSoC4/BLE.c ****         cyBle_connectionParameters.connIntvMin = CYBLE_GAPC_CONNECTION_INTERVAL_MIN;
 150:.\Generated_Source\PSoC4/BLE.c ****         cyBle_connectionParameters.connIntvMax = CYBLE_GAPC_CONNECTION_INTERVAL_MAX;
 151:.\Generated_Source\PSoC4/BLE.c ****         cyBle_connectionParameters.connLatency = CYBLE_GAPC_CONNECTION_SLAVE_LATENCY;
 152:.\Generated_Source\PSoC4/BLE.c ****         cyBle_connectionParameters.supervisionTO = CYBLE_GAPC_CONNECTION_TIME_OUT;
 153:.\Generated_Source\PSoC4/BLE.c ****         cyBle_connectionParameters.minCeLength = 0x0000u;
 154:.\Generated_Source\PSoC4/BLE.c ****         cyBle_connectionParameters.maxCeLength = 0xFFFFu;
 155:.\Generated_Source\PSoC4/BLE.c ****         
 156:.\Generated_Source\PSoC4/BLE.c ****         cyBle_connectingTimeout = CYBLE_GAPC_CONNECTING_TIMEOUT;
 157:.\Generated_Source\PSoC4/BLE.c ****     #endif /* CYBLE_GAP_ROLE_CENTRAL */
 158:.\Generated_Source\PSoC4/BLE.c **** 
 159:.\Generated_Source\PSoC4/BLE.c ****     CyBle_ServiceInit();
  94              		.loc 1 159 0
  95 0016 FFF7FEFF 		bl	CyBle_ServiceInit
 160:.\Generated_Source\PSoC4/BLE.c **** 
 161:.\Generated_Source\PSoC4/BLE.c ****     #if((CYBLE_GAP_ROLE_PERIPHERAL || CYBLE_GAP_ROLE_CENTRAL) && (CYBLE_BONDING_REQUIREMENT == CYBL
 162:.\Generated_Source\PSoC4/BLE.c ****         cyBle_pendingFlashWrite = 0u;
 163:.\Generated_Source\PSoC4/BLE.c ****         cyBle_peerBonding = CYBLE_GAP_BONDING_NONE;
 164:.\Generated_Source\PSoC4/BLE.c ****     #endif  /* (CYBLE_BONDING_REQUIREMENT == CYBLE_BONDING_YES) */
 165:.\Generated_Source\PSoC4/BLE.c **** 
 166:.\Generated_Source\PSoC4/BLE.c **** }
  96              		.loc 1 166 0
  97 001a BD46     		mov	sp, r7
  98              		@ sp needed
  99 001c 80BD     		pop	{r7, pc}
 100              	.L3:
 101 001e C046     		.align	2
 102              	.L2:
 103 0020 00000000 		.word	cyBle_eventHandlerFlag
 104 0024 00000000 		.word	cyBle_busyStatus
 105 0028 00000000 		.word	cyBle_scanningIntervalType
 106              		.cfi_endproc
 107              	.LFE2:
 108              		.size	CyBle_Init, .-CyBle_Init
 109              		.section	.text.CyBle_ServiceInit,"ax",%progbits
 110              		.align	2
 111              		.global	CyBle_ServiceInit
 112              		.code	16
 113              		.thumb_func
 114              		.type	CyBle_ServiceInit, %function
 115              	CyBle_ServiceInit:
ARM GAS  C:\Users\YBOURA~1\AppData\Local\Temp\cctTxG75.s 			page 6


 116              	.LFB3:
 167:.\Generated_Source\PSoC4/BLE.c **** 
 168:.\Generated_Source\PSoC4/BLE.c **** 
 169:.\Generated_Source\PSoC4/BLE.c **** /******************************************************************************
 170:.\Generated_Source\PSoC4/BLE.c **** * Function Name: CyBle_ServiceInit
 171:.\Generated_Source\PSoC4/BLE.c **** ***************************************************************************//**
 172:.\Generated_Source\PSoC4/BLE.c **** * 
 173:.\Generated_Source\PSoC4/BLE.c **** *  Initializes all included services.
 174:.\Generated_Source\PSoC4/BLE.c **** * 
 175:.\Generated_Source\PSoC4/BLE.c **** * \return
 176:.\Generated_Source\PSoC4/BLE.c **** *  None
 177:.\Generated_Source\PSoC4/BLE.c **** * 
 178:.\Generated_Source\PSoC4/BLE.c **** ******************************************************************************/
 179:.\Generated_Source\PSoC4/BLE.c **** void CyBle_ServiceInit(void)
 180:.\Generated_Source\PSoC4/BLE.c **** {
 117              		.loc 1 180 0
 118              		.cfi_startproc
 119 0000 80B5     		push	{r7, lr}
 120              		.cfi_def_cfa_offset 8
 121              		.cfi_offset 7, -8
 122              		.cfi_offset 14, -4
 123 0002 00AF     		add	r7, sp, #0
 124              		.cfi_def_cfa_register 7
 181:.\Generated_Source\PSoC4/BLE.c ****     #if(CYBLE_GATT_ROLE_CLIENT)
 182:.\Generated_Source\PSoC4/BLE.c ****         (void)memset(&cyBle_gapc, 0, sizeof(cyBle_gapc));
 125              		.loc 1 182 0
 126 0004 074B     		ldr	r3, .L5
 127 0006 181C     		mov	r0, r3
 128 0008 0021     		mov	r1, #0
 129 000a 0A22     		mov	r2, #10
 130 000c FFF7FEFF 		bl	memset
 183:.\Generated_Source\PSoC4/BLE.c ****         (void)memset(&cyBle_gattc, 0, sizeof(cyBle_gattc));
 131              		.loc 1 183 0
 132 0010 054B     		ldr	r3, .L5+4
 133 0012 181C     		mov	r0, r3
 134 0014 0021     		mov	r1, #0
 135 0016 0622     		mov	r2, #6
 136 0018 FFF7FEFF 		bl	memset
 184:.\Generated_Source\PSoC4/BLE.c ****     #endif /* CYBLE_GATT_ROLE_CLIENT */
 185:.\Generated_Source\PSoC4/BLE.c ****     
 186:.\Generated_Source\PSoC4/BLE.c **** 	#ifdef CYBLE_ANCS
 187:.\Generated_Source\PSoC4/BLE.c ****         CyBle_AncsInit();
 188:.\Generated_Source\PSoC4/BLE.c ****     #endif /* CYBLE_ANCS */
 189:.\Generated_Source\PSoC4/BLE.c **** 	
 190:.\Generated_Source\PSoC4/BLE.c ****     #ifdef CYBLE_ANS
 191:.\Generated_Source\PSoC4/BLE.c ****         CyBle_AnsInit();
 192:.\Generated_Source\PSoC4/BLE.c ****     #endif /* CYBLE_ANS */
 193:.\Generated_Source\PSoC4/BLE.c ****     
 194:.\Generated_Source\PSoC4/BLE.c ****     #ifdef CYBLE_BAS
 195:.\Generated_Source\PSoC4/BLE.c ****         CyBle_BasInit();
 196:.\Generated_Source\PSoC4/BLE.c ****     #endif /* CYBLE_BAS */
 197:.\Generated_Source\PSoC4/BLE.c ****     
 198:.\Generated_Source\PSoC4/BLE.c ****     #ifdef CYBLE_BLS
 199:.\Generated_Source\PSoC4/BLE.c ****         CyBle_BlsInit();
 200:.\Generated_Source\PSoC4/BLE.c ****     #endif /* CYBLE_BLS */
 201:.\Generated_Source\PSoC4/BLE.c ****     
 202:.\Generated_Source\PSoC4/BLE.c ****     #ifdef CYBLE_BMS
ARM GAS  C:\Users\YBOURA~1\AppData\Local\Temp\cctTxG75.s 			page 7


 203:.\Generated_Source\PSoC4/BLE.c ****         CyBle_BmsInit();
 204:.\Generated_Source\PSoC4/BLE.c ****     #endif /* CYBLE_BMS */
 205:.\Generated_Source\PSoC4/BLE.c ****     
 206:.\Generated_Source\PSoC4/BLE.c ****     #ifdef CYBLE_CGMS
 207:.\Generated_Source\PSoC4/BLE.c ****         CyBle_CgmsInit();
 208:.\Generated_Source\PSoC4/BLE.c ****     #endif /* CYBLE_CGMS */
 209:.\Generated_Source\PSoC4/BLE.c **** 
 210:.\Generated_Source\PSoC4/BLE.c ****     #ifdef CYBLE_CPS
 211:.\Generated_Source\PSoC4/BLE.c ****         CyBle_CpsInit();
 212:.\Generated_Source\PSoC4/BLE.c ****     #endif /* CYBLE_CPS */
 213:.\Generated_Source\PSoC4/BLE.c **** 
 214:.\Generated_Source\PSoC4/BLE.c ****     #ifdef CYBLE_CSCS
 215:.\Generated_Source\PSoC4/BLE.c ****         CyBle_CscsInit();
 216:.\Generated_Source\PSoC4/BLE.c ****     #endif /* CYBLE_CSCS */
 217:.\Generated_Source\PSoC4/BLE.c ****     
 218:.\Generated_Source\PSoC4/BLE.c ****     #ifdef CYBLE_CTS
 219:.\Generated_Source\PSoC4/BLE.c ****         CyBle_CtsInit();
 220:.\Generated_Source\PSoC4/BLE.c ****     #endif /* CYBLE_CTS */
 221:.\Generated_Source\PSoC4/BLE.c **** 
 222:.\Generated_Source\PSoC4/BLE.c ****     #ifdef CYBLE_DIS
 223:.\Generated_Source\PSoC4/BLE.c ****         CyBle_DisInit();
 224:.\Generated_Source\PSoC4/BLE.c ****     #endif /* CYBLE_DIS */
 225:.\Generated_Source\PSoC4/BLE.c **** 
 226:.\Generated_Source\PSoC4/BLE.c ****     #ifdef CYBLE_ESS
 227:.\Generated_Source\PSoC4/BLE.c ****         CyBle_EssInit();
 228:.\Generated_Source\PSoC4/BLE.c ****     #endif /* CYBLE_ESS */
 229:.\Generated_Source\PSoC4/BLE.c ****     
 230:.\Generated_Source\PSoC4/BLE.c ****     #ifdef CYBLE_GLS
 231:.\Generated_Source\PSoC4/BLE.c ****         CyBle_GlsInit();
 232:.\Generated_Source\PSoC4/BLE.c ****     #endif /* CYBLE_GLS */
 233:.\Generated_Source\PSoC4/BLE.c ****     
 234:.\Generated_Source\PSoC4/BLE.c ****     #ifdef CYBLE_CUSTOM
 235:.\Generated_Source\PSoC4/BLE.c ****         CyBle_CustomInit();
 137              		.loc 1 235 0
 138 001c FFF7FEFF 		bl	CyBle_CustomInit
 236:.\Generated_Source\PSoC4/BLE.c ****     #endif /* CYBLE_CUSTOM */
 237:.\Generated_Source\PSoC4/BLE.c **** 
 238:.\Generated_Source\PSoC4/BLE.c ****     #ifdef CYBLE_HIDS
 239:.\Generated_Source\PSoC4/BLE.c ****         CyBle_HidsInit();
 240:.\Generated_Source\PSoC4/BLE.c ****     #endif /* CYBLE_HIDS */
 241:.\Generated_Source\PSoC4/BLE.c **** 
 242:.\Generated_Source\PSoC4/BLE.c ****     #ifdef CYBLE_HRS
 243:.\Generated_Source\PSoC4/BLE.c ****         CyBle_HrsInit();
 244:.\Generated_Source\PSoC4/BLE.c ****     #endif /* CYBLE_HRS */
 245:.\Generated_Source\PSoC4/BLE.c ****     
 246:.\Generated_Source\PSoC4/BLE.c ****     #ifdef CYBLE_HTS
 247:.\Generated_Source\PSoC4/BLE.c ****         CyBle_HtsInit();
 248:.\Generated_Source\PSoC4/BLE.c ****     #endif /* CYBLE_RSCS */
 249:.\Generated_Source\PSoC4/BLE.c **** 
 250:.\Generated_Source\PSoC4/BLE.c ****     #ifdef CYBLE_IAS
 251:.\Generated_Source\PSoC4/BLE.c ****         CyBle_IasInit();
 252:.\Generated_Source\PSoC4/BLE.c ****     #endif /* CYBLE_IAS */
 253:.\Generated_Source\PSoC4/BLE.c **** 
 254:.\Generated_Source\PSoC4/BLE.c ****     #ifdef CYBLE_LLS
 255:.\Generated_Source\PSoC4/BLE.c ****         CyBle_LlsInit();
 256:.\Generated_Source\PSoC4/BLE.c ****     #endif /* CYBLE_LLS */
 257:.\Generated_Source\PSoC4/BLE.c **** 
ARM GAS  C:\Users\YBOURA~1\AppData\Local\Temp\cctTxG75.s 			page 8


 258:.\Generated_Source\PSoC4/BLE.c ****     #ifdef CYBLE_RTUS
 259:.\Generated_Source\PSoC4/BLE.c ****         CyBle_RtusInit();
 260:.\Generated_Source\PSoC4/BLE.c ****     #endif /* CYBLE_RTUS */
 261:.\Generated_Source\PSoC4/BLE.c **** 
 262:.\Generated_Source\PSoC4/BLE.c ****     #ifdef CYBLE_LNS
 263:.\Generated_Source\PSoC4/BLE.c ****         CyBle_LnsInit();
 264:.\Generated_Source\PSoC4/BLE.c ****     #endif /* CYBLE_LNS */
 265:.\Generated_Source\PSoC4/BLE.c ****     
 266:.\Generated_Source\PSoC4/BLE.c ****     #ifdef CYBLE_PASS
 267:.\Generated_Source\PSoC4/BLE.c ****         CyBle_PassInit();
 268:.\Generated_Source\PSoC4/BLE.c ****     #endif /* CYBLE_PASS */
 269:.\Generated_Source\PSoC4/BLE.c ****     
 270:.\Generated_Source\PSoC4/BLE.c ****     #ifdef CYBLE_RSCS
 271:.\Generated_Source\PSoC4/BLE.c ****         CyBle_RscsInit();
 272:.\Generated_Source\PSoC4/BLE.c ****     #endif /* CYBLE_RSCS */
 273:.\Generated_Source\PSoC4/BLE.c **** 
 274:.\Generated_Source\PSoC4/BLE.c ****     #ifdef CYBLE_SCPS
 275:.\Generated_Source\PSoC4/BLE.c ****         CyBle_ScpsInit();
 276:.\Generated_Source\PSoC4/BLE.c ****     #endif /* CYBLE_SCPS */
 277:.\Generated_Source\PSoC4/BLE.c ****     
 278:.\Generated_Source\PSoC4/BLE.c ****     #ifdef CYBLE_TPS
 279:.\Generated_Source\PSoC4/BLE.c ****         CyBle_TpsInit();
 280:.\Generated_Source\PSoC4/BLE.c ****     #endif /* CYBLE_TPS */
 281:.\Generated_Source\PSoC4/BLE.c ****     
 282:.\Generated_Source\PSoC4/BLE.c ****     #ifdef CYBLE_UDS
 283:.\Generated_Source\PSoC4/BLE.c ****         CyBle_UdsInit();
 284:.\Generated_Source\PSoC4/BLE.c ****     #endif /* CYBLE_UDS */
 285:.\Generated_Source\PSoC4/BLE.c **** 
 286:.\Generated_Source\PSoC4/BLE.c ****     #ifdef CYBLE_WPTS
 287:.\Generated_Source\PSoC4/BLE.c ****         CyBle_WptsInit();
 288:.\Generated_Source\PSoC4/BLE.c ****     #endif /* CYBLE_WPTS */
 289:.\Generated_Source\PSoC4/BLE.c **** 
 290:.\Generated_Source\PSoC4/BLE.c ****     #ifdef CYBLE_WSS
 291:.\Generated_Source\PSoC4/BLE.c ****         CyBle_WssInit();
 292:.\Generated_Source\PSoC4/BLE.c ****     #endif /* CYBLE_WSS */
 293:.\Generated_Source\PSoC4/BLE.c **** }
 139              		.loc 1 293 0
 140 0020 BD46     		mov	sp, r7
 141              		@ sp needed
 142 0022 80BD     		pop	{r7, pc}
 143              	.L6:
 144              		.align	2
 145              	.L5:
 146 0024 00000000 		.word	cyBle_gapc
 147 0028 00000000 		.word	cyBle_gattc
 148              		.cfi_endproc
 149              	.LFE3:
 150              		.size	CyBle_ServiceInit, .-CyBle_ServiceInit
 151              		.section	.rodata
 152 016d 000000   		.align	2
 153              	.LC0:
 154 0170 2400     		.short	36
 155 0172 03       		.byte	3
 156 0173 00       		.space	1
 157 0174 1400     		.short	20
 158 0176 01       		.byte	1
 159 0177 00       		.space	1
ARM GAS  C:\Users\YBOURA~1\AppData\Local\Temp\cctTxG75.s 			page 9


 160 0178 3000     		.short	48
 161 017a 01       		.byte	1
 162 017b 00       		.space	1
 163 017c 4800     		.short	72
 164 017e 01       		.byte	1
 165 017f 00       		.space	1
 166 0180 2400     		.short	36
 167 0182 01       		.byte	1
 168 0183 00       		.space	1
 169 0184 2400     		.short	36
 170 0186 01       		.byte	1
 171 0187 00       		.space	1
 172 0188 00000000 		.section	.text.CyBle_Start,"ax",%progbits
 172      00000000 
 172      00000000 
 172      00000000 
 172      00000000 
 173              		.align	2
 174              		.global	CyBle_Start
 175              		.code	16
 176              		.thumb_func
 177              		.type	CyBle_Start, %function
 178              	CyBle_Start:
 179              	.LFB4:
 294:.\Generated_Source\PSoC4/BLE.c **** 
 295:.\Generated_Source\PSoC4/BLE.c **** 
 296:.\Generated_Source\PSoC4/BLE.c **** /******************************************************************************
 297:.\Generated_Source\PSoC4/BLE.c **** * Function Name: CyBle_Start
 298:.\Generated_Source\PSoC4/BLE.c **** ***************************************************************************//**
 299:.\Generated_Source\PSoC4/BLE.c **** * 
 300:.\Generated_Source\PSoC4/BLE.c **** *  This function initializes the BLE Stack, which consists of the BLE Stack 
 301:.\Generated_Source\PSoC4/BLE.c **** *  Manager, BLE Controller, and BLE Host modules. It takes care of initializing
 302:.\Generated_Source\PSoC4/BLE.c **** *  the Profile layer, schedulers, Timer and other platform related
 303:.\Generated_Source\PSoC4/BLE.c **** *  resources required for the BLE component. It also registers the callback 
 304:.\Generated_Source\PSoC4/BLE.c **** *  function for BLE events that will be registered in the BLE stack.
 305:.\Generated_Source\PSoC4/BLE.c **** * 
 306:.\Generated_Source\PSoC4/BLE.c **** *  Note that this function does not reset the BLE Stack.
 307:.\Generated_Source\PSoC4/BLE.c **** * 
 308:.\Generated_Source\PSoC4/BLE.c **** *  For HCI-Mode of operation, this function will not initialize the BLE Host 
 309:.\Generated_Source\PSoC4/BLE.c **** *  module.
 310:.\Generated_Source\PSoC4/BLE.c **** * 
 311:.\Generated_Source\PSoC4/BLE.c **** *  Calling this function results in the generation of CYBLE_EVT_STACK_ON event
 312:.\Generated_Source\PSoC4/BLE.c **** *  on successful initialization of the BLE Stack.
 313:.\Generated_Source\PSoC4/BLE.c **** * 
 314:.\Generated_Source\PSoC4/BLE.c **** *  \param callbackFunc: Event callback function to receive events from BLE stack.
 315:.\Generated_Source\PSoC4/BLE.c **** *   CYBLE_CALLBACK_T is a function pointer type.
 316:.\Generated_Source\PSoC4/BLE.c **** * 
 317:.\Generated_Source\PSoC4/BLE.c **** * \return
 318:.\Generated_Source\PSoC4/BLE.c **** *  CYBLE_API_RESULT_T : Return value indicates if the function succeeded or 
 319:.\Generated_Source\PSoC4/BLE.c **** *  failed. Following are the possible error codes.
 320:.\Generated_Source\PSoC4/BLE.c **** * 
 321:.\Generated_Source\PSoC4/BLE.c **** *   <table>
 322:.\Generated_Source\PSoC4/BLE.c **** *  	  <tr>
 323:.\Generated_Source\PSoC4/BLE.c **** *       <th>Error codes</th>
 324:.\Generated_Source\PSoC4/BLE.c **** *       <th>Description</th>
 325:.\Generated_Source\PSoC4/BLE.c **** *     </tr>
 326:.\Generated_Source\PSoC4/BLE.c **** *     <tr>
ARM GAS  C:\Users\YBOURA~1\AppData\Local\Temp\cctTxG75.s 			page 10


 327:.\Generated_Source\PSoC4/BLE.c **** *       <td>CYBLE_ERROR_OK</td>
 328:.\Generated_Source\PSoC4/BLE.c **** *       <td>On successful operation.</td>
 329:.\Generated_Source\PSoC4/BLE.c **** *     </tr>
 330:.\Generated_Source\PSoC4/BLE.c **** *     <tr>
 331:.\Generated_Source\PSoC4/BLE.c **** *       <td>CYBLE_ERROR_INVALID_PARAMETER</td>
 332:.\Generated_Source\PSoC4/BLE.c **** *       <td>On passing a NULL pointer to the function when the BLE stack is not built in HCI mode. 
 333:.\Generated_Source\PSoC4/BLE.c **** *			CYBLE_ERROR_INVALID_PARAMETER is never returned in HCI mode.</td>
 334:.\Generated_Source\PSoC4/BLE.c **** *     </tr>
 335:.\Generated_Source\PSoC4/BLE.c **** *     <tr>
 336:.\Generated_Source\PSoC4/BLE.c **** *       <td>CYBLE_ERROR_REPEATED_ATTEMPTS</td>
 337:.\Generated_Source\PSoC4/BLE.c **** *       <td>On invoking this function more than once without calling CyBle_Shutdown() 
 338:.\Generated_Source\PSoC4/BLE.c **** *           function between calls to this function.</td>
 339:.\Generated_Source\PSoC4/BLE.c **** *     </tr>
 340:.\Generated_Source\PSoC4/BLE.c **** *     <tr>
 341:.\Generated_Source\PSoC4/BLE.c **** *       <td>CYBLE_ERROR_MEMORY_ALLOCATION_FAILED</td>
 342:.\Generated_Source\PSoC4/BLE.c **** *       <td>There is insufficient memory available.</td>
 343:.\Generated_Source\PSoC4/BLE.c **** *     </tr>
 344:.\Generated_Source\PSoC4/BLE.c **** *   </table>
 345:.\Generated_Source\PSoC4/BLE.c **** * 
 346:.\Generated_Source\PSoC4/BLE.c **** *  \globalvars
 347:.\Generated_Source\PSoC4/BLE.c **** *   The CyBle_initVar variable is used to indicate initial
 348:.\Generated_Source\PSoC4/BLE.c **** *   configuration of this component. The variable is initialized to zero (0u)
 349:.\Generated_Source\PSoC4/BLE.c **** *   and set to one (1u) the first time CyBle_Start() is called. This
 350:.\Generated_Source\PSoC4/BLE.c **** *   allows for component initialization without re-initialization in all
 351:.\Generated_Source\PSoC4/BLE.c **** *   subsequent calls to the CyBle_Start() routine.
 352:.\Generated_Source\PSoC4/BLE.c **** * 
 353:.\Generated_Source\PSoC4/BLE.c **** ******************************************************************************/
 354:.\Generated_Source\PSoC4/BLE.c **** CYBLE_API_RESULT_T CyBle_Start(CYBLE_CALLBACK_T callbackFunc)
 355:.\Generated_Source\PSoC4/BLE.c **** {
 180              		.loc 1 355 0
 181              		.cfi_startproc
 182 0000 B0B5     		push	{r4, r5, r7, lr}
 183              		.cfi_def_cfa_offset 16
 184              		.cfi_offset 4, -16
 185              		.cfi_offset 5, -12
 186              		.cfi_offset 7, -8
 187              		.cfi_offset 14, -4
 188 0002 8EB0     		sub	sp, sp, #56
 189              		.cfi_def_cfa_offset 72
 190 0004 04AF     		add	r7, sp, #16
 191              		.cfi_def_cfa 7, 56
 192 0006 7860     		str	r0, [r7, #4]
 356:.\Generated_Source\PSoC4/BLE.c ****     CYBLE_API_RESULT_T apiResult = CYBLE_ERROR_OK;
 193              		.loc 1 356 0
 194 0008 2623     		mov	r3, #38
 195 000a FB18     		add	r3, r7, r3
 196 000c 0022     		mov	r2, #0
 197 000e 1A80     		strh	r2, [r3]
 357:.\Generated_Source\PSoC4/BLE.c ****     
 358:.\Generated_Source\PSoC4/BLE.c ****     #if(CYBLE_MODE_PROFILE)
 359:.\Generated_Source\PSoC4/BLE.c ****     
 360:.\Generated_Source\PSoC4/BLE.c ****     CYBLE_STK_APP_DATA_BUFF_T cyBle_stackDataBuff[CYBLE_STACK_BUF_COUNT] = 
 198              		.loc 1 360 0
 199 0010 0C23     		mov	r3, #12
 200 0012 FA18     		add	r2, r7, r3
 201 0014 284B     		ldr	r3, .L13
 202 0016 111C     		mov	r1, r2
ARM GAS  C:\Users\YBOURA~1\AppData\Local\Temp\cctTxG75.s 			page 11


 203 0018 1A1C     		mov	r2, r3
 204 001a 1823     		mov	r3, #24
 205 001c 081C     		mov	r0, r1
 206 001e 111C     		mov	r1, r2
 207 0020 1A1C     		mov	r2, r3
 208 0022 FFF7FEFF 		bl	memcpy
 361:.\Generated_Source\PSoC4/BLE.c ****     {
 362:.\Generated_Source\PSoC4/BLE.c ****         {CYBLE_GATT_MTU_PLUS_L2CAP_MEM_EXT, CYBLE_GATT_MTU_BUF_COUNT},
 363:.\Generated_Source\PSoC4/BLE.c ****         {CYBLE_GATT_MAX_ATTR_LEN_PLUS_L2CAP_MEM_EXT, 1u},
 364:.\Generated_Source\PSoC4/BLE.c ****         {CYBLE_L2CAP_PSM_PLUS_L2CAP_MEM_EXT, CYBLE_L2CAP_PSM_COUNT},
 365:.\Generated_Source\PSoC4/BLE.c ****         {CYBLE_L2CAP_CBFC_PLUS_L2CAP_MEM_EXT, CYBLE_L2CAP_LOGICAL_CHANNEL_COUNT},
 366:.\Generated_Source\PSoC4/BLE.c ****         {CYBLE_L2CAP_MTU_PLUS_L2CAP_MEM_EXT, CYBLE_L2CAP_LOGICAL_CHANNEL_COUNT},
 367:.\Generated_Source\PSoC4/BLE.c ****         {CYBLE_L2CAP_MPS_PLUS_L2CAP_MEM_EXT, CYBLE_L2CAP_LOGICAL_CHANNEL_COUNT * (CYBLE_L2CAP_MTU/C
 368:.\Generated_Source\PSoC4/BLE.c ****     }; 
 369:.\Generated_Source\PSoC4/BLE.c **** 
 370:.\Generated_Source\PSoC4/BLE.c ****     #endif /* CYBLE_MODE_PROFILE */
 371:.\Generated_Source\PSoC4/BLE.c ****     
 372:.\Generated_Source\PSoC4/BLE.c ****     /* If not initialized then initialize all the required hardware and software */
 373:.\Generated_Source\PSoC4/BLE.c ****     if(cyBle_initVar == 0u)
 209              		.loc 1 373 0
 210 0026 254B     		ldr	r3, .L13+4
 211 0028 1B78     		ldrb	r3, [r3]
 212 002a 002B     		cmp	r3, #0
 213 002c 04D1     		bne	.L8
 374:.\Generated_Source\PSoC4/BLE.c ****     {
 375:.\Generated_Source\PSoC4/BLE.c ****         CyBle_Init();
 214              		.loc 1 375 0
 215 002e FFF7FEFF 		bl	CyBle_Init
 376:.\Generated_Source\PSoC4/BLE.c ****         cyBle_initVar = 1u;
 216              		.loc 1 376 0
 217 0032 224B     		ldr	r3, .L13+4
 218 0034 0122     		mov	r2, #1
 219 0036 1A70     		strb	r2, [r3]
 220              	.L8:
 377:.\Generated_Source\PSoC4/BLE.c ****     }
 378:.\Generated_Source\PSoC4/BLE.c ****     
 379:.\Generated_Source\PSoC4/BLE.c ****     if(callbackFunc != NULL)
 221              		.loc 1 379 0
 222 0038 7B68     		ldr	r3, [r7, #4]
 223 003a 002B     		cmp	r3, #0
 224 003c 31D0     		beq	.L9
 380:.\Generated_Source\PSoC4/BLE.c ****     {
 381:.\Generated_Source\PSoC4/BLE.c ****     #if(CYBLE_SHARING_MODE_EXPORT)
 382:.\Generated_Source\PSoC4/BLE.c ****         if(cyBle_stackMemoryRam == NULL)
 383:.\Generated_Source\PSoC4/BLE.c ****         {
 384:.\Generated_Source\PSoC4/BLE.c ****             cyBle_stackMemoryRam = (uint8 *)malloc(CYBLE_STACK_RAM_SIZE);
 385:.\Generated_Source\PSoC4/BLE.c ****             if(cyBle_stackMemoryRam == NULL)
 386:.\Generated_Source\PSoC4/BLE.c ****             {
 387:.\Generated_Source\PSoC4/BLE.c ****                 apiResult = CYBLE_ERROR_MEMORY_ALLOCATION_FAILED;
 388:.\Generated_Source\PSoC4/BLE.c ****             } 
 389:.\Generated_Source\PSoC4/BLE.c ****         }
 390:.\Generated_Source\PSoC4/BLE.c ****     #endif /* CYBLE_SHARING_MODE_EXPORT */
 391:.\Generated_Source\PSoC4/BLE.c ****         if(apiResult == CYBLE_ERROR_OK)
 225              		.loc 1 391 0
 226 003e 2623     		mov	r3, #38
 227 0040 FB18     		add	r3, r7, r3
 228 0042 1B88     		ldrh	r3, [r3]
ARM GAS  C:\Users\YBOURA~1\AppData\Local\Temp\cctTxG75.s 			page 12


 229 0044 002B     		cmp	r3, #0
 230 0046 30D1     		bne	.L11
 392:.\Generated_Source\PSoC4/BLE.c ****         {
 393:.\Generated_Source\PSoC4/BLE.c ****             CyBle_ApplCallback = callbackFunc;
 231              		.loc 1 393 0
 232 0048 1D4B     		ldr	r3, .L13+8
 233 004a 7A68     		ldr	r2, [r7, #4]
 234 004c 1A60     		str	r2, [r3]
 394:.\Generated_Source\PSoC4/BLE.c ****             
 395:.\Generated_Source\PSoC4/BLE.c ****         #if(CYBLE_MODE_PROFILE)
 396:.\Generated_Source\PSoC4/BLE.c ****             apiResult = CyBle_StackInit(&CyBle_EventHandler, cyBle_stackMemoryRam, CYBLE_STACK_RAM_
 235              		.loc 1 396 0
 236 004e 2623     		mov	r3, #38
 237 0050 FC18     		add	r4, r7, r3
 238 0052 1C48     		ldr	r0, .L13+12
 239 0054 1C49     		ldr	r1, .L13+16
 240 0056 AC23     		mov	r3, #172
 241 0058 1A01     		lsl	r2, r3, #4
 242 005a 0C23     		mov	r3, #12
 243 005c FD18     		add	r5, r7, r3
 244 005e 0623     		mov	r3, #6
 245 0060 0093     		str	r3, [sp]
 246 0062 1A4B     		ldr	r3, .L13+20
 247 0064 0193     		str	r3, [sp, #4]
 248 0066 6E23     		mov	r3, #110
 249 0068 FF33     		add	r3, r3, #255
 250 006a 0293     		str	r3, [sp, #8]
 251 006c 2B1C     		mov	r3, r5
 252 006e FFF7FEFF 		bl	CyBle_StackInit
 253 0072 031C     		mov	r3, r0
 254 0074 2380     		strh	r3, [r4]
 397:.\Generated_Source\PSoC4/BLE.c ****                 cyBle_stackDataBuff, CYBLE_STACK_BUF_COUNT, cyBle_flashStorage.stackFlashptr, CYBLE
 398:.\Generated_Source\PSoC4/BLE.c ****         #else
 399:.\Generated_Source\PSoC4/BLE.c ****             apiResult = CyBle_StackInit(&CyBle_EventHandler, cyBle_stackMemoryRam, CYBLE_STACK_RAM_
 400:.\Generated_Source\PSoC4/BLE.c ****                 NULL, 0u, NULL, 0u);
 401:.\Generated_Source\PSoC4/BLE.c ****         #endif /* CYBLE_MODE_PROFILE */
 402:.\Generated_Source\PSoC4/BLE.c **** 
 403:.\Generated_Source\PSoC4/BLE.c ****             if(apiResult == CYBLE_ERROR_OK)
 255              		.loc 1 403 0
 256 0076 2623     		mov	r3, #38
 257 0078 FB18     		add	r3, r7, r3
 258 007a 1B88     		ldrh	r3, [r3]
 259 007c 002B     		cmp	r3, #0
 260 007e 14D1     		bne	.L11
 404:.\Generated_Source\PSoC4/BLE.c ****             {
 405:.\Generated_Source\PSoC4/BLE.c ****                 CyBle_SetState(CYBLE_STATE_INITIALIZING);
 261              		.loc 1 405 0
 262 0080 134B     		ldr	r3, .L13+24
 263 0082 0122     		mov	r2, #1
 264 0084 1A70     		strb	r2, [r3]
 406:.\Generated_Source\PSoC4/BLE.c ****                 
 407:.\Generated_Source\PSoC4/BLE.c ****             #if (CYBLE_GATT_ROLE_CLIENT)
 408:.\Generated_Source\PSoC4/BLE.c ****                 CyBle_SetClientState(CYBLE_CLIENT_STATE_DISCONNECTED);
 265              		.loc 1 408 0
 266 0086 134B     		ldr	r3, .L13+28
 267 0088 0822     		mov	r2, #8
 268 008a 1A70     		strb	r2, [r3]
ARM GAS  C:\Users\YBOURA~1\AppData\Local\Temp\cctTxG75.s 			page 13


 409:.\Generated_Source\PSoC4/BLE.c ****             #endif /* CYBLE_GATT_ROLE_CLIENT */
 410:.\Generated_Source\PSoC4/BLE.c ****                 
 411:.\Generated_Source\PSoC4/BLE.c ****             #if(CYBLE_GATT_ROLE_SERVER)
 412:.\Generated_Source\PSoC4/BLE.c ****                 apiResult = CyBle_GattsDbRegister(cyBle_gattDB, CYBLE_GATT_DB_INDEX_COUNT, CYBLE_GA
 269              		.loc 1 412 0
 270 008c 2623     		mov	r3, #38
 271 008e FC18     		add	r4, r7, r3
 272 0090 114B     		ldr	r3, .L13+32
 273 0092 181C     		mov	r0, r3
 274 0094 0D21     		mov	r1, #13
 275 0096 0722     		mov	r2, #7
 276 0098 FFF7FEFF 		bl	CyBle_GattsDbRegister
 277 009c 031C     		mov	r3, r0
 278 009e 2380     		strh	r3, [r4]
 279 00a0 03E0     		b	.L11
 280              	.L9:
 413:.\Generated_Source\PSoC4/BLE.c ****             #endif /* CYBLE_GATT_ROLE_SERVER */
 414:.\Generated_Source\PSoC4/BLE.c ****             }
 415:.\Generated_Source\PSoC4/BLE.c ****         }
 416:.\Generated_Source\PSoC4/BLE.c ****     }
 417:.\Generated_Source\PSoC4/BLE.c ****     else
 418:.\Generated_Source\PSoC4/BLE.c ****     {
 419:.\Generated_Source\PSoC4/BLE.c ****         apiResult = CYBLE_ERROR_INVALID_PARAMETER;
 281              		.loc 1 419 0
 282 00a2 2623     		mov	r3, #38
 283 00a4 FB18     		add	r3, r7, r3
 284 00a6 0122     		mov	r2, #1
 285 00a8 1A80     		strh	r2, [r3]
 286              	.L11:
 420:.\Generated_Source\PSoC4/BLE.c ****     }
 421:.\Generated_Source\PSoC4/BLE.c **** 
 422:.\Generated_Source\PSoC4/BLE.c ****     return (apiResult);
 287              		.loc 1 422 0
 288 00aa 2623     		mov	r3, #38
 289 00ac FB18     		add	r3, r7, r3
 290 00ae 1B88     		ldrh	r3, [r3]
 423:.\Generated_Source\PSoC4/BLE.c **** }
 291              		.loc 1 423 0
 292 00b0 181C     		mov	r0, r3
 293 00b2 BD46     		mov	sp, r7
 294 00b4 0AB0     		add	sp, sp, #40
 295              		@ sp needed
 296 00b6 B0BD     		pop	{r4, r5, r7, pc}
 297              	.L14:
 298              		.align	2
 299              	.L13:
 300 00b8 70010000 		.word	.LC0
 301 00bc 00000000 		.word	cyBle_initVar
 302 00c0 00000000 		.word	CyBle_ApplCallback
 303 00c4 00000000 		.word	CyBle_EventHandler
 304 00c8 00000000 		.word	cyBle_stackMemoryRam
 305 00cc 00000000 		.word	cyBle_flashStorage
 306 00d0 00000000 		.word	cyBle_state
 307 00d4 00000000 		.word	cyBle_clientState
 308 00d8 00000000 		.word	cyBle_gattDB
 309              		.cfi_endproc
 310              	.LFE4:
ARM GAS  C:\Users\YBOURA~1\AppData\Local\Temp\cctTxG75.s 			page 14


 311              		.size	CyBle_Start, .-CyBle_Start
 312              		.section	.text.CyBle_Stop,"ax",%progbits
 313              		.align	2
 314              		.global	CyBle_Stop
 315              		.code	16
 316              		.thumb_func
 317              		.type	CyBle_Stop, %function
 318              	CyBle_Stop:
 319              	.LFB5:
 424:.\Generated_Source\PSoC4/BLE.c **** 
 425:.\Generated_Source\PSoC4/BLE.c **** 
 426:.\Generated_Source\PSoC4/BLE.c **** /******************************************************************************
 427:.\Generated_Source\PSoC4/BLE.c **** * Function Name: CyBle_Stop
 428:.\Generated_Source\PSoC4/BLE.c **** ***************************************************************************//**
 429:.\Generated_Source\PSoC4/BLE.c **** * 
 430:.\Generated_Source\PSoC4/BLE.c **** *  This function stops any ongoing operation in the BLE Stack and forces the 
 431:.\Generated_Source\PSoC4/BLE.c **** *  BLE Stack to shut down. The only function that can be called after calling
 432:.\Generated_Source\PSoC4/BLE.c **** *  this function is CyBle_Start(). 
 433:.\Generated_Source\PSoC4/BLE.c **** * 
 434:.\Generated_Source\PSoC4/BLE.c **** * \return
 435:.\Generated_Source\PSoC4/BLE.c **** *  None
 436:.\Generated_Source\PSoC4/BLE.c **** * 
 437:.\Generated_Source\PSoC4/BLE.c **** ******************************************************************************/
 438:.\Generated_Source\PSoC4/BLE.c **** void CyBle_Stop(void)
 439:.\Generated_Source\PSoC4/BLE.c **** {
 320              		.loc 1 439 0
 321              		.cfi_startproc
 322 0000 80B5     		push	{r7, lr}
 323              		.cfi_def_cfa_offset 8
 324              		.cfi_offset 7, -8
 325              		.cfi_offset 14, -4
 326 0002 00AF     		add	r7, sp, #0
 327              		.cfi_def_cfa_register 7
 440:.\Generated_Source\PSoC4/BLE.c ****     CyBle_Shutdown();                         /* Stop all ongoing activities */
 328              		.loc 1 440 0
 329 0004 FFF7FEFF 		bl	CyBle_Shutdown
 441:.\Generated_Source\PSoC4/BLE.c ****     CyBle_SetState(CYBLE_STATE_STOPPED);
 330              		.loc 1 441 0
 331 0008 024B     		ldr	r3, .L16
 332 000a 0022     		mov	r2, #0
 333 000c 1A70     		strb	r2, [r3]
 442:.\Generated_Source\PSoC4/BLE.c ****     #if(CYBLE_SHARING_MODE_EXPORT)
 443:.\Generated_Source\PSoC4/BLE.c ****         if(cyBle_stackMemoryRam != NULL)
 444:.\Generated_Source\PSoC4/BLE.c ****         {
 445:.\Generated_Source\PSoC4/BLE.c ****             free(cyBle_stackMemoryRam);
 446:.\Generated_Source\PSoC4/BLE.c ****         }
 447:.\Generated_Source\PSoC4/BLE.c ****     #endif /* CYBLE_SHARING_MODE_EXPORT */
 448:.\Generated_Source\PSoC4/BLE.c **** }
 334              		.loc 1 448 0
 335 000e BD46     		mov	sp, r7
 336              		@ sp needed
 337 0010 80BD     		pop	{r7, pc}
 338              	.L17:
 339 0012 C046     		.align	2
 340              	.L16:
 341 0014 00000000 		.word	cyBle_state
 342              		.cfi_endproc
ARM GAS  C:\Users\YBOURA~1\AppData\Local\Temp\cctTxG75.s 			page 15


 343              	.LFE5:
 344              		.size	CyBle_Stop, .-CyBle_Stop
 345              		.section	.text.CyBle_GapcStartScan,"ax",%progbits
 346              		.align	2
 347              		.global	CyBle_GapcStartScan
 348              		.code	16
 349              		.thumb_func
 350              		.type	CyBle_GapcStartScan, %function
 351              	CyBle_GapcStartScan:
 352              	.LFB6:
 449:.\Generated_Source\PSoC4/BLE.c **** 
 450:.\Generated_Source\PSoC4/BLE.c **** 
 451:.\Generated_Source\PSoC4/BLE.c **** #if((CYBLE_GAP_ROLE_PERIPHERAL || CYBLE_GAP_ROLE_CENTRAL) && (CYBLE_BONDING_REQUIREMENT == CYBLE_BO
 452:.\Generated_Source\PSoC4/BLE.c **** 
 453:.\Generated_Source\PSoC4/BLE.c ****     
 454:.\Generated_Source\PSoC4/BLE.c **** /******************************************************************************
 455:.\Generated_Source\PSoC4/BLE.c **** * Function Name: CyBle_StoreBondingData
 456:.\Generated_Source\PSoC4/BLE.c **** ***************************************************************************//**
 457:.\Generated_Source\PSoC4/BLE.c **** * 
 458:.\Generated_Source\PSoC4/BLE.c **** *  This function writes the new bonding data from RAM to the dedicated Flash 
 459:.\Generated_Source\PSoC4/BLE.c **** *  location as defined by the component. It performs data comparing between RAM
 460:.\Generated_Source\PSoC4/BLE.c **** *  and Flash before writing to Flash. If there is no change between RAM and Flash
 461:.\Generated_Source\PSoC4/BLE.c **** *  data, then no write is performed. It writes only one flash row in one call.
 462:.\Generated_Source\PSoC4/BLE.c **** *  Application should keep calling this function till API return CYBLE_ERROR_OK. 
 463:.\Generated_Source\PSoC4/BLE.c **** *  This function is available only when Bonding requirement is selected in
 464:.\Generated_Source\PSoC4/BLE.c **** *  Security settings.    
 465:.\Generated_Source\PSoC4/BLE.c **** * 
 466:.\Generated_Source\PSoC4/BLE.c **** *  \param isForceWrite:  If value is set to 0, then stack will check if flash write 
 467:.\Generated_Source\PSoC4/BLE.c **** *                 is permissible. 
 468:.\Generated_Source\PSoC4/BLE.c **** *  
 469:.\Generated_Source\PSoC4/BLE.c **** * \return
 470:.\Generated_Source\PSoC4/BLE.c **** *  Return value is of type CYBLE_API_RESULT_T.
 471:.\Generated_Source\PSoC4/BLE.c **** *
 472:.\Generated_Source\PSoC4/BLE.c **** *   Errors codes                         | Description
 473:.\Generated_Source\PSoC4/BLE.c **** *   ----------------------------------   | ------------------------------------
 474:.\Generated_Source\PSoC4/BLE.c **** *   CYBLE_ERROR_OK                       | On successful operation
 475:.\Generated_Source\PSoC4/BLE.c **** *   CYBLE_ERROR_FLASH_WRITE_NOT_PERMITED | Flash Write is not complete
 476:.\Generated_Source\PSoC4/BLE.c **** *    
 477:.\Generated_Source\PSoC4/BLE.c **** *  \sideeffect
 478:.\Generated_Source\PSoC4/BLE.c **** *   For BLE devices with 128K of Flash memory this API will automatically 
 479:.\Generated_Source\PSoC4/BLE.c **** *   modify the clock settings for the device.
 480:.\Generated_Source\PSoC4/BLE.c **** *   Writing to flash requires changes to be done to the IMO (set to 48 MHz)
 481:.\Generated_Source\PSoC4/BLE.c **** *   and HFCLK (source set to IMO) settings. The configuration is restored before
 482:.\Generated_Source\PSoC4/BLE.c **** *   returning. This will impact the operation of most of the hardware in the
 483:.\Generated_Source\PSoC4/BLE.c **** *   device.
 484:.\Generated_Source\PSoC4/BLE.c **** * 
 485:.\Generated_Source\PSoC4/BLE.c **** *  \globalvars
 486:.\Generated_Source\PSoC4/BLE.c **** *   The BLE_pendingFlashWrite variable is used to detect status
 487:.\Generated_Source\PSoC4/BLE.c **** *   of pending write to flash operation for stack data and CCCD.
 488:.\Generated_Source\PSoC4/BLE.c **** *   This API automatically clears pending bits after write operation complete.
 489:.\Generated_Source\PSoC4/BLE.c **** *     
 490:.\Generated_Source\PSoC4/BLE.c **** ******************************************************************************/
 491:.\Generated_Source\PSoC4/BLE.c **** CYBLE_API_RESULT_T CyBle_StoreBondingData(uint8 isForceWrite)
 492:.\Generated_Source\PSoC4/BLE.c **** {
 493:.\Generated_Source\PSoC4/BLE.c ****     CYBLE_API_RESULT_T apiResult = CYBLE_ERROR_OK;
 494:.\Generated_Source\PSoC4/BLE.c ****     
 495:.\Generated_Source\PSoC4/BLE.c ****     /* Store Stack data */
ARM GAS  C:\Users\YBOURA~1\AppData\Local\Temp\cctTxG75.s 			page 16


 496:.\Generated_Source\PSoC4/BLE.c ****     if((cyBle_pendingFlashWrite & CYBLE_PENDING_STACK_FLASH_WRITE_BIT) != 0u)
 497:.\Generated_Source\PSoC4/BLE.c ****     {
 498:.\Generated_Source\PSoC4/BLE.c ****         apiResult = CyBle_StoreStackData(isForceWrite);
 499:.\Generated_Source\PSoC4/BLE.c ****         if(apiResult == CYBLE_ERROR_OK)
 500:.\Generated_Source\PSoC4/BLE.c ****         {
 501:.\Generated_Source\PSoC4/BLE.c ****             cyBle_pendingFlashWrite &= (uint8)~CYBLE_PENDING_STACK_FLASH_WRITE_BIT;
 502:.\Generated_Source\PSoC4/BLE.c ****             /* Change apiResult if there are more pending data to store */
 503:.\Generated_Source\PSoC4/BLE.c ****             if((cyBle_pendingFlashWrite & CYBLE_PENDING_CCCD_FLASH_WRITE_BIT) != 0u)
 504:.\Generated_Source\PSoC4/BLE.c ****             {
 505:.\Generated_Source\PSoC4/BLE.c ****                 apiResult = CYBLE_ERROR_FLASH_WRITE_NOT_PERMITED;
 506:.\Generated_Source\PSoC4/BLE.c ****             }
 507:.\Generated_Source\PSoC4/BLE.c ****         }
 508:.\Generated_Source\PSoC4/BLE.c ****     }
 509:.\Generated_Source\PSoC4/BLE.c **** #if(CYBLE_GATT_DB_CCCD_COUNT != 0u)
 510:.\Generated_Source\PSoC4/BLE.c ****     /* Store CCCD values */
 511:.\Generated_Source\PSoC4/BLE.c ****     if( ((apiResult == CYBLE_ERROR_OK) || (isForceWrite != 0u)) && 
 512:.\Generated_Source\PSoC4/BLE.c ****         ((cyBle_pendingFlashWrite & CYBLE_PENDING_CCCD_FLASH_WRITE_BIT) != 0u) &&
 513:.\Generated_Source\PSoC4/BLE.c ****         (cyBle_connHandle.bdHandle <= CYBLE_GAP_MAX_BONDED_DEVICE))
 514:.\Generated_Source\PSoC4/BLE.c ****     {
 515:.\Generated_Source\PSoC4/BLE.c ****         apiResult = CyBle_StoreAppData(cyBle_attValuesCCCD, cyBle_flashStorage.attValuesCCCDFlashMe
 516:.\Generated_Source\PSoC4/BLE.c ****                                        CYBLE_GATT_DB_CCCD_COUNT, isForceWrite);
 517:.\Generated_Source\PSoC4/BLE.c ****         if(apiResult == CYBLE_ERROR_OK)
 518:.\Generated_Source\PSoC4/BLE.c ****         {
 519:.\Generated_Source\PSoC4/BLE.c ****             cyBle_pendingFlashWrite &= (uint8)~CYBLE_PENDING_CCCD_FLASH_WRITE_BIT;
 520:.\Generated_Source\PSoC4/BLE.c ****         }
 521:.\Generated_Source\PSoC4/BLE.c ****     }
 522:.\Generated_Source\PSoC4/BLE.c **** #endif /* CYBLE_GATT_DB_CCCD_COUNT != 0u */
 523:.\Generated_Source\PSoC4/BLE.c ****     return(apiResult);
 524:.\Generated_Source\PSoC4/BLE.c **** }
 525:.\Generated_Source\PSoC4/BLE.c **** 
 526:.\Generated_Source\PSoC4/BLE.c **** 
 527:.\Generated_Source\PSoC4/BLE.c **** #endif /* (CYBLE_GAP_ROLE_PERIPHERAL || CYBLE_GAP_ROLE_CENTRAL) && (CYBLE_BONDING_REQUIREMENT == CY
 528:.\Generated_Source\PSoC4/BLE.c **** 
 529:.\Generated_Source\PSoC4/BLE.c **** 
 530:.\Generated_Source\PSoC4/BLE.c **** #if(CYBLE_GAP_ROLE_PERIPHERAL || CYBLE_GAP_ROLE_BROADCASTER)
 531:.\Generated_Source\PSoC4/BLE.c **** 
 532:.\Generated_Source\PSoC4/BLE.c ****     /******************************************************************************
 533:.\Generated_Source\PSoC4/BLE.c ****     *  Function Name: CyBle_GappStartAdvertisement
 534:.\Generated_Source\PSoC4/BLE.c ****     ***************************************************************************//**
 535:.\Generated_Source\PSoC4/BLE.c ****     *     
 536:.\Generated_Source\PSoC4/BLE.c ****     *  This function is used to start the advertisement using the advertisement data 
 537:.\Generated_Source\PSoC4/BLE.c ****     *  set in the component customizer's GUI. After invoking this API, the device 
 538:.\Generated_Source\PSoC4/BLE.c ****     *  will be available for connection by the devices configured for GAP central 
 539:.\Generated_Source\PSoC4/BLE.c ****     *  role. It is only included if the device is configured for GAP Peripheral or 
 540:.\Generated_Source\PSoC4/BLE.c ****     *  GAP Peripheral + Central role.
 541:.\Generated_Source\PSoC4/BLE.c ****     *  
 542:.\Generated_Source\PSoC4/BLE.c ****     *  On start of advertisement, GAP Peripheral receives the
 543:.\Generated_Source\PSoC4/BLE.c ****     *  CYBLE_EVT_GAPP_ADVERTISEMENT_START_STOP event. The following events are 
 544:.\Generated_Source\PSoC4/BLE.c ****     *  possible on invoking this function:
 545:.\Generated_Source\PSoC4/BLE.c ****     *  
 546:.\Generated_Source\PSoC4/BLE.c ****     *  * CYBLE_EVT_GAP_DEVICE_CONNECTED: If the device connects to remote GAP 
 547:.\Generated_Source\PSoC4/BLE.c ****     *                                      Central device
 548:.\Generated_Source\PSoC4/BLE.c ****     *  * CYBLE_EVT_TIMEOUT: If no device in GAP Central mode connects to this 
 549:.\Generated_Source\PSoC4/BLE.c ****     *                       device within the specified timeout limit. Stack 
 550:.\Generated_Source\PSoC4/BLE.c ****     *                       automatically initiate stop advertising when Slow 
 551:.\Generated_Source\PSoC4/BLE.c ****     *                       advertising was initiated, or starts Slow advertising
 552:.\Generated_Source\PSoC4/BLE.c ****     *                       after Fast advertising timeout occur.
ARM GAS  C:\Users\YBOURA~1\AppData\Local\Temp\cctTxG75.s 			page 17


 553:.\Generated_Source\PSoC4/BLE.c ****     *  * CYBLE_EVT_GAPP_ADVERTISEMENT_START_STOP: If device started or stopped
 554:.\Generated_Source\PSoC4/BLE.c ****     *                                               advertising. Use CyBle_GetState()
 555:.\Generated_Source\PSoC4/BLE.c ****     *                                               to determine the state. Sequential 
 556:.\Generated_Source\PSoC4/BLE.c ****     *                                               advertising could be started when
 557:.\Generated_Source\PSoC4/BLE.c ****     *                                               CYBLE_STATE_DISCONNECTED state is
 558:.\Generated_Source\PSoC4/BLE.c ****     *                                               returned.
 559:.\Generated_Source\PSoC4/BLE.c ****     * 
 560:.\Generated_Source\PSoC4/BLE.c ****     *  \param advertisingIntervalType: Fast or slow advertising interval with timings
 561:.\Generated_Source\PSoC4/BLE.c ****     *                                 entered in Advertising settings section of the
 562:.\Generated_Source\PSoC4/BLE.c ****     *                                 customizer.
 563:.\Generated_Source\PSoC4/BLE.c ****     *  * CYBLE_ADVERTISING_FAST   0x00u
 564:.\Generated_Source\PSoC4/BLE.c ****     *  * CYBLE_ADVERTISING_SLOW   0x01u
 565:.\Generated_Source\PSoC4/BLE.c ****     *  * CYBLE_ADVERTISING_CUSTOM 0x02u
 566:.\Generated_Source\PSoC4/BLE.c ****     * 
 567:.\Generated_Source\PSoC4/BLE.c ****     * \return
 568:.\Generated_Source\PSoC4/BLE.c ****     *  CYBLE_API_RESULT_T : Return value indicates if the function succeeded or
 569:.\Generated_Source\PSoC4/BLE.c ****     *  failed. Following are the possible error codes.
 570:.\Generated_Source\PSoC4/BLE.c ****     * 
 571:.\Generated_Source\PSoC4/BLE.c ****     *   Errors codes                      |  Description
 572:.\Generated_Source\PSoC4/BLE.c ****     *   --------------------------------- |  --------------------------------
 573:.\Generated_Source\PSoC4/BLE.c ****     *   CYBLE_ERROR_OK                    |  On successful operation.
 574:.\Generated_Source\PSoC4/BLE.c ****     *   CYBLE_ERROR_INVALID_PARAMETER     |  On passing an invalid parameter.
 575:.\Generated_Source\PSoC4/BLE.c ****     *   CYBLE_ERROR_INVALID_STATE         |  On calling this API not in Disconnected state.
 576:.\Generated_Source\PSoC4/BLE.c ****     *
 577:.\Generated_Source\PSoC4/BLE.c ****     * 
 578:.\Generated_Source\PSoC4/BLE.c ****     *******************************************************************************/
 579:.\Generated_Source\PSoC4/BLE.c ****     CYBLE_API_RESULT_T CyBle_GappStartAdvertisement(uint8 advertisingIntervalType)
 580:.\Generated_Source\PSoC4/BLE.c ****     {
 581:.\Generated_Source\PSoC4/BLE.c ****         CYBLE_API_RESULT_T apiResult;
 582:.\Generated_Source\PSoC4/BLE.c ****         
 583:.\Generated_Source\PSoC4/BLE.c ****         if(advertisingIntervalType > CYBLE_ADVERTISING_CUSTOM)
 584:.\Generated_Source\PSoC4/BLE.c ****         {
 585:.\Generated_Source\PSoC4/BLE.c ****             apiResult = CYBLE_ERROR_INVALID_PARAMETER;
 586:.\Generated_Source\PSoC4/BLE.c ****         }
 587:.\Generated_Source\PSoC4/BLE.c ****         else if((CYBLE_STATE_DISCONNECTED == CyBle_GetState()) && ((cyBle_eventHandlerFlag & CYBLE_
 588:.\Generated_Source\PSoC4/BLE.c ****         {   
 589:.\Generated_Source\PSoC4/BLE.c ****             if(advertisingIntervalType == CYBLE_ADVERTISING_FAST)
 590:.\Generated_Source\PSoC4/BLE.c ****             {
 591:.\Generated_Source\PSoC4/BLE.c ****                 cyBle_discoveryModeInfo.advTo = CYBLE_FAST_ADV_TIMEOUT;
 592:.\Generated_Source\PSoC4/BLE.c ****                 cyBle_discoveryModeInfo.advParam->advIntvMin = CYBLE_FAST_ADV_INT_MIN;
 593:.\Generated_Source\PSoC4/BLE.c ****                 cyBle_discoveryModeInfo.advParam->advIntvMax = CYBLE_FAST_ADV_INT_MAX;
 594:.\Generated_Source\PSoC4/BLE.c ****             }
 595:.\Generated_Source\PSoC4/BLE.c ****             else if(advertisingIntervalType == CYBLE_ADVERTISING_SLOW)
 596:.\Generated_Source\PSoC4/BLE.c ****             {
 597:.\Generated_Source\PSoC4/BLE.c ****                 cyBle_discoveryModeInfo.advTo = CYBLE_SLOW_ADV_TIMEOUT;
 598:.\Generated_Source\PSoC4/BLE.c ****                 cyBle_discoveryModeInfo.advParam->advIntvMin = CYBLE_SLOW_ADV_INT_MIN;
 599:.\Generated_Source\PSoC4/BLE.c ****                 cyBle_discoveryModeInfo.advParam->advIntvMax = CYBLE_SLOW_ADV_INT_MAX;
 600:.\Generated_Source\PSoC4/BLE.c ****             }       
 601:.\Generated_Source\PSoC4/BLE.c ****             else /* Do not update advertising intervals */
 602:.\Generated_Source\PSoC4/BLE.c ****             {
 603:.\Generated_Source\PSoC4/BLE.c ****             }
 604:.\Generated_Source\PSoC4/BLE.c ****             cyBle_advertisingIntervalType = advertisingIntervalType;
 605:.\Generated_Source\PSoC4/BLE.c ****             apiResult = CyBle_GappEnterDiscoveryMode(&cyBle_discoveryModeInfo);
 606:.\Generated_Source\PSoC4/BLE.c ****         
 607:.\Generated_Source\PSoC4/BLE.c ****             if(CYBLE_ERROR_OK == apiResult)
 608:.\Generated_Source\PSoC4/BLE.c ****             {
 609:.\Generated_Source\PSoC4/BLE.c ****                 cyBle_eventHandlerFlag |= CYBLE_START_FLAG;
ARM GAS  C:\Users\YBOURA~1\AppData\Local\Temp\cctTxG75.s 			page 18


 610:.\Generated_Source\PSoC4/BLE.c ****             }
 611:.\Generated_Source\PSoC4/BLE.c ****         }
 612:.\Generated_Source\PSoC4/BLE.c ****         else
 613:.\Generated_Source\PSoC4/BLE.c ****         {
 614:.\Generated_Source\PSoC4/BLE.c ****             apiResult = CYBLE_ERROR_INVALID_STATE;
 615:.\Generated_Source\PSoC4/BLE.c ****         }
 616:.\Generated_Source\PSoC4/BLE.c **** 
 617:.\Generated_Source\PSoC4/BLE.c ****         return (apiResult);
 618:.\Generated_Source\PSoC4/BLE.c ****     }
 619:.\Generated_Source\PSoC4/BLE.c **** 
 620:.\Generated_Source\PSoC4/BLE.c ****     
 621:.\Generated_Source\PSoC4/BLE.c ****     /******************************************************************************
 622:.\Generated_Source\PSoC4/BLE.c ****     * Function Name: CyBle_GappStopAdvertisement
 623:.\Generated_Source\PSoC4/BLE.c ****     ***************************************************************************//**
 624:.\Generated_Source\PSoC4/BLE.c ****     * 
 625:.\Generated_Source\PSoC4/BLE.c ****     *   This function can be used to exit from discovery mode. After the execution 
 626:.\Generated_Source\PSoC4/BLE.c ****     *   of this function, there will no longer be any advertisements. On stopping 
 627:.\Generated_Source\PSoC4/BLE.c ****     *   advertising, GAP Peripheral receives CYBLE_EVT_GAPP_ADVERTISEMENT_START_STOP
 628:.\Generated_Source\PSoC4/BLE.c ****     *   event. It is expected that the application layer tracks the function call 
 629:.\Generated_Source\PSoC4/BLE.c ****     *   performed before occurrence of this event as this event can occur on making 
 630:.\Generated_Source\PSoC4/BLE.c ****     *   a call to Cy_BleGappStartAdvertisement(), CyBle_GappEnterDiscoveryMode(), 
 631:.\Generated_Source\PSoC4/BLE.c ****     *   or CyBle_GappStartAdvertisement() functions as well.
 632:.\Generated_Source\PSoC4/BLE.c ****     *   
 633:.\Generated_Source\PSoC4/BLE.c ****     *   The following event occurs on invoking this function:
 634:.\Generated_Source\PSoC4/BLE.c ****     *   * CYBLE_EVT_GAPP_ADVERTISEMENT_START_STOP
 635:.\Generated_Source\PSoC4/BLE.c ****     * 
 636:.\Generated_Source\PSoC4/BLE.c ****     *  \return
 637:.\Generated_Source\PSoC4/BLE.c ****     *   None
 638:.\Generated_Source\PSoC4/BLE.c ****     * 
 639:.\Generated_Source\PSoC4/BLE.c ****     *******************************************************************************/
 640:.\Generated_Source\PSoC4/BLE.c ****     void CyBle_GappStopAdvertisement(void)
 641:.\Generated_Source\PSoC4/BLE.c ****     {
 642:.\Generated_Source\PSoC4/BLE.c ****         CyBle_GappExitDiscoveryMode();
 643:.\Generated_Source\PSoC4/BLE.c ****         cyBle_eventHandlerFlag |= CYBLE_STOP_FLAG;
 644:.\Generated_Source\PSoC4/BLE.c ****     }
 645:.\Generated_Source\PSoC4/BLE.c ****     
 646:.\Generated_Source\PSoC4/BLE.c ****     
 647:.\Generated_Source\PSoC4/BLE.c ****     /******************************************************************************
 648:.\Generated_Source\PSoC4/BLE.c ****     * Function Name: CyBle_ChangeAdDeviceAddress
 649:.\Generated_Source\PSoC4/BLE.c ****     ***************************************************************************//**
 650:.\Generated_Source\PSoC4/BLE.c ****     * 
 651:.\Generated_Source\PSoC4/BLE.c ****     *  This API is used to set the Bluetooth device address into the advertisement 
 652:.\Generated_Source\PSoC4/BLE.c ****     *  or scan response data structure.
 653:.\Generated_Source\PSoC4/BLE.c ****     * 
 654:.\Generated_Source\PSoC4/BLE.c ****     *  \param bdAddr: Bluetooth Device address. The variable is of type CYBLE_GAP_BD_ADDR_T
 655:.\Generated_Source\PSoC4/BLE.c ****     *  \param dest: 0 - selects advertisement structure, not zero value selects scan 
 656:.\Generated_Source\PSoC4/BLE.c ****     *               response structure.
 657:.\Generated_Source\PSoC4/BLE.c ****     * 
 658:.\Generated_Source\PSoC4/BLE.c ****     * \return
 659:.\Generated_Source\PSoC4/BLE.c ****     *  None
 660:.\Generated_Source\PSoC4/BLE.c ****     *  
 661:.\Generated_Source\PSoC4/BLE.c ****     *******************************************************************************/
 662:.\Generated_Source\PSoC4/BLE.c ****     void CyBle_ChangeAdDeviceAddress(const CYBLE_GAP_BD_ADDR_T* bdAddr, uint8 dest)
 663:.\Generated_Source\PSoC4/BLE.c ****     {
 664:.\Generated_Source\PSoC4/BLE.c ****         uint8 i;
 665:.\Generated_Source\PSoC4/BLE.c ****         uint8 *destBuffer = NULL;
 666:.\Generated_Source\PSoC4/BLE.c ****         
ARM GAS  C:\Users\YBOURA~1\AppData\Local\Temp\cctTxG75.s 			page 19


 667:.\Generated_Source\PSoC4/BLE.c ****         if(dest == 0u)      /* Destination - advertising structure */
 668:.\Generated_Source\PSoC4/BLE.c ****         {
 669:.\Generated_Source\PSoC4/BLE.c ****             #ifdef CYBLE_ADV_PKT_INDEX_BLUETOOTH_DEVICE_ADDRESS
 670:.\Generated_Source\PSoC4/BLE.c ****                 destBuffer = &cyBle_discoveryData.advData[CYBLE_ADV_PKT_INDEX_BLUETOOTH_DEVICE_ADDR
 671:.\Generated_Source\PSoC4/BLE.c ****             #endif /* CYBLE_ADV_PKT_INDEX_BLUETOOTH_DEVICE_ADDRESS */
 672:.\Generated_Source\PSoC4/BLE.c ****         }
 673:.\Generated_Source\PSoC4/BLE.c ****         else                /* Destination - scan response structure */
 674:.\Generated_Source\PSoC4/BLE.c ****         {
 675:.\Generated_Source\PSoC4/BLE.c ****             #ifdef CYBLE_SCN_PKT_INDEX_BLUETOOTH_DEVICE_ADDRESS
 676:.\Generated_Source\PSoC4/BLE.c ****                 destBuffer = &cyBle_scanRspData.scanRspData[CYBLE_SCN_PKT_INDEX_BLUETOOTH_DEVICE_AD
 677:.\Generated_Source\PSoC4/BLE.c ****             #endif /* CYBLE_SCN_PKT_INDEX_BLUETOOTH_DEVICE_ADDRESS */    
 678:.\Generated_Source\PSoC4/BLE.c ****         }
 679:.\Generated_Source\PSoC4/BLE.c ****         
 680:.\Generated_Source\PSoC4/BLE.c ****         if(destBuffer != NULL)
 681:.\Generated_Source\PSoC4/BLE.c ****         {
 682:.\Generated_Source\PSoC4/BLE.c ****             /* Update Device Address type */
 683:.\Generated_Source\PSoC4/BLE.c ****             destBuffer[0u] = bdAddr->type;
 684:.\Generated_Source\PSoC4/BLE.c ****             
 685:.\Generated_Source\PSoC4/BLE.c ****             for(i = 0u; i < CYBLE_GAP_BD_ADDR_SIZE; i++)
 686:.\Generated_Source\PSoC4/BLE.c ****             {
 687:.\Generated_Source\PSoC4/BLE.c ****                 destBuffer[i + 1u] = bdAddr->bdAddr[i];
 688:.\Generated_Source\PSoC4/BLE.c ****             }
 689:.\Generated_Source\PSoC4/BLE.c ****         }
 690:.\Generated_Source\PSoC4/BLE.c ****     }
 691:.\Generated_Source\PSoC4/BLE.c ****   
 692:.\Generated_Source\PSoC4/BLE.c **** #endif /* CYBLE_GAP_ROLE_PERIPHERAL || CYBLE_GAP_ROLE_BROADCASTER */
 693:.\Generated_Source\PSoC4/BLE.c **** 
 694:.\Generated_Source\PSoC4/BLE.c **** 
 695:.\Generated_Source\PSoC4/BLE.c **** #if(CYBLE_GAP_ROLE_CENTRAL || CYBLE_GAP_ROLE_OBSERVER)
 696:.\Generated_Source\PSoC4/BLE.c **** 
 697:.\Generated_Source\PSoC4/BLE.c ****     /******************************************************************************
 698:.\Generated_Source\PSoC4/BLE.c ****     * Function Name: CyBle_GapcStartScan
 699:.\Generated_Source\PSoC4/BLE.c ****     ***************************************************************************//**
 700:.\Generated_Source\PSoC4/BLE.c ****     * 
 701:.\Generated_Source\PSoC4/BLE.c ****     *   This function is used for discovering GAP peripheral devices that are 
 702:.\Generated_Source\PSoC4/BLE.c ****     *   available for connection. It performs the scanning routine using the 
 703:.\Generated_Source\PSoC4/BLE.c ****     *   parameters entered in the component's customizer.
 704:.\Generated_Source\PSoC4/BLE.c ****     *   
 705:.\Generated_Source\PSoC4/BLE.c ****     *   As soon as the discovery operation starts, CYBLE_EVT_GAPC_SCAN_START_STOP 
 706:.\Generated_Source\PSoC4/BLE.c ****     *   event is generated. The CYBLE_EVT_GAPC_SCAN_PROGRESS_RESULT event is 
 707:.\Generated_Source\PSoC4/BLE.c ****     *   generated when a GAP peripheral device is located. There are three discovery
 708:.\Generated_Source\PSoC4/BLE.c ****     *   procedures can be selected in the customizer's GUI:
 709:.\Generated_Source\PSoC4/BLE.c ****     *   
 710:.\Generated_Source\PSoC4/BLE.c ****     *   * Observation procedure: A device performing the observer role receives only
 711:.\Generated_Source\PSoC4/BLE.c ****     *                            advertisement data from devices irrespective of 
 712:.\Generated_Source\PSoC4/BLE.c ****     *                            their discoverable mode settings. Advertisement 
 713:.\Generated_Source\PSoC4/BLE.c ****     *                            data received is provided by the event,      
 714:.\Generated_Source\PSoC4/BLE.c ****     *                            CYBLE_EVT_GAPC_SCAN_PROGRESS_RESULT. This procedure
 715:.\Generated_Source\PSoC4/BLE.c ****     *                            requires the scanType sub parameter to be passive
 716:.\Generated_Source\PSoC4/BLE.c ****     *                            scanning. 
 717:.\Generated_Source\PSoC4/BLE.c ****     *   
 718:.\Generated_Source\PSoC4/BLE.c ****     *   * Limited Discovery procedure: A device performing the limited discovery
 719:.\Generated_Source\PSoC4/BLE.c ****     *                                  procedure receives advertisement data and 
 720:.\Generated_Source\PSoC4/BLE.c ****     *                                  scan# response data from devices in the 
 721:.\Generated_Source\PSoC4/BLE.c ****     *                                  limited discoverable mode only. Received data
 722:.\Generated_Source\PSoC4/BLE.c ****     *                                  is provided by the event, 
 723:.\Generated_Source\PSoC4/BLE.c ****     *                                  CYBLE_EVT_GAPC_SCAN_PROGRESS_RESULT. This 
ARM GAS  C:\Users\YBOURA~1\AppData\Local\Temp\cctTxG75.s 			page 20


 724:.\Generated_Source\PSoC4/BLE.c ****     *                                  procedure requires the scanType sub-parameter 
 725:.\Generated_Source\PSoC4/BLE.c ****     *                                  to be active scanning.
 726:.\Generated_Source\PSoC4/BLE.c ****     *   
 727:.\Generated_Source\PSoC4/BLE.c ****     *   * General Discovery procedure: A device performing the general discovery 
 728:.\Generated_Source\PSoC4/BLE.c ****     *                                  procedure receives the advertisement data and
 729:.\Generated_Source\PSoC4/BLE.c ****     *                                  scan response data from devices in both 
 730:.\Generated_Source\PSoC4/BLE.c ****     *                                  limited discoverable mode and the general 
 731:.\Generated_Source\PSoC4/BLE.c ****     *                                  discoverable mode. Received data is provided
 732:.\Generated_Source\PSoC4/BLE.c ****     *                                  by the event,
 733:.\Generated_Source\PSoC4/BLE.c ****     *                                  CYBLE_EVT_GAPC_SCAN_PROGRESS_RESULT. This 
 734:.\Generated_Source\PSoC4/BLE.c ****     *                                  procedure requires the scanType sub-parameter
 735:.\Generated_Source\PSoC4/BLE.c ****     *                                  to be active scanning.
 736:.\Generated_Source\PSoC4/BLE.c ****     *   
 737:.\Generated_Source\PSoC4/BLE.c ****     *   Every Advertisement / Scan response packet received results in a new event, 
 738:.\Generated_Source\PSoC4/BLE.c ****     *   CYBLE_EVT_GAPC_SCAN_PROGRESS_RESULT.
 739:.\Generated_Source\PSoC4/BLE.c ****     *   If 'scanTo' sub-parameter is a non-zero value, then upon commencement of 
 740:.\Generated_Source\PSoC4/BLE.c ****     *   discovery procedure and elapsed time = 'scanTo', CYBLE_EVT_TIMEOUT event
 741:.\Generated_Source\PSoC4/BLE.c ****     *   is generated with the event parameter indicating CYBLE_GAP_SCAN_TO.
 742:.\Generated_Source\PSoC4/BLE.c ****     *   Possible generated events are:
 743:.\Generated_Source\PSoC4/BLE.c ****     *   * CYBLE_EVT_GAPC_SCAN_START_STOP: If a device started or stopped scanning. 
 744:.\Generated_Source\PSoC4/BLE.c ****     *                                     Use CyBle_GetState() to determine the 
 745:.\Generated_Source\PSoC4/BLE.c ****     *                                     state. Sequential scanning could be 
 746:.\Generated_Source\PSoC4/BLE.c ****     *                                     started when CYBLE_STATE_DISCONNECTED 
 747:.\Generated_Source\PSoC4/BLE.c ****     *                                     state is returned. 
 748:.\Generated_Source\PSoC4/BLE.c ****     *   * CYBLE_EVT_GAPC_SCAN_PROGRESS_RESULT 
 749:.\Generated_Source\PSoC4/BLE.c ****     *   * CYBLE_EVT_TIMEOUT (CYBLE_GAP_SCAN_TO)
 750:.\Generated_Source\PSoC4/BLE.c ****     * 
 751:.\Generated_Source\PSoC4/BLE.c ****     *   \param scanningIntervalType:  Fast or slow scanning interval with
 752:.\Generated_Source\PSoC4/BLE.c ****     *       timings entered in Scan settings section of the customizer.
 753:.\Generated_Source\PSoC4/BLE.c ****     * 	  * CYBLE_SCANNING_FAST   0x00u
 754:.\Generated_Source\PSoC4/BLE.c ****     * 	  * CYBLE_SCANNING_SLOW   0x01u
 755:.\Generated_Source\PSoC4/BLE.c ****     * 	  * CYBLE_SCANNING_CUSTOM 0x02u
 756:.\Generated_Source\PSoC4/BLE.c ****     * 
 757:.\Generated_Source\PSoC4/BLE.c ****     * \return
 758:.\Generated_Source\PSoC4/BLE.c ****     *  CYBLE_API_RESULT_T : Return value indicates if the function succeeded or
 759:.\Generated_Source\PSoC4/BLE.c ****     *  failed. Following are the possible error codes.
 760:.\Generated_Source\PSoC4/BLE.c ****     *
 761:.\Generated_Source\PSoC4/BLE.c ****     *   Errors codes                       | Description
 762:.\Generated_Source\PSoC4/BLE.c ****     *   ---------------------------------- | -----------------------------------
 763:.\Generated_Source\PSoC4/BLE.c ****     *   CYBLE_ERROR_OK                     | On successful operation.
 764:.\Generated_Source\PSoC4/BLE.c ****     *   CYBLE_ERROR_STACK_INTERNAL         | An error occurred in the BLE stack.
 765:.\Generated_Source\PSoC4/BLE.c ****     *   CYBLE_ERROR_INVALID_PARAMETER      | On passing an invalid parameter.
 766:.\Generated_Source\PSoC4/BLE.c ****     *  
 767:.\Generated_Source\PSoC4/BLE.c ****     *******************************************************************************/
 768:.\Generated_Source\PSoC4/BLE.c ****     CYBLE_API_RESULT_T CyBle_GapcStartScan(uint8 scanningIntervalType)
 769:.\Generated_Source\PSoC4/BLE.c ****     {
 353              		.loc 1 769 0
 354              		.cfi_startproc
 355 0000 90B5     		push	{r4, r7, lr}
 356              		.cfi_def_cfa_offset 12
 357              		.cfi_offset 4, -12
 358              		.cfi_offset 7, -8
 359              		.cfi_offset 14, -4
 360 0002 85B0     		sub	sp, sp, #20
 361              		.cfi_def_cfa_offset 32
 362 0004 00AF     		add	r7, sp, #0
 363              		.cfi_def_cfa_register 7
ARM GAS  C:\Users\YBOURA~1\AppData\Local\Temp\cctTxG75.s 			page 21


 364 0006 021C     		mov	r2, r0
 365 0008 FB1D     		add	r3, r7, #7
 366 000a 1A70     		strb	r2, [r3]
 770:.\Generated_Source\PSoC4/BLE.c ****         CYBLE_API_RESULT_T apiResult;
 771:.\Generated_Source\PSoC4/BLE.c **** 
 772:.\Generated_Source\PSoC4/BLE.c ****         if(scanningIntervalType > CYBLE_SCANNING_CUSTOM)
 367              		.loc 1 772 0
 368 000c FB1D     		add	r3, r7, #7
 369 000e 1B78     		ldrb	r3, [r3]
 370 0010 022B     		cmp	r3, #2
 371 0012 04D9     		bls	.L19
 773:.\Generated_Source\PSoC4/BLE.c ****         {
 774:.\Generated_Source\PSoC4/BLE.c ****             apiResult = CYBLE_ERROR_INVALID_PARAMETER;
 372              		.loc 1 774 0
 373 0014 0E23     		mov	r3, #14
 374 0016 FB18     		add	r3, r7, r3
 375 0018 0122     		mov	r2, #1
 376 001a 1A80     		strh	r2, [r3]
 377 001c 36E0     		b	.L20
 378              	.L19:
 775:.\Generated_Source\PSoC4/BLE.c ****         }
 776:.\Generated_Source\PSoC4/BLE.c ****         else
 777:.\Generated_Source\PSoC4/BLE.c ****         {
 778:.\Generated_Source\PSoC4/BLE.c ****             if(scanningIntervalType == CYBLE_SCANNING_FAST)
 379              		.loc 1 778 0
 380 001e FB1D     		add	r3, r7, #7
 381 0020 1B78     		ldrb	r3, [r3]
 382 0022 002B     		cmp	r3, #0
 383 0024 09D1     		bne	.L21
 779:.\Generated_Source\PSoC4/BLE.c ****             {
 780:.\Generated_Source\PSoC4/BLE.c ****                 cyBle_discoveryInfo.scanTo = CYBLE_FAST_SCAN_TIMEOUT;
 384              		.loc 1 780 0
 385 0026 1D4B     		ldr	r3, .L24
 386 0028 0022     		mov	r2, #0
 387 002a 1A81     		strh	r2, [r3, #8]
 781:.\Generated_Source\PSoC4/BLE.c ****                 cyBle_discoveryInfo.scanIntv = CYBLE_FAST_SCAN_INTERVAL;
 388              		.loc 1 781 0
 389 002c 1B4B     		ldr	r3, .L24
 390 002e 3022     		mov	r2, #48
 391 0030 5A80     		strh	r2, [r3, #2]
 782:.\Generated_Source\PSoC4/BLE.c ****                 cyBle_discoveryInfo.scanWindow = CYBLE_FAST_SCAN_WINDOW;
 392              		.loc 1 782 0
 393 0032 1A4B     		ldr	r3, .L24
 394 0034 3022     		mov	r2, #48
 395 0036 9A80     		strh	r2, [r3, #4]
 396 0038 0FE0     		b	.L22
 397              	.L21:
 783:.\Generated_Source\PSoC4/BLE.c ****             }
 784:.\Generated_Source\PSoC4/BLE.c ****             else if(scanningIntervalType == CYBLE_SCANNING_SLOW)
 398              		.loc 1 784 0
 399 003a FB1D     		add	r3, r7, #7
 400 003c 1B78     		ldrb	r3, [r3]
 401 003e 012B     		cmp	r3, #1
 402 0040 0BD1     		bne	.L22
 785:.\Generated_Source\PSoC4/BLE.c ****             {
 786:.\Generated_Source\PSoC4/BLE.c ****                 cyBle_discoveryInfo.scanTo = CYBLE_SLOW_SCAN_TIMEOUT;
 403              		.loc 1 786 0
ARM GAS  C:\Users\YBOURA~1\AppData\Local\Temp\cctTxG75.s 			page 22


 404 0042 164B     		ldr	r3, .L24
 405 0044 0122     		mov	r2, #1
 406 0046 5242     		neg	r2, r2
 407 0048 1A81     		strh	r2, [r3, #8]
 787:.\Generated_Source\PSoC4/BLE.c ****                 cyBle_discoveryInfo.scanIntv = CYBLE_SLOW_SCAN_INTERVAL;
 408              		.loc 1 787 0
 409 004a 144B     		ldr	r3, .L24
 410 004c 8022     		mov	r2, #128
 411 004e 1201     		lsl	r2, r2, #4
 412 0050 5A80     		strh	r2, [r3, #2]
 788:.\Generated_Source\PSoC4/BLE.c ****                 cyBle_discoveryInfo.scanWindow = CYBLE_SLOW_SCAN_WINDOW;
 413              		.loc 1 788 0
 414 0052 124B     		ldr	r3, .L24
 415 0054 E122     		mov	r2, #225
 416 0056 D200     		lsl	r2, r2, #3
 417 0058 9A80     		strh	r2, [r3, #4]
 418              	.L22:
 789:.\Generated_Source\PSoC4/BLE.c ****             }       
 790:.\Generated_Source\PSoC4/BLE.c ****             else /* Do not update scanning intervals */
 791:.\Generated_Source\PSoC4/BLE.c ****             {
 792:.\Generated_Source\PSoC4/BLE.c ****             }
 793:.\Generated_Source\PSoC4/BLE.c ****             
 794:.\Generated_Source\PSoC4/BLE.c ****             cyBle_scanningIntervalType = scanningIntervalType;
 419              		.loc 1 794 0
 420 005a 114B     		ldr	r3, .L24+4
 421 005c FA1D     		add	r2, r7, #7
 422 005e 1278     		ldrb	r2, [r2]
 423 0060 1A70     		strb	r2, [r3]
 795:.\Generated_Source\PSoC4/BLE.c ****             apiResult = CyBle_GapcStartDiscovery(&cyBle_discoveryInfo);
 424              		.loc 1 795 0
 425 0062 0E23     		mov	r3, #14
 426 0064 FC18     		add	r4, r7, r3
 427 0066 0D4B     		ldr	r3, .L24
 428 0068 181C     		mov	r0, r3
 429 006a FFF7FEFF 		bl	CyBle_GapcStartDiscovery
 430 006e 031C     		mov	r3, r0
 431 0070 2380     		strh	r3, [r4]
 796:.\Generated_Source\PSoC4/BLE.c ****         
 797:.\Generated_Source\PSoC4/BLE.c ****             if(CYBLE_ERROR_OK == apiResult)
 432              		.loc 1 797 0
 433 0072 0E23     		mov	r3, #14
 434 0074 FB18     		add	r3, r7, r3
 435 0076 1B88     		ldrh	r3, [r3]
 436 0078 002B     		cmp	r3, #0
 437 007a 07D1     		bne	.L20
 798:.\Generated_Source\PSoC4/BLE.c ****             {
 799:.\Generated_Source\PSoC4/BLE.c ****                 cyBle_eventHandlerFlag |= CYBLE_START_FLAG;
 438              		.loc 1 799 0
 439 007c 094B     		ldr	r3, .L24+8
 440 007e 1B78     		ldrb	r3, [r3]
 441 0080 DBB2     		uxtb	r3, r3
 442 0082 0422     		mov	r2, #4
 443 0084 1343     		orr	r3, r2
 444 0086 DAB2     		uxtb	r2, r3
 445 0088 064B     		ldr	r3, .L24+8
 446 008a 1A70     		strb	r2, [r3]
 447              	.L20:
ARM GAS  C:\Users\YBOURA~1\AppData\Local\Temp\cctTxG75.s 			page 23


 800:.\Generated_Source\PSoC4/BLE.c ****             }
 801:.\Generated_Source\PSoC4/BLE.c ****         }
 802:.\Generated_Source\PSoC4/BLE.c ****        
 803:.\Generated_Source\PSoC4/BLE.c ****         return (apiResult);
 448              		.loc 1 803 0
 449 008c 0E23     		mov	r3, #14
 450 008e FB18     		add	r3, r7, r3
 451 0090 1B88     		ldrh	r3, [r3]
 804:.\Generated_Source\PSoC4/BLE.c ****     }
 452              		.loc 1 804 0
 453 0092 181C     		mov	r0, r3
 454 0094 BD46     		mov	sp, r7
 455 0096 05B0     		add	sp, sp, #20
 456              		@ sp needed
 457 0098 90BD     		pop	{r4, r7, pc}
 458              	.L25:
 459 009a C046     		.align	2
 460              	.L24:
 461 009c 00000000 		.word	cyBle_discoveryInfo
 462 00a0 00000000 		.word	cyBle_scanningIntervalType
 463 00a4 00000000 		.word	cyBle_eventHandlerFlag
 464              		.cfi_endproc
 465              	.LFE6:
 466              		.size	CyBle_GapcStartScan, .-CyBle_GapcStartScan
 467              		.section	.text.CyBle_GapcStopScan,"ax",%progbits
 468              		.align	2
 469              		.global	CyBle_GapcStopScan
 470              		.code	16
 471              		.thumb_func
 472              		.type	CyBle_GapcStopScan, %function
 473              	CyBle_GapcStopScan:
 474              	.LFB7:
 805:.\Generated_Source\PSoC4/BLE.c ****     
 806:.\Generated_Source\PSoC4/BLE.c ****     
 807:.\Generated_Source\PSoC4/BLE.c ****     /******************************************************************************
 808:.\Generated_Source\PSoC4/BLE.c ****     * Function Name: CyBle_GapcStopScan
 809:.\Generated_Source\PSoC4/BLE.c ****     ***************************************************************************//**
 810:.\Generated_Source\PSoC4/BLE.c ****     * 
 811:.\Generated_Source\PSoC4/BLE.c ****     *   This function used to stop the discovery of devices. On stopping discovery
 812:.\Generated_Source\PSoC4/BLE.c ****     *   operation, CYBLE_EVT_GAPC_SCAN_START_STOP event is generated. Application
 813:.\Generated_Source\PSoC4/BLE.c ****     *   layer needs to keep track of the function call made before receiving this
 814:.\Generated_Source\PSoC4/BLE.c ****     *   event to associate this event with either the start or stop discovery
 815:.\Generated_Source\PSoC4/BLE.c ****     *   function.
 816:.\Generated_Source\PSoC4/BLE.c ****     * 
 817:.\Generated_Source\PSoC4/BLE.c ****     *   Possible events generated are:
 818:.\Generated_Source\PSoC4/BLE.c ****     *    * CYBLE_EVT_GAPC_SCAN_START_STOP
 819:.\Generated_Source\PSoC4/BLE.c ****     * 
 820:.\Generated_Source\PSoC4/BLE.c ****     *  \return
 821:.\Generated_Source\PSoC4/BLE.c ****     *   None
 822:.\Generated_Source\PSoC4/BLE.c ****     * 
 823:.\Generated_Source\PSoC4/BLE.c ****     *******************************************************************************/
 824:.\Generated_Source\PSoC4/BLE.c ****     void CyBle_GapcStopScan(void)
 825:.\Generated_Source\PSoC4/BLE.c ****     {
 475              		.loc 1 825 0
 476              		.cfi_startproc
 477 0000 80B5     		push	{r7, lr}
 478              		.cfi_def_cfa_offset 8
ARM GAS  C:\Users\YBOURA~1\AppData\Local\Temp\cctTxG75.s 			page 24


 479              		.cfi_offset 7, -8
 480              		.cfi_offset 14, -4
 481 0002 00AF     		add	r7, sp, #0
 482              		.cfi_def_cfa_register 7
 826:.\Generated_Source\PSoC4/BLE.c ****         CyBle_GapcStopDiscovery();
 483              		.loc 1 826 0
 484 0004 FFF7FEFF 		bl	CyBle_GapcStopDiscovery
 827:.\Generated_Source\PSoC4/BLE.c ****         
 828:.\Generated_Source\PSoC4/BLE.c ****         cyBle_eventHandlerFlag |= CYBLE_STOP_FLAG;
 485              		.loc 1 828 0
 486 0008 044B     		ldr	r3, .L27
 487 000a 1B78     		ldrb	r3, [r3]
 488 000c DBB2     		uxtb	r3, r3
 489 000e 0822     		mov	r2, #8
 490 0010 1343     		orr	r3, r2
 491 0012 DAB2     		uxtb	r2, r3
 492 0014 014B     		ldr	r3, .L27
 493 0016 1A70     		strb	r2, [r3]
 829:.\Generated_Source\PSoC4/BLE.c ****     }
 494              		.loc 1 829 0
 495 0018 BD46     		mov	sp, r7
 496              		@ sp needed
 497 001a 80BD     		pop	{r7, pc}
 498              	.L28:
 499              		.align	2
 500              	.L27:
 501 001c 00000000 		.word	cyBle_eventHandlerFlag
 502              		.cfi_endproc
 503              	.LFE7:
 504              		.size	CyBle_GapcStopScan, .-CyBle_GapcStopScan
 505              		.section	.text.CyBle_GapSetLocalName,"ax",%progbits
 506              		.align	2
 507              		.global	CyBle_GapSetLocalName
 508              		.code	16
 509              		.thumb_func
 510              		.type	CyBle_GapSetLocalName, %function
 511              	CyBle_GapSetLocalName:
 512              	.LFB8:
 830:.\Generated_Source\PSoC4/BLE.c **** 
 831:.\Generated_Source\PSoC4/BLE.c ****     
 832:.\Generated_Source\PSoC4/BLE.c **** #endif /* CYBLE_GAP_ROLE_CENTRAL || CYBLE_GAP_ROLE_OBSERVER */
 833:.\Generated_Source\PSoC4/BLE.c **** 
 834:.\Generated_Source\PSoC4/BLE.c **** 
 835:.\Generated_Source\PSoC4/BLE.c **** #if(CYBLE_GAP_ROLE_CENTRAL)
 836:.\Generated_Source\PSoC4/BLE.c **** 
 837:.\Generated_Source\PSoC4/BLE.c ****     /******************************************************************************
 838:.\Generated_Source\PSoC4/BLE.c ****     * Function Name: CyBle_GapcConnectDevice
 839:.\Generated_Source\PSoC4/BLE.c ****     ***************************************************************************//**
 840:.\Generated_Source\PSoC4/BLE.c ****     * 
 841:.\Generated_Source\PSoC4/BLE.c ****     *  This function is used to send a connection request to the remote device with
 842:.\Generated_Source\PSoC4/BLE.c ****     *  the connection parameters set in the component customizer. This function needs
 843:.\Generated_Source\PSoC4/BLE.c ****     *  to be called only once after the target device is discovered by 
 844:.\Generated_Source\PSoC4/BLE.c ****     *  CyBle_GapcStartScan() and further scanning has stopped. Scanning is 
 845:.\Generated_Source\PSoC4/BLE.c ****     *  successfully stopped on invoking CyBle_GapcStopScan() and then receiving the
 846:.\Generated_Source\PSoC4/BLE.c ****     *  event CYBLE_EVT_GAPC_SCAN_START_STOP with sub-parameter 'success' = 0x01u.
 847:.\Generated_Source\PSoC4/BLE.c ****     *  
 848:.\Generated_Source\PSoC4/BLE.c ****     *  On successful connection, the following events are generated at the GAP 
ARM GAS  C:\Users\YBOURA~1\AppData\Local\Temp\cctTxG75.s 			page 25


 849:.\Generated_Source\PSoC4/BLE.c ****     *  Central device (as well as the GAP Peripheral device), in the following order.
 850:.\Generated_Source\PSoC4/BLE.c ****     *  * CYBLE_EVT_GATT_CONNECT_IND
 851:.\Generated_Source\PSoC4/BLE.c ****     *  * CYBLE_EVT_GAP_DEVICE_CONNECTED
 852:.\Generated_Source\PSoC4/BLE.c ****     *  
 853:.\Generated_Source\PSoC4/BLE.c ****     *  A procedure is considered to have timed out if a connection response packet is 
 854:.\Generated_Source\PSoC4/BLE.c ****     *  not received within time set by cyBle_connectingTimeout global variable
 855:.\Generated_Source\PSoC4/BLE.c ****     *  (30 seconds by default). CYBLE_EVT_TIMEOUT event with CYBLE_GENERIC_TO parameter
 856:.\Generated_Source\PSoC4/BLE.c ****     *  will indicate about connection procedure timeout. Connection will automatically
 857:.\Generated_Source\PSoC4/BLE.c ****     *  be canceled and state will be changed to CYBLE_STATE_DISCONNECTED.
 858:.\Generated_Source\PSoC4/BLE.c ****     * 
 859:.\Generated_Source\PSoC4/BLE.c ****     *  \param address: The device address of the remote device to connect to. 
 860:.\Generated_Source\PSoC4/BLE.c ****     *  \param timeout: Timeout for which timer to be started in seconds.
 861:.\Generated_Source\PSoC4/BLE.c ****     *  
 862:.\Generated_Source\PSoC4/BLE.c ****     * \return
 863:.\Generated_Source\PSoC4/BLE.c ****     *  CYBLE_API_RESULT_T : Return value indicates if the function succeeded or 
 864:.\Generated_Source\PSoC4/BLE.c ****     *  failed. Following are the possible error codes.
 865:.\Generated_Source\PSoC4/BLE.c ****     *
 866:.\Generated_Source\PSoC4/BLE.c ****     *   Errors codes                       | Description
 867:.\Generated_Source\PSoC4/BLE.c ****     *   ------------                       | -----------
 868:.\Generated_Source\PSoC4/BLE.c ****     *   CYBLE_ERROR_OK                     | On successful operation.
 869:.\Generated_Source\PSoC4/BLE.c ****     *   CYBLE_ERROR_STACK_INTERNAL         | On error occurred in the BLE stack.
 870:.\Generated_Source\PSoC4/BLE.c ****     *   CYBLE_ERROR_INVALID_PARAMETER      | On passing an invalid parameter.
 871:.\Generated_Source\PSoC4/BLE.c ****     *   CYBLE_ERROR_INVALID_STATE          | On calling this API not in Disconnected state.
 872:.\Generated_Source\PSoC4/BLE.c ****     *  
 873:.\Generated_Source\PSoC4/BLE.c ****     ******************************************************************************/
 874:.\Generated_Source\PSoC4/BLE.c ****     CYBLE_API_RESULT_T CyBle_GapcConnectDevice(const CYBLE_GAP_BD_ADDR_T * address)
 875:.\Generated_Source\PSoC4/BLE.c ****     {
 876:.\Generated_Source\PSoC4/BLE.c ****         CYBLE_API_RESULT_T apiResult;
 877:.\Generated_Source\PSoC4/BLE.c ****         uint8 i;
 878:.\Generated_Source\PSoC4/BLE.c **** 
 879:.\Generated_Source\PSoC4/BLE.c ****         if(CYBLE_STATE_DISCONNECTED != CyBle_GetState())
 880:.\Generated_Source\PSoC4/BLE.c ****         {
 881:.\Generated_Source\PSoC4/BLE.c ****             apiResult = CYBLE_ERROR_INVALID_STATE;
 882:.\Generated_Source\PSoC4/BLE.c ****         }
 883:.\Generated_Source\PSoC4/BLE.c ****         else if(address == NULL)
 884:.\Generated_Source\PSoC4/BLE.c ****         {
 885:.\Generated_Source\PSoC4/BLE.c ****             apiResult = CYBLE_ERROR_INVALID_PARAMETER;
 886:.\Generated_Source\PSoC4/BLE.c ****         }
 887:.\Generated_Source\PSoC4/BLE.c ****         else
 888:.\Generated_Source\PSoC4/BLE.c ****         {
 889:.\Generated_Source\PSoC4/BLE.c ****             for(i = 0u; i < CYBLE_GAP_BD_ADDR_SIZE; i++)
 890:.\Generated_Source\PSoC4/BLE.c ****             {
 891:.\Generated_Source\PSoC4/BLE.c ****                 cyBle_connectionParameters.peerBdAddr[i] = address->bdAddr[i];
 892:.\Generated_Source\PSoC4/BLE.c ****             }
 893:.\Generated_Source\PSoC4/BLE.c ****             cyBle_connectionParameters.peerAddrType = address -> type;
 894:.\Generated_Source\PSoC4/BLE.c ****             apiResult = CyBle_GapcInitConnection(&cyBle_connectionParameters);
 895:.\Generated_Source\PSoC4/BLE.c ****             
 896:.\Generated_Source\PSoC4/BLE.c ****             if(CYBLE_ERROR_OK == apiResult)
 897:.\Generated_Source\PSoC4/BLE.c ****             {
 898:.\Generated_Source\PSoC4/BLE.c ****                 CyBle_SetState(CYBLE_STATE_CONNECTING);
 899:.\Generated_Source\PSoC4/BLE.c ****                 if(cyBle_connectingTimeout != 0u)
 900:.\Generated_Source\PSoC4/BLE.c ****                 {
 901:.\Generated_Source\PSoC4/BLE.c ****                     (void)CyBle_StartTimer(cyBle_connectingTimeout);
 902:.\Generated_Source\PSoC4/BLE.c ****                 }
 903:.\Generated_Source\PSoC4/BLE.c ****             }
 904:.\Generated_Source\PSoC4/BLE.c ****         }
 905:.\Generated_Source\PSoC4/BLE.c ****         return (apiResult);
ARM GAS  C:\Users\YBOURA~1\AppData\Local\Temp\cctTxG75.s 			page 26


 906:.\Generated_Source\PSoC4/BLE.c ****     }
 907:.\Generated_Source\PSoC4/BLE.c ****     
 908:.\Generated_Source\PSoC4/BLE.c **** 
 909:.\Generated_Source\PSoC4/BLE.c ****     /******************************************************************************
 910:.\Generated_Source\PSoC4/BLE.c ****     * Function Name: CyBle_GapcCancelDeviceConnection
 911:.\Generated_Source\PSoC4/BLE.c ****     ***************************************************************************//**
 912:.\Generated_Source\PSoC4/BLE.c ****     * 
 913:.\Generated_Source\PSoC4/BLE.c ****     *  This function cancels a previously initiated connection with the remote 
 914:.\Generated_Source\PSoC4/BLE.c ****     *  device. It is a blocking function. No event is generated on calling this 
 915:.\Generated_Source\PSoC4/BLE.c ****     *  function. If the devices are already connected then this function should not
 916:.\Generated_Source\PSoC4/BLE.c ****     *  be used. If you intend to disconnect from an existing connection, the function
 917:.\Generated_Source\PSoC4/BLE.c ****     *  CyBle_GapDisconnect() should be used.
 918:.\Generated_Source\PSoC4/BLE.c ****     * 
 919:.\Generated_Source\PSoC4/BLE.c ****     * \return
 920:.\Generated_Source\PSoC4/BLE.c ****     *  CYBLE_API_RESULT_T : Return value indicates if the function succeeded or 
 921:.\Generated_Source\PSoC4/BLE.c ****     *  failed. Following are the possible error codes.
 922:.\Generated_Source\PSoC4/BLE.c ****     *
 923:.\Generated_Source\PSoC4/BLE.c ****     *   Errors codes                       | Description
 924:.\Generated_Source\PSoC4/BLE.c ****     *   ---------------------------------- | --------------------------------------
 925:.\Generated_Source\PSoC4/BLE.c ****     *   CYBLE_ERROR_OK                     | On successful operation.
 926:.\Generated_Source\PSoC4/BLE.c ****     *   CYBLE_ERROR_STACK_INTERNAL         | An error occurred in the BLE stack.
 927:.\Generated_Source\PSoC4/BLE.c ****     *   CYBLE_ERROR_INVALID_OPERATION      | Device is already connected.
 928:.\Generated_Source\PSoC4/BLE.c ****     *  
 929:.\Generated_Source\PSoC4/BLE.c ****     *******************************************************************************/
 930:.\Generated_Source\PSoC4/BLE.c ****     CYBLE_API_RESULT_T CyBle_GapcCancelDeviceConnection(void)
 931:.\Generated_Source\PSoC4/BLE.c ****     {
 932:.\Generated_Source\PSoC4/BLE.c ****         CYBLE_API_RESULT_T apiResult;
 933:.\Generated_Source\PSoC4/BLE.c ****         
 934:.\Generated_Source\PSoC4/BLE.c ****         apiResult = CyBle_GapcCancelConnection();
 935:.\Generated_Source\PSoC4/BLE.c ****             
 936:.\Generated_Source\PSoC4/BLE.c ****         if(cyBle_connectingTimeout != 0u)
 937:.\Generated_Source\PSoC4/BLE.c ****         {
 938:.\Generated_Source\PSoC4/BLE.c ****             (void)CyBle_StopTimer();
 939:.\Generated_Source\PSoC4/BLE.c ****         }
 940:.\Generated_Source\PSoC4/BLE.c **** 
 941:.\Generated_Source\PSoC4/BLE.c ****         if(CYBLE_ERROR_OK == apiResult)
 942:.\Generated_Source\PSoC4/BLE.c ****         {
 943:.\Generated_Source\PSoC4/BLE.c ****             CyBle_SetState(CYBLE_STATE_DISCONNECTED);
 944:.\Generated_Source\PSoC4/BLE.c ****         }
 945:.\Generated_Source\PSoC4/BLE.c ****         return (apiResult);
 946:.\Generated_Source\PSoC4/BLE.c ****     }    
 947:.\Generated_Source\PSoC4/BLE.c **** 
 948:.\Generated_Source\PSoC4/BLE.c ****     
 949:.\Generated_Source\PSoC4/BLE.c **** #endif /* CYBLE_GAP_ROLE_CENTRAL */
 950:.\Generated_Source\PSoC4/BLE.c **** 
 951:.\Generated_Source\PSoC4/BLE.c **** 
 952:.\Generated_Source\PSoC4/BLE.c **** #if(CYBLE_GATT_ROLE_SERVER)
 953:.\Generated_Source\PSoC4/BLE.c **** 
 954:.\Generated_Source\PSoC4/BLE.c **** #if(CYBLE_GAP_ROLE_PERIPHERAL)
 955:.\Generated_Source\PSoC4/BLE.c **** 
 956:.\Generated_Source\PSoC4/BLE.c ****         /******************************************************************************
 957:.\Generated_Source\PSoC4/BLE.c ****         * Function Name: CyBle_ChangeAdLocalName
 958:.\Generated_Source\PSoC4/BLE.c ****         ***************************************************************************//**
 959:.\Generated_Source\PSoC4/BLE.c ****         *  This API is used to set the local device name in the advertisement or scan 
 960:.\Generated_Source\PSoC4/BLE.c ****         *  response data structure.
 961:.\Generated_Source\PSoC4/BLE.c ****         * 
 962:.\Generated_Source\PSoC4/BLE.c ****         *  \param name: The local device name string to be set in advertisement data 
ARM GAS  C:\Users\YBOURA~1\AppData\Local\Temp\cctTxG75.s 			page 27


 963:.\Generated_Source\PSoC4/BLE.c ****         *            structure.
 964:.\Generated_Source\PSoC4/BLE.c ****         *  \param dest: 0 - advertisement structure, not zero value selects scan response
 965:.\Generated_Source\PSoC4/BLE.c ****         *              structure.
 966:.\Generated_Source\PSoC4/BLE.c ****         * 
 967:.\Generated_Source\PSoC4/BLE.c ****         * \return
 968:.\Generated_Source\PSoC4/BLE.c ****         *  None
 969:.\Generated_Source\PSoC4/BLE.c ****         *  
 970:.\Generated_Source\PSoC4/BLE.c ****         *******************************************************************************/
 971:.\Generated_Source\PSoC4/BLE.c ****         static void CyBle_ChangeAdLocalName(const char8 name[], uint8 dest)
 972:.\Generated_Source\PSoC4/BLE.c ****         {
 973:.\Generated_Source\PSoC4/BLE.c ****             uint8 i;
 974:.\Generated_Source\PSoC4/BLE.c ****             uint8 flag = 0u;
 975:.\Generated_Source\PSoC4/BLE.c ****             uint8 adLength = 0u;
 976:.\Generated_Source\PSoC4/BLE.c ****             uint8 byteCounter = 0u;
 977:.\Generated_Source\PSoC4/BLE.c ****             uint8 *destBuffer;
 978:.\Generated_Source\PSoC4/BLE.c ****             uint8 maxLength;
 979:.\Generated_Source\PSoC4/BLE.c ****             
 980:.\Generated_Source\PSoC4/BLE.c ****             if(dest == 0u)      /* Destination - advertising structure */
 981:.\Generated_Source\PSoC4/BLE.c ****             {
 982:.\Generated_Source\PSoC4/BLE.c ****                 destBuffer = cyBle_discoveryData.advData;
 983:.\Generated_Source\PSoC4/BLE.c ****                 maxLength = cyBle_discoveryData.advDataLen;
 984:.\Generated_Source\PSoC4/BLE.c ****             }
 985:.\Generated_Source\PSoC4/BLE.c ****             else                /* Destination - scan response structure */
 986:.\Generated_Source\PSoC4/BLE.c ****             {
 987:.\Generated_Source\PSoC4/BLE.c ****                 destBuffer = cyBle_scanRspData.scanRspData;
 988:.\Generated_Source\PSoC4/BLE.c ****                 maxLength = cyBle_scanRspData.scanRspDataLen;
 989:.\Generated_Source\PSoC4/BLE.c ****             }
 990:.\Generated_Source\PSoC4/BLE.c ****             
 991:.\Generated_Source\PSoC4/BLE.c ****             while((byteCounter < maxLength) && (0u == flag))
 992:.\Generated_Source\PSoC4/BLE.c ****             {
 993:.\Generated_Source\PSoC4/BLE.c ****                 adLength = destBuffer[byteCounter];
 994:.\Generated_Source\PSoC4/BLE.c ****                 
 995:.\Generated_Source\PSoC4/BLE.c ****                 if(0u != adLength)
 996:.\Generated_Source\PSoC4/BLE.c ****                 {
 997:.\Generated_Source\PSoC4/BLE.c ****                     /* Increment byte counter so it can point to AD type */
 998:.\Generated_Source\PSoC4/BLE.c ****                     byteCounter++;
 999:.\Generated_Source\PSoC4/BLE.c ****                     
1000:.\Generated_Source\PSoC4/BLE.c ****                     if((CYBLE_SHORT_LOCAL_NAME == destBuffer[byteCounter]) || 
1001:.\Generated_Source\PSoC4/BLE.c ****                        (CYBLE_COMPLETE_LOCAL_NAME == destBuffer[byteCounter]))
1002:.\Generated_Source\PSoC4/BLE.c ****                     {
1003:.\Generated_Source\PSoC4/BLE.c ****                         /* Start of the Local Name AD type was fount. Set flag and exit the loop. *
1004:.\Generated_Source\PSoC4/BLE.c ****                         flag = 1u;
1005:.\Generated_Source\PSoC4/BLE.c ****                     }
1006:.\Generated_Source\PSoC4/BLE.c ****                     else
1007:.\Generated_Source\PSoC4/BLE.c ****                     {
1008:.\Generated_Source\PSoC4/BLE.c ****                         byteCounter += adLength;
1009:.\Generated_Source\PSoC4/BLE.c ****                     }
1010:.\Generated_Source\PSoC4/BLE.c ****                 }
1011:.\Generated_Source\PSoC4/BLE.c ****                 else
1012:.\Generated_Source\PSoC4/BLE.c ****                 {
1013:.\Generated_Source\PSoC4/BLE.c ****                     /* The end of advertisement data structure was encountered though exit the loop
1014:.\Generated_Source\PSoC4/BLE.c ****                     break;
1015:.\Generated_Source\PSoC4/BLE.c ****                 }
1016:.\Generated_Source\PSoC4/BLE.c ****             }
1017:.\Generated_Source\PSoC4/BLE.c ****             
1018:.\Generated_Source\PSoC4/BLE.c ****             if(0u != flag)
1019:.\Generated_Source\PSoC4/BLE.c ****             {
ARM GAS  C:\Users\YBOURA~1\AppData\Local\Temp\cctTxG75.s 			page 28


1020:.\Generated_Source\PSoC4/BLE.c ****                 /* Reuse "adLength" to hold location of the last character of local name in 
1021:.\Generated_Source\PSoC4/BLE.c ****                    AD structure. */
1022:.\Generated_Source\PSoC4/BLE.c ****                 adLength += byteCounter;
1023:.\Generated_Source\PSoC4/BLE.c ****                 
1024:.\Generated_Source\PSoC4/BLE.c ****                 /* Increment byte counter to point to start of the local Name string */
1025:.\Generated_Source\PSoC4/BLE.c ****                 byteCounter++;
1026:.\Generated_Source\PSoC4/BLE.c ****                 
1027:.\Generated_Source\PSoC4/BLE.c ****                 for(i = byteCounter; ((i < (adLength)) && (CYBLE_NULL_CHARCTER != name[i - byteCoun
1028:.\Generated_Source\PSoC4/BLE.c ****                 {
1029:.\Generated_Source\PSoC4/BLE.c ****                     destBuffer[i] = (uint8)name[i - byteCounter];
1030:.\Generated_Source\PSoC4/BLE.c ****                 }
1031:.\Generated_Source\PSoC4/BLE.c ****                 
1032:.\Generated_Source\PSoC4/BLE.c ****                 /* This loop handles the case when new local name is shorted than old one.
1033:.\Generated_Source\PSoC4/BLE.c ****                    In this case all remaining characters should be null characters. */
1034:.\Generated_Source\PSoC4/BLE.c ****                 while(adLength > i)
1035:.\Generated_Source\PSoC4/BLE.c ****                 {
1036:.\Generated_Source\PSoC4/BLE.c ****                     /* Terminate string */
1037:.\Generated_Source\PSoC4/BLE.c ****                     destBuffer[i] = (uint8)CYBLE_NULL_CHARCTER;
1038:.\Generated_Source\PSoC4/BLE.c ****                     i++;
1039:.\Generated_Source\PSoC4/BLE.c ****                 }
1040:.\Generated_Source\PSoC4/BLE.c ****             }
1041:.\Generated_Source\PSoC4/BLE.c ****         }
1042:.\Generated_Source\PSoC4/BLE.c ****         
1043:.\Generated_Source\PSoC4/BLE.c **** #endif /* (CYBLE_GAP_ROLE_PERIPHERAL) */  
1044:.\Generated_Source\PSoC4/BLE.c ****     
1045:.\Generated_Source\PSoC4/BLE.c ****     
1046:.\Generated_Source\PSoC4/BLE.c ****     /******************************************************************************
1047:.\Generated_Source\PSoC4/BLE.c ****     * Function Name: CyBle_GapSetLocalName
1048:.\Generated_Source\PSoC4/BLE.c ****     ***************************************************************************//**
1049:.\Generated_Source\PSoC4/BLE.c ****     *  This API is used to set the local device name - a Characteristic of the 
1050:.\Generated_Source\PSoC4/BLE.c ****     *  GAP Service. If the characteristic length entered in the component customizer
1051:.\Generated_Source\PSoC4/BLE.c ****     *  is shorter than the string specified by the "name" parameter, the local device
1052:.\Generated_Source\PSoC4/BLE.c ****     *  name will be cut to the length specified in the customizer.
1053:.\Generated_Source\PSoC4/BLE.c ****     * 
1054:.\Generated_Source\PSoC4/BLE.c ****     *  \param name: The local device name string. The name string to be written as
1055:.\Generated_Source\PSoC4/BLE.c ****     *              the local device name. It represents a UTF-8 encoded User
1056:.\Generated_Source\PSoC4/BLE.c ****     *              Friendly Descriptive Name for the device. The length of the local
1057:.\Generated_Source\PSoC4/BLE.c ****     *              device string is entered into the component customizer and it can
1058:.\Generated_Source\PSoC4/BLE.c ****     *              be set to a value from 0 to 248 bytes. If the name contained in
1059:.\Generated_Source\PSoC4/BLE.c ****     *              the parameter is shorter than the length from the customizer, the
1060:.\Generated_Source\PSoC4/BLE.c ****     *              end of the name is indicated by a NULL octet (0x00).
1061:.\Generated_Source\PSoC4/BLE.c ****     * 
1062:.\Generated_Source\PSoC4/BLE.c ****     * \return
1063:.\Generated_Source\PSoC4/BLE.c ****     *  CYBLE_API_RESULT_T : Return value indicates if the function succeeded or 
1064:.\Generated_Source\PSoC4/BLE.c ****     *  failed. Following are the possible error codes.
1065:.\Generated_Source\PSoC4/BLE.c ****     *
1066:.\Generated_Source\PSoC4/BLE.c ****     *   Errors codes                       | Description
1067:.\Generated_Source\PSoC4/BLE.c ****     *   ------------                       | -----------
1068:.\Generated_Source\PSoC4/BLE.c ****     *   CYBLE_ERROR_OK                     | Function completed successfully.
1069:.\Generated_Source\PSoC4/BLE.c ****     *   CYBLE_ERROR_INVALID_PARAMETER      | On specifying NULL as input parameter
1070:.\Generated_Source\PSoC4/BLE.c ****     *  
1071:.\Generated_Source\PSoC4/BLE.c ****     *******************************************************************************/
1072:.\Generated_Source\PSoC4/BLE.c ****     CYBLE_API_RESULT_T CyBle_GapSetLocalName(const char8 name[])
1073:.\Generated_Source\PSoC4/BLE.c ****     {
 513              		.loc 1 1073 0
 514              		.cfi_startproc
 515 0000 80B5     		push	{r7, lr}
ARM GAS  C:\Users\YBOURA~1\AppData\Local\Temp\cctTxG75.s 			page 29


 516              		.cfi_def_cfa_offset 8
 517              		.cfi_offset 7, -8
 518              		.cfi_offset 14, -4
 519 0002 86B0     		sub	sp, sp, #24
 520              		.cfi_def_cfa_offset 32
 521 0004 00AF     		add	r7, sp, #0
 522              		.cfi_def_cfa_register 7
 523 0006 7860     		str	r0, [r7, #4]
1074:.\Generated_Source\PSoC4/BLE.c ****         CYBLE_API_RESULT_T apiResult = CYBLE_ERROR_OK;
 524              		.loc 1 1074 0
 525 0008 1623     		mov	r3, #22
 526 000a FB18     		add	r3, r7, r3
 527 000c 0022     		mov	r2, #0
 528 000e 1A80     		strh	r2, [r3]
1075:.\Generated_Source\PSoC4/BLE.c ****         uint8 i;
1076:.\Generated_Source\PSoC4/BLE.c ****         char8 *ptr;
1077:.\Generated_Source\PSoC4/BLE.c ****         uint8 charLen;
1078:.\Generated_Source\PSoC4/BLE.c **** 
1079:.\Generated_Source\PSoC4/BLE.c ****         if(NULL != name)
 529              		.loc 1 1079 0
 530 0010 7B68     		ldr	r3, [r7, #4]
 531 0012 002B     		cmp	r3, #0
 532 0014 40D0     		beq	.L30
1080:.\Generated_Source\PSoC4/BLE.c ****         {
1081:.\Generated_Source\PSoC4/BLE.c ****             /* Get the pointer to the Device Name characteristic  */
1082:.\Generated_Source\PSoC4/BLE.c ****             ptr = (char8 *) CYBLE_GATT_DB_ATTR_GET_ATTR_GEN_PTR(CYBLE_GAP_DEVICE_NAME_INDEX + 1u);
 533              		.loc 1 1082 0
 534 0016 264B     		ldr	r3, .L37
 535 0018 9B6B     		ldr	r3, [r3, #56]
 536 001a 5B68     		ldr	r3, [r3, #4]
 537 001c 3B61     		str	r3, [r7, #16]
1083:.\Generated_Source\PSoC4/BLE.c **** 
1084:.\Generated_Source\PSoC4/BLE.c ****             /* First need to get the maximum length of the characteristic data in the GATT
1085:.\Generated_Source\PSoC4/BLE.c ****                 database to make sure there is enough place for the data. The length
1086:.\Generated_Source\PSoC4/BLE.c ****                 can't be longer than 248, so only the LSB of 16 bit of length is to
1087:.\Generated_Source\PSoC4/BLE.c ****                 be used. */
1088:.\Generated_Source\PSoC4/BLE.c ****             charLen = (uint8)CYBLE_GATT_DB_ATTR_GET_ATTR_GEN_MAX_LEN(CYBLE_GAP_DEVICE_NAME_INDEX + 
 538              		.loc 1 1088 0
 539 001e 244B     		ldr	r3, .L37
 540 0020 9A8E     		ldrh	r2, [r3, #52]
 541 0022 0F23     		mov	r3, #15
 542 0024 FB18     		add	r3, r7, r3
 543 0026 1A70     		strb	r2, [r3]
1089:.\Generated_Source\PSoC4/BLE.c **** 
1090:.\Generated_Source\PSoC4/BLE.c ****             /* Copy name into characteristic */
1091:.\Generated_Source\PSoC4/BLE.c ****             for(i = 0u; ((i < charLen) && (CYBLE_NULL_CHARCTER != name[i])); i++)
 544              		.loc 1 1091 0
 545 0028 1523     		mov	r3, #21
 546 002a FB18     		add	r3, r7, r3
 547 002c 0022     		mov	r2, #0
 548 002e 1A70     		strb	r2, [r3]
 549 0030 12E0     		b	.L31
 550              	.L33:
1092:.\Generated_Source\PSoC4/BLE.c ****             {
1093:.\Generated_Source\PSoC4/BLE.c ****                 ptr[i] = name[i];
 551              		.loc 1 1093 0 discriminator 4
 552 0032 1523     		mov	r3, #21
ARM GAS  C:\Users\YBOURA~1\AppData\Local\Temp\cctTxG75.s 			page 30


 553 0034 FB18     		add	r3, r7, r3
 554 0036 1B78     		ldrb	r3, [r3]
 555 0038 3A69     		ldr	r2, [r7, #16]
 556 003a D318     		add	r3, r2, r3
 557 003c 1522     		mov	r2, #21
 558 003e BA18     		add	r2, r7, r2
 559 0040 1278     		ldrb	r2, [r2]
 560 0042 7968     		ldr	r1, [r7, #4]
 561 0044 8A18     		add	r2, r1, r2
 562 0046 1278     		ldrb	r2, [r2]
 563 0048 1A70     		strb	r2, [r3]
1091:.\Generated_Source\PSoC4/BLE.c ****             {
 564              		.loc 1 1091 0 discriminator 4
 565 004a 1523     		mov	r3, #21
 566 004c FB18     		add	r3, r7, r3
 567 004e 1A78     		ldrb	r2, [r3]
 568 0050 1523     		mov	r3, #21
 569 0052 FB18     		add	r3, r7, r3
 570 0054 0132     		add	r2, r2, #1
 571 0056 1A70     		strb	r2, [r3]
 572              	.L31:
1091:.\Generated_Source\PSoC4/BLE.c ****             {
 573              		.loc 1 1091 0 is_stmt 0 discriminator 1
 574 0058 1523     		mov	r3, #21
 575 005a FA18     		add	r2, r7, r3
 576 005c 0F23     		mov	r3, #15
 577 005e FB18     		add	r3, r7, r3
 578 0060 1278     		ldrb	r2, [r2]
 579 0062 1B78     		ldrb	r3, [r3]
 580 0064 9A42     		cmp	r2, r3
 581 0066 07D2     		bcs	.L32
1091:.\Generated_Source\PSoC4/BLE.c ****             {
 582              		.loc 1 1091 0 discriminator 3
 583 0068 1523     		mov	r3, #21
 584 006a FB18     		add	r3, r7, r3
 585 006c 1B78     		ldrb	r3, [r3]
 586 006e 7A68     		ldr	r2, [r7, #4]
 587 0070 D318     		add	r3, r2, r3
 588 0072 1B78     		ldrb	r3, [r3]
 589 0074 002B     		cmp	r3, #0
 590 0076 DCD1     		bne	.L33
 591              	.L32:
1094:.\Generated_Source\PSoC4/BLE.c ****             }
1095:.\Generated_Source\PSoC4/BLE.c **** 
1096:.\Generated_Source\PSoC4/BLE.c ****             if(i < charLen)
 592              		.loc 1 1096 0 is_stmt 1
 593 0078 1523     		mov	r3, #21
 594 007a FA18     		add	r2, r7, r3
 595 007c 0F23     		mov	r3, #15
 596 007e FB18     		add	r3, r7, r3
 597 0080 1278     		ldrb	r2, [r2]
 598 0082 1B78     		ldrb	r3, [r3]
 599 0084 9A42     		cmp	r2, r3
 600 0086 0BD2     		bcs	.L35
1097:.\Generated_Source\PSoC4/BLE.c ****             {
1098:.\Generated_Source\PSoC4/BLE.c ****                 /* Terminate string */
1099:.\Generated_Source\PSoC4/BLE.c ****                 ptr[i] = CYBLE_NULL_CHARCTER;
ARM GAS  C:\Users\YBOURA~1\AppData\Local\Temp\cctTxG75.s 			page 31


 601              		.loc 1 1099 0
 602 0088 1523     		mov	r3, #21
 603 008a FB18     		add	r3, r7, r3
 604 008c 1B78     		ldrb	r3, [r3]
 605 008e 3A69     		ldr	r2, [r7, #16]
 606 0090 D318     		add	r3, r2, r3
 607 0092 0022     		mov	r2, #0
 608 0094 1A70     		strb	r2, [r3]
 609 0096 03E0     		b	.L35
 610              	.L30:
1100:.\Generated_Source\PSoC4/BLE.c ****             }
1101:.\Generated_Source\PSoC4/BLE.c ****             
1102:.\Generated_Source\PSoC4/BLE.c ****             /* Set new actual length */
1103:.\Generated_Source\PSoC4/BLE.c ****             
1104:.\Generated_Source\PSoC4/BLE.c ****             /* Update device name in advertising and scan response structure */
1105:.\Generated_Source\PSoC4/BLE.c ****             #if(CYBLE_GAP_ROLE_PERIPHERAL)
1106:.\Generated_Source\PSoC4/BLE.c ****                 CyBle_ChangeAdLocalName(name, 0u);
1107:.\Generated_Source\PSoC4/BLE.c ****                 CyBle_ChangeAdLocalName(name, 1u);
1108:.\Generated_Source\PSoC4/BLE.c ****             #endif /* (CYBLE_GAP_ROLE_PERIPHERAL) */
1109:.\Generated_Source\PSoC4/BLE.c ****         }
1110:.\Generated_Source\PSoC4/BLE.c ****         else
1111:.\Generated_Source\PSoC4/BLE.c ****         {
1112:.\Generated_Source\PSoC4/BLE.c ****             apiResult = CYBLE_ERROR_INVALID_PARAMETER;
 611              		.loc 1 1112 0
 612 0098 1623     		mov	r3, #22
 613 009a FB18     		add	r3, r7, r3
 614 009c 0122     		mov	r2, #1
 615 009e 1A80     		strh	r2, [r3]
 616              	.L35:
1113:.\Generated_Source\PSoC4/BLE.c ****         }
1114:.\Generated_Source\PSoC4/BLE.c ****         
1115:.\Generated_Source\PSoC4/BLE.c ****         return(apiResult);
 617              		.loc 1 1115 0
 618 00a0 1623     		mov	r3, #22
 619 00a2 FB18     		add	r3, r7, r3
 620 00a4 1B88     		ldrh	r3, [r3]
1116:.\Generated_Source\PSoC4/BLE.c ****     }
 621              		.loc 1 1116 0
 622 00a6 181C     		mov	r0, r3
 623 00a8 BD46     		mov	sp, r7
 624 00aa 06B0     		add	sp, sp, #24
 625              		@ sp needed
 626 00ac 80BD     		pop	{r7, pc}
 627              	.L38:
 628 00ae C046     		.align	2
 629              	.L37:
 630 00b0 00000000 		.word	cyBle_gattDB
 631              		.cfi_endproc
 632              	.LFE8:
 633              		.size	CyBle_GapSetLocalName, .-CyBle_GapSetLocalName
 634              		.section	.text.CyBle_GapGetLocalName,"ax",%progbits
 635              		.align	2
 636              		.global	CyBle_GapGetLocalName
 637              		.code	16
 638              		.thumb_func
 639              		.type	CyBle_GapGetLocalName, %function
 640              	CyBle_GapGetLocalName:
ARM GAS  C:\Users\YBOURA~1\AppData\Local\Temp\cctTxG75.s 			page 32


 641              	.LFB9:
1117:.\Generated_Source\PSoC4/BLE.c **** 
1118:.\Generated_Source\PSoC4/BLE.c **** 
1119:.\Generated_Source\PSoC4/BLE.c ****     /******************************************************************************
1120:.\Generated_Source\PSoC4/BLE.c ****     * Function Name: CyBle_GapGetLocalName
1121:.\Generated_Source\PSoC4/BLE.c ****     ***************************************************************************//**
1122:.\Generated_Source\PSoC4/BLE.c ****     *  
1123:.\Generated_Source\PSoC4/BLE.c ****     *  This API is used to read the local device name - a Characteristic of the 
1124:.\Generated_Source\PSoC4/BLE.c ****     *  GAP Service.
1125:.\Generated_Source\PSoC4/BLE.c ****     * 
1126:.\Generated_Source\PSoC4/BLE.c ****     * \param name: The local device name string. Used to read the local name to the
1127:.\Generated_Source\PSoC4/BLE.c ****     *             given string array. It represents a UTF-8 encoded User Friendly 
1128:.\Generated_Source\PSoC4/BLE.c ****     *             Descriptive Name for the device. The length of the local device
1129:.\Generated_Source\PSoC4/BLE.c ****     *             string is entered into the component customizer and it can be set
1130:.\Generated_Source\PSoC4/BLE.c ****     *             to a value from 0 to 248 bytes. If the name contained in the
1131:.\Generated_Source\PSoC4/BLE.c ****     *             parameter is shorter than the length from the customizer, the end
1132:.\Generated_Source\PSoC4/BLE.c ****     *             of the name is indicated by a NULL octet (0x00).
1133:.\Generated_Source\PSoC4/BLE.c ****     * 
1134:.\Generated_Source\PSoC4/BLE.c ****     * \return
1135:.\Generated_Source\PSoC4/BLE.c ****     *  CYBLE_API_RESULT_T : Return value indicates if the function succeeded or 
1136:.\Generated_Source\PSoC4/BLE.c ****     *  failed. Following are the possible error codes.
1137:.\Generated_Source\PSoC4/BLE.c ****     *
1138:.\Generated_Source\PSoC4/BLE.c ****     *   Errors codes                       | Description
1139:.\Generated_Source\PSoC4/BLE.c ****     *   ------------                       | -----------
1140:.\Generated_Source\PSoC4/BLE.c ****     *   CYBLE_ERROR_OK                     | Function completed successfully.
1141:.\Generated_Source\PSoC4/BLE.c ****     *   CYBLE_ERROR_INVALID_PARAMETER      | On specifying NULL as input parameter
1142:.\Generated_Source\PSoC4/BLE.c ****     *
1143:.\Generated_Source\PSoC4/BLE.c ****     *******************************************************************************/
1144:.\Generated_Source\PSoC4/BLE.c ****     CYBLE_API_RESULT_T CyBle_GapGetLocalName(char8 name[])
1145:.\Generated_Source\PSoC4/BLE.c ****     {
 642              		.loc 1 1145 0
 643              		.cfi_startproc
 644 0000 80B5     		push	{r7, lr}
 645              		.cfi_def_cfa_offset 8
 646              		.cfi_offset 7, -8
 647              		.cfi_offset 14, -4
 648 0002 86B0     		sub	sp, sp, #24
 649              		.cfi_def_cfa_offset 32
 650 0004 00AF     		add	r7, sp, #0
 651              		.cfi_def_cfa_register 7
 652 0006 7860     		str	r0, [r7, #4]
1146:.\Generated_Source\PSoC4/BLE.c ****         CYBLE_API_RESULT_T apiResult = CYBLE_ERROR_OK;
 653              		.loc 1 1146 0
 654 0008 1623     		mov	r3, #22
 655 000a FB18     		add	r3, r7, r3
 656 000c 0022     		mov	r2, #0
 657 000e 1A80     		strh	r2, [r3]
1147:.\Generated_Source\PSoC4/BLE.c ****         uint8 charLen;
1148:.\Generated_Source\PSoC4/BLE.c ****         uint8 i;
1149:.\Generated_Source\PSoC4/BLE.c ****         char8 *ptr;
1150:.\Generated_Source\PSoC4/BLE.c **** 
1151:.\Generated_Source\PSoC4/BLE.c ****         if(NULL != name)
 658              		.loc 1 1151 0
 659 0010 7B68     		ldr	r3, [r7, #4]
 660 0012 002B     		cmp	r3, #0
 661 0014 39D0     		beq	.L40
1152:.\Generated_Source\PSoC4/BLE.c ****         {
ARM GAS  C:\Users\YBOURA~1\AppData\Local\Temp\cctTxG75.s 			page 33


1153:.\Generated_Source\PSoC4/BLE.c ****             /* Get the pointer to the Device Name characteristic  */
1154:.\Generated_Source\PSoC4/BLE.c ****             ptr = (char8 *) CYBLE_GATT_DB_ATTR_GET_ATTR_GEN_PTR(CYBLE_GAP_DEVICE_NAME_INDEX + 1u);
 662              		.loc 1 1154 0
 663 0016 224B     		ldr	r3, .L46
 664 0018 9B6B     		ldr	r3, [r3, #56]
 665 001a 5B68     		ldr	r3, [r3, #4]
 666 001c 3B61     		str	r3, [r7, #16]
1155:.\Generated_Source\PSoC4/BLE.c **** 
1156:.\Generated_Source\PSoC4/BLE.c ****             /* First need to get the length of the characteristic data in the GATT
1157:.\Generated_Source\PSoC4/BLE.c ****                 database to make sure there is enough place for the data. The length
1158:.\Generated_Source\PSoC4/BLE.c ****                 can't be longer than 248, so only the LSB of 16 bit of length is to
1159:.\Generated_Source\PSoC4/BLE.c ****                 be used. */
1160:.\Generated_Source\PSoC4/BLE.c ****             charLen = (uint8)CYBLE_GATT_DB_ATTR_GET_ATTR_GEN_LEN(CYBLE_GAP_DEVICE_NAME_INDEX + 1u);
 667              		.loc 1 1160 0
 668 001e 204B     		ldr	r3, .L46
 669 0020 9B6B     		ldr	r3, [r3, #56]
 670 0022 1A88     		ldrh	r2, [r3]
 671 0024 0F23     		mov	r3, #15
 672 0026 FB18     		add	r3, r7, r3
 673 0028 1A70     		strb	r2, [r3]
1161:.\Generated_Source\PSoC4/BLE.c **** 
1162:.\Generated_Source\PSoC4/BLE.c ****             /* Copy name from characteristic */
1163:.\Generated_Source\PSoC4/BLE.c ****             for(i = 0u; ((i < charLen) && (CYBLE_NULL_CHARCTER != ptr[i])); i++)
 674              		.loc 1 1163 0
 675 002a 1523     		mov	r3, #21
 676 002c FB18     		add	r3, r7, r3
 677 002e 0022     		mov	r2, #0
 678 0030 1A70     		strb	r2, [r3]
 679 0032 12E0     		b	.L41
 680              	.L43:
1164:.\Generated_Source\PSoC4/BLE.c ****             {
1165:.\Generated_Source\PSoC4/BLE.c ****                 name[i] = ptr[i];
 681              		.loc 1 1165 0 discriminator 4
 682 0034 1523     		mov	r3, #21
 683 0036 FB18     		add	r3, r7, r3
 684 0038 1B78     		ldrb	r3, [r3]
 685 003a 7A68     		ldr	r2, [r7, #4]
 686 003c D318     		add	r3, r2, r3
 687 003e 1522     		mov	r2, #21
 688 0040 BA18     		add	r2, r7, r2
 689 0042 1278     		ldrb	r2, [r2]
 690 0044 3969     		ldr	r1, [r7, #16]
 691 0046 8A18     		add	r2, r1, r2
 692 0048 1278     		ldrb	r2, [r2]
 693 004a 1A70     		strb	r2, [r3]
1163:.\Generated_Source\PSoC4/BLE.c ****             {
 694              		.loc 1 1163 0 discriminator 4
 695 004c 1523     		mov	r3, #21
 696 004e FB18     		add	r3, r7, r3
 697 0050 1A78     		ldrb	r2, [r3]
 698 0052 1523     		mov	r3, #21
 699 0054 FB18     		add	r3, r7, r3
 700 0056 0132     		add	r2, r2, #1
 701 0058 1A70     		strb	r2, [r3]
 702              	.L41:
1163:.\Generated_Source\PSoC4/BLE.c ****             {
 703              		.loc 1 1163 0 is_stmt 0 discriminator 1
ARM GAS  C:\Users\YBOURA~1\AppData\Local\Temp\cctTxG75.s 			page 34


 704 005a 1523     		mov	r3, #21
 705 005c FA18     		add	r2, r7, r3
 706 005e 0F23     		mov	r3, #15
 707 0060 FB18     		add	r3, r7, r3
 708 0062 1278     		ldrb	r2, [r2]
 709 0064 1B78     		ldrb	r3, [r3]
 710 0066 9A42     		cmp	r2, r3
 711 0068 07D2     		bcs	.L42
1163:.\Generated_Source\PSoC4/BLE.c ****             {
 712              		.loc 1 1163 0 discriminator 3
 713 006a 1523     		mov	r3, #21
 714 006c FB18     		add	r3, r7, r3
 715 006e 1B78     		ldrb	r3, [r3]
 716 0070 3A69     		ldr	r2, [r7, #16]
 717 0072 D318     		add	r3, r2, r3
 718 0074 1B78     		ldrb	r3, [r3]
 719 0076 002B     		cmp	r3, #0
 720 0078 DCD1     		bne	.L43
 721              	.L42:
1166:.\Generated_Source\PSoC4/BLE.c ****             }
1167:.\Generated_Source\PSoC4/BLE.c **** 
1168:.\Generated_Source\PSoC4/BLE.c ****             /* Terminate string */
1169:.\Generated_Source\PSoC4/BLE.c ****             name[i] = CYBLE_NULL_CHARCTER;
 722              		.loc 1 1169 0 is_stmt 1
 723 007a 1523     		mov	r3, #21
 724 007c FB18     		add	r3, r7, r3
 725 007e 1B78     		ldrb	r3, [r3]
 726 0080 7A68     		ldr	r2, [r7, #4]
 727 0082 D318     		add	r3, r2, r3
 728 0084 0022     		mov	r2, #0
 729 0086 1A70     		strb	r2, [r3]
 730 0088 03E0     		b	.L44
 731              	.L40:
1170:.\Generated_Source\PSoC4/BLE.c ****         }
1171:.\Generated_Source\PSoC4/BLE.c ****         else
1172:.\Generated_Source\PSoC4/BLE.c ****         {
1173:.\Generated_Source\PSoC4/BLE.c ****             apiResult = CYBLE_ERROR_INVALID_PARAMETER;
 732              		.loc 1 1173 0
 733 008a 1623     		mov	r3, #22
 734 008c FB18     		add	r3, r7, r3
 735 008e 0122     		mov	r2, #1
 736 0090 1A80     		strh	r2, [r3]
 737              	.L44:
1174:.\Generated_Source\PSoC4/BLE.c ****         }
1175:.\Generated_Source\PSoC4/BLE.c ****         
1176:.\Generated_Source\PSoC4/BLE.c ****         return(apiResult);
 738              		.loc 1 1176 0
 739 0092 1623     		mov	r3, #22
 740 0094 FB18     		add	r3, r7, r3
 741 0096 1B88     		ldrh	r3, [r3]
1177:.\Generated_Source\PSoC4/BLE.c ****     }
 742              		.loc 1 1177 0
 743 0098 181C     		mov	r0, r3
 744 009a BD46     		mov	sp, r7
 745 009c 06B0     		add	sp, sp, #24
 746              		@ sp needed
 747 009e 80BD     		pop	{r7, pc}
ARM GAS  C:\Users\YBOURA~1\AppData\Local\Temp\cctTxG75.s 			page 35


 748              	.L47:
 749              		.align	2
 750              	.L46:
 751 00a0 00000000 		.word	cyBle_gattDB
 752              		.cfi_endproc
 753              	.LFE9:
 754              		.size	CyBle_GapGetLocalName, .-CyBle_GapGetLocalName
 755              		.section	.text.CyBle_Get16ByPtr,"ax",%progbits
 756              		.align	2
 757              		.global	CyBle_Get16ByPtr
 758              		.code	16
 759              		.thumb_func
 760              		.type	CyBle_Get16ByPtr, %function
 761              	CyBle_Get16ByPtr:
 762              	.LFB10:
1178:.\Generated_Source\PSoC4/BLE.c **** 
1179:.\Generated_Source\PSoC4/BLE.c **** #endif /* (CYBLE_GATT_ROLE_SERVER) */
1180:.\Generated_Source\PSoC4/BLE.c **** 
1181:.\Generated_Source\PSoC4/BLE.c **** 
1182:.\Generated_Source\PSoC4/BLE.c **** /******************************************************************************
1183:.\Generated_Source\PSoC4/BLE.c **** * Function Name: CyBle_Get16ByPtr
1184:.\Generated_Source\PSoC4/BLE.c **** ***************************************************************************//**
1185:.\Generated_Source\PSoC4/BLE.c **** * 
1186:.\Generated_Source\PSoC4/BLE.c **** *  Returns the two-bytes value by using a pointer to the LSB.
1187:.\Generated_Source\PSoC4/BLE.c **** * 
1188:.\Generated_Source\PSoC4/BLE.c **** *  \param ptr: Pointer to the LSB of two-bytes data (little endian).
1189:.\Generated_Source\PSoC4/BLE.c **** * 
1190:.\Generated_Source\PSoC4/BLE.c **** *  \return
1191:.\Generated_Source\PSoC4/BLE.c **** *  uint16: Two-bytes data.
1192:.\Generated_Source\PSoC4/BLE.c **** * 
1193:.\Generated_Source\PSoC4/BLE.c **** ******************************************************************************/
1194:.\Generated_Source\PSoC4/BLE.c **** uint16 CyBle_Get16ByPtr(const uint8 ptr[])
1195:.\Generated_Source\PSoC4/BLE.c **** {
 763              		.loc 1 1195 0
 764              		.cfi_startproc
 765 0000 80B5     		push	{r7, lr}
 766              		.cfi_def_cfa_offset 8
 767              		.cfi_offset 7, -8
 768              		.cfi_offset 14, -4
 769 0002 82B0     		sub	sp, sp, #8
 770              		.cfi_def_cfa_offset 16
 771 0004 00AF     		add	r7, sp, #0
 772              		.cfi_def_cfa_register 7
 773 0006 7860     		str	r0, [r7, #4]
1196:.\Generated_Source\PSoC4/BLE.c ****     return ((uint16) ptr[0u] | ((uint16) (((uint16) ptr[1u]) << 8u)));
 774              		.loc 1 1196 0
 775 0008 7B68     		ldr	r3, [r7, #4]
 776 000a 1B78     		ldrb	r3, [r3]
 777 000c 9AB2     		uxth	r2, r3
 778 000e 7B68     		ldr	r3, [r7, #4]
 779 0010 0133     		add	r3, r3, #1
 780 0012 1B78     		ldrb	r3, [r3]
 781 0014 9BB2     		uxth	r3, r3
 782 0016 1B02     		lsl	r3, r3, #8
 783 0018 9BB2     		uxth	r3, r3
 784 001a 1343     		orr	r3, r2
 785 001c 9BB2     		uxth	r3, r3
ARM GAS  C:\Users\YBOURA~1\AppData\Local\Temp\cctTxG75.s 			page 36


1197:.\Generated_Source\PSoC4/BLE.c **** }
 786              		.loc 1 1197 0
 787 001e 181C     		mov	r0, r3
 788 0020 BD46     		mov	sp, r7
 789 0022 02B0     		add	sp, sp, #8
 790              		@ sp needed
 791 0024 80BD     		pop	{r7, pc}
 792              		.cfi_endproc
 793              	.LFE10:
 794              		.size	CyBle_Get16ByPtr, .-CyBle_Get16ByPtr
 795 0026 C046     		.section	.text.CyBle_Set16ByPtr,"ax",%progbits
 796              		.align	2
 797              		.global	CyBle_Set16ByPtr
 798              		.code	16
 799              		.thumb_func
 800              		.type	CyBle_Set16ByPtr, %function
 801              	CyBle_Set16ByPtr:
 802              	.LFB11:
1198:.\Generated_Source\PSoC4/BLE.c **** 
1199:.\Generated_Source\PSoC4/BLE.c **** 
1200:.\Generated_Source\PSoC4/BLE.c **** /******************************************************************************
1201:.\Generated_Source\PSoC4/BLE.c **** * Function Name: CyBle_Set16ByPtr
1202:.\Generated_Source\PSoC4/BLE.c **** ***************************************************************************//**
1203:.\Generated_Source\PSoC4/BLE.c **** * 
1204:.\Generated_Source\PSoC4/BLE.c **** *  Sets the two-bytes value by using a pointer to the LSB.
1205:.\Generated_Source\PSoC4/BLE.c **** * 
1206:.\Generated_Source\PSoC4/BLE.c **** *  \param ptr:    Pointer to the LSB of two-bytes data (little endian).
1207:.\Generated_Source\PSoC4/BLE.c **** *  \param value:  Two-bytes data to be written.
1208:.\Generated_Source\PSoC4/BLE.c **** * 
1209:.\Generated_Source\PSoC4/BLE.c **** *  \return
1210:.\Generated_Source\PSoC4/BLE.c **** *  None
1211:.\Generated_Source\PSoC4/BLE.c **** * 
1212:.\Generated_Source\PSoC4/BLE.c **** ******************************************************************************/
1213:.\Generated_Source\PSoC4/BLE.c **** void CyBle_Set16ByPtr(uint8 ptr[], uint16 value)
1214:.\Generated_Source\PSoC4/BLE.c **** {
 803              		.loc 1 1214 0
 804              		.cfi_startproc
 805 0000 80B5     		push	{r7, lr}
 806              		.cfi_def_cfa_offset 8
 807              		.cfi_offset 7, -8
 808              		.cfi_offset 14, -4
 809 0002 82B0     		sub	sp, sp, #8
 810              		.cfi_def_cfa_offset 16
 811 0004 00AF     		add	r7, sp, #0
 812              		.cfi_def_cfa_register 7
 813 0006 7860     		str	r0, [r7, #4]
 814 0008 0A1C     		mov	r2, r1
 815 000a BB1C     		add	r3, r7, #2
 816 000c 1A80     		strh	r2, [r3]
1215:.\Generated_Source\PSoC4/BLE.c ****     ptr[0u] = (uint8) value;
 817              		.loc 1 1215 0
 818 000e BB1C     		add	r3, r7, #2
 819 0010 1B88     		ldrh	r3, [r3]
 820 0012 DAB2     		uxtb	r2, r3
 821 0014 7B68     		ldr	r3, [r7, #4]
 822 0016 1A70     		strb	r2, [r3]
1216:.\Generated_Source\PSoC4/BLE.c ****     ptr[1u] = (uint8) (value >> 8u);
ARM GAS  C:\Users\YBOURA~1\AppData\Local\Temp\cctTxG75.s 			page 37


 823              		.loc 1 1216 0
 824 0018 7B68     		ldr	r3, [r7, #4]
 825 001a 0133     		add	r3, r3, #1
 826 001c BA1C     		add	r2, r7, #2
 827 001e 1288     		ldrh	r2, [r2]
 828 0020 120A     		lsr	r2, r2, #8
 829 0022 92B2     		uxth	r2, r2
 830 0024 D2B2     		uxtb	r2, r2
 831 0026 1A70     		strb	r2, [r3]
1217:.\Generated_Source\PSoC4/BLE.c **** }
 832              		.loc 1 1217 0
 833 0028 BD46     		mov	sp, r7
 834 002a 02B0     		add	sp, sp, #8
 835              		@ sp needed
 836 002c 80BD     		pop	{r7, pc}
 837              		.cfi_endproc
 838              	.LFE11:
 839              		.size	CyBle_Set16ByPtr, .-CyBle_Set16ByPtr
 840 002e C046     		.text
 841              	.Letext0:
 842              		.file 2 ".\\Generated_Source\\PSoC4\\cytypes.h"
 843              		.file 3 ".\\Generated_Source\\PSoC4\\BLE_Stack.h"
 844              		.file 4 ".\\Generated_Source\\PSoC4\\BLE_StackGap.h"
 845              		.file 5 ".\\Generated_Source\\PSoC4\\BLE_StackGatt.h"
 846              		.file 6 ".\\Generated_Source\\PSoC4\\BLE_StackGattDb.h"
 847              		.file 7 ".\\Generated_Source\\PSoC4\\BLE.h"
 848              		.file 8 ".\\Generated_Source\\PSoC4\\BLE_gatt.h"
 849              		.file 9 ".\\Generated_Source\\PSoC4\\BLE_eventHandler.h"