ARM GAS  C:\Users\YBOURA~1\AppData\Local\Temp\ccGpkK9v.s 			page 1


   1              		.cpu cortex-m0
   2              		.fpu softvfp
   3              		.eabi_attribute 20, 1
   4              		.eabi_attribute 21, 1
   5              		.eabi_attribute 23, 3
   6              		.eabi_attribute 24, 1
   7              		.eabi_attribute 25, 1
   8              		.eabi_attribute 26, 1
   9              		.eabi_attribute 30, 6
  10              		.eabi_attribute 34, 0
  11              		.eabi_attribute 18, 4
  12              		.code	16
  13              		.file	"BLE_HAL_PVT.c"
  14              		.text
  15              	.Ltext0:
  16              		.cfi_sections	.debug_frame
  17              		.section	.text.CyBLE_Nvram_Write,"ax",%progbits
  18              		.align	2
  19              		.global	CyBLE_Nvram_Write
  20              		.code	16
  21              		.thumb_func
  22              		.type	CyBLE_Nvram_Write, %function
  23              	CyBLE_Nvram_Write:
  24              	.LFB2:
  25              		.file 1 ".\\Generated_Source\\PSoC4\\BLE_HAL_PVT.c"
   1:.\Generated_Source\PSoC4/BLE_HAL_PVT.c **** /***************************************************************************//**
   2:.\Generated_Source\PSoC4/BLE_HAL_PVT.c **** * \file CYBLE_HAL_PVT.c
   3:.\Generated_Source\PSoC4/BLE_HAL_PVT.c **** * \version 2.30
   4:.\Generated_Source\PSoC4/BLE_HAL_PVT.c **** *
   5:.\Generated_Source\PSoC4/BLE_HAL_PVT.c **** * \brief
   6:.\Generated_Source\PSoC4/BLE_HAL_PVT.c **** *  This file contains the source code for the HAL section of the BLE component
   7:.\Generated_Source\PSoC4/BLE_HAL_PVT.c **** *
   8:.\Generated_Source\PSoC4/BLE_HAL_PVT.c **** ********************************************************************************
   9:.\Generated_Source\PSoC4/BLE_HAL_PVT.c **** * \copyright
  10:.\Generated_Source\PSoC4/BLE_HAL_PVT.c **** * Copyright 2014-2015, Cypress Semiconductor Corporation.  All rights reserved.
  11:.\Generated_Source\PSoC4/BLE_HAL_PVT.c **** * You may use this file only in accordance with the license, terms, conditions,
  12:.\Generated_Source\PSoC4/BLE_HAL_PVT.c **** * disclaimers, and limitations in the end user license agreement accompanying
  13:.\Generated_Source\PSoC4/BLE_HAL_PVT.c **** * the software package with which this file was provided.
  14:.\Generated_Source\PSoC4/BLE_HAL_PVT.c **** *******************************************************************************/
  15:.\Generated_Source\PSoC4/BLE_HAL_PVT.c **** 
  16:.\Generated_Source\PSoC4/BLE_HAL_PVT.c **** #include "BLE_HAL_PVT.h"
  17:.\Generated_Source\PSoC4/BLE_HAL_PVT.c **** 
  18:.\Generated_Source\PSoC4/BLE_HAL_PVT.c **** 
  19:.\Generated_Source\PSoC4/BLE_HAL_PVT.c **** #if(CYBLE_MODE == CYBLE_HCI)
  20:.\Generated_Source\PSoC4/BLE_HAL_PVT.c **** 
  21:.\Generated_Source\PSoC4/BLE_HAL_PVT.c **** 
  22:.\Generated_Source\PSoC4/BLE_HAL_PVT.c **** /*******************************************************************************
  23:.\Generated_Source\PSoC4/BLE_HAL_PVT.c **** * Function Name: CyBLE_Uart_Start
  24:.\Generated_Source\PSoC4/BLE_HAL_PVT.c **** ****************************************************************************//**
  25:.\Generated_Source\PSoC4/BLE_HAL_PVT.c **** *
  26:.\Generated_Source\PSoC4/BLE_HAL_PVT.c **** *  Enables the platform UART Tx and RX interrupts and then enables the UART
  27:.\Generated_Source\PSoC4/BLE_HAL_PVT.c **** *  component.
  28:.\Generated_Source\PSoC4/BLE_HAL_PVT.c **** *
  29:.\Generated_Source\PSoC4/BLE_HAL_PVT.c **** * \return
  30:.\Generated_Source\PSoC4/BLE_HAL_PVT.c **** *  None
  31:.\Generated_Source\PSoC4/BLE_HAL_PVT.c **** *
  32:.\Generated_Source\PSoC4/BLE_HAL_PVT.c **** *******************************************************************************/
ARM GAS  C:\Users\YBOURA~1\AppData\Local\Temp\ccGpkK9v.s 			page 2


  33:.\Generated_Source\PSoC4/BLE_HAL_PVT.c **** void CyBLE_Uart_Start (void)
  34:.\Generated_Source\PSoC4/BLE_HAL_PVT.c **** {
  35:.\Generated_Source\PSoC4/BLE_HAL_PVT.c ****     /* Setup ISR */
  36:.\Generated_Source\PSoC4/BLE_HAL_PVT.c ****     BLE_uart_isr_StartEx(&CyBLE_Uart_Interrupt);
  37:.\Generated_Source\PSoC4/BLE_HAL_PVT.c **** 
  38:.\Generated_Source\PSoC4/BLE_HAL_PVT.c ****     BLE_HAL_Uart_Start();
  39:.\Generated_Source\PSoC4/BLE_HAL_PVT.c **** }
  40:.\Generated_Source\PSoC4/BLE_HAL_PVT.c **** 
  41:.\Generated_Source\PSoC4/BLE_HAL_PVT.c **** 
  42:.\Generated_Source\PSoC4/BLE_HAL_PVT.c **** /*******************************************************************************
  43:.\Generated_Source\PSoC4/BLE_HAL_PVT.c **** * Function Name: CyBLE_Uart_Stop
  44:.\Generated_Source\PSoC4/BLE_HAL_PVT.c **** ****************************************************************************//**
  45:.\Generated_Source\PSoC4/BLE_HAL_PVT.c **** *
  46:.\Generated_Source\PSoC4/BLE_HAL_PVT.c **** *  Disables the UART, clears all pending interrupts and disables the UART Tx
  47:.\Generated_Source\PSoC4/BLE_HAL_PVT.c **** *  and RX interrupts. This will also empty out the FIFOs.
  48:.\Generated_Source\PSoC4/BLE_HAL_PVT.c **** *
  49:.\Generated_Source\PSoC4/BLE_HAL_PVT.c **** * \return
  50:.\Generated_Source\PSoC4/BLE_HAL_PVT.c **** *  None
  51:.\Generated_Source\PSoC4/BLE_HAL_PVT.c **** *
  52:.\Generated_Source\PSoC4/BLE_HAL_PVT.c **** *******************************************************************************/
  53:.\Generated_Source\PSoC4/BLE_HAL_PVT.c **** void CyBLE_Uart_Stop (void)
  54:.\Generated_Source\PSoC4/BLE_HAL_PVT.c **** {
  55:.\Generated_Source\PSoC4/BLE_HAL_PVT.c ****     /* Stop interrupt and UART */
  56:.\Generated_Source\PSoC4/BLE_HAL_PVT.c ****     BLE_uart_isr_Stop();
  57:.\Generated_Source\PSoC4/BLE_HAL_PVT.c **** 
  58:.\Generated_Source\PSoC4/BLE_HAL_PVT.c ****     BLE_HAL_Uart_Stop();
  59:.\Generated_Source\PSoC4/BLE_HAL_PVT.c **** }
  60:.\Generated_Source\PSoC4/BLE_HAL_PVT.c **** 
  61:.\Generated_Source\PSoC4/BLE_HAL_PVT.c **** 
  62:.\Generated_Source\PSoC4/BLE_HAL_PVT.c **** /*******************************************************************************
  63:.\Generated_Source\PSoC4/BLE_HAL_PVT.c **** * Function Name: CyBLE_Uart_Transmit
  64:.\Generated_Source\PSoC4/BLE_HAL_PVT.c **** ****************************************************************************//**
  65:.\Generated_Source\PSoC4/BLE_HAL_PVT.c **** *
  66:.\Generated_Source\PSoC4/BLE_HAL_PVT.c **** *  Sends the data to Uart Tx FIFO. The API handles data length up to the 
  67:.\Generated_Source\PSoC4/BLE_HAL_PVT.c **** *  supported Tx FIFO length of the uart hardware module.
  68:.\Generated_Source\PSoC4/BLE_HAL_PVT.c **** *
  69:.\Generated_Source\PSoC4/BLE_HAL_PVT.c **** *  \param data: Pointer to the data to send through the UART
  70:.\Generated_Source\PSoC4/BLE_HAL_PVT.c **** *  \param length: the length of data to transmit in bytes
  71:.\Generated_Source\PSoC4/BLE_HAL_PVT.c **** *
  72:.\Generated_Source\PSoC4/BLE_HAL_PVT.c **** * \return
  73:.\Generated_Source\PSoC4/BLE_HAL_PVT.c **** *  None
  74:.\Generated_Source\PSoC4/BLE_HAL_PVT.c **** *
  75:.\Generated_Source\PSoC4/BLE_HAL_PVT.c **** *******************************************************************************/
  76:.\Generated_Source\PSoC4/BLE_HAL_PVT.c **** void CyBLE_Uart_Transmit (const uint8 *dataBuf, uint8 length)
  77:.\Generated_Source\PSoC4/BLE_HAL_PVT.c **** {
  78:.\Generated_Source\PSoC4/BLE_HAL_PVT.c ****     BLE_HAL_Uart_SpiUartPutArray(dataBuf, (uint32)length);
  79:.\Generated_Source\PSoC4/BLE_HAL_PVT.c **** }
  80:.\Generated_Source\PSoC4/BLE_HAL_PVT.c **** 
  81:.\Generated_Source\PSoC4/BLE_HAL_PVT.c **** #endif /* (CYBLE_MODE == CYBLE_HCI) */
  82:.\Generated_Source\PSoC4/BLE_HAL_PVT.c **** 
  83:.\Generated_Source\PSoC4/BLE_HAL_PVT.c **** 
  84:.\Generated_Source\PSoC4/BLE_HAL_PVT.c **** /*******************************************************************************
  85:.\Generated_Source\PSoC4/BLE_HAL_PVT.c **** * Function Name: CyBLE_Nvram_Write
  86:.\Generated_Source\PSoC4/BLE_HAL_PVT.c **** ****************************************************************************//**
  87:.\Generated_Source\PSoC4/BLE_HAL_PVT.c **** *
  88:.\Generated_Source\PSoC4/BLE_HAL_PVT.c **** *  This API writes the data to the NVRAM store. It will check the appropriate
  89:.\Generated_Source\PSoC4/BLE_HAL_PVT.c **** *  alignment of a start address and also perform an address range check based
ARM GAS  C:\Users\YBOURA~1\AppData\Local\Temp\ccGpkK9v.s 			page 3


  90:.\Generated_Source\PSoC4/BLE_HAL_PVT.c **** *  on the length before performing the write operation.
  91:.\Generated_Source\PSoC4/BLE_HAL_PVT.c **** *  This function performs memory compare and writes only row where there are new
  92:.\Generated_Source\PSoC4/BLE_HAL_PVT.c **** *  data to write.
  93:.\Generated_Source\PSoC4/BLE_HAL_PVT.c **** *
  94:.\Generated_Source\PSoC4/BLE_HAL_PVT.c **** *  \param buffer:   Pointer to the buffer containing the data to be stored.
  95:.\Generated_Source\PSoC4/BLE_HAL_PVT.c **** *  \param varFlash: Pointer to the array or variable in the flash.
  96:.\Generated_Source\PSoC4/BLE_HAL_PVT.c **** *  \param length:    The length of the data in bytes.
  97:.\Generated_Source\PSoC4/BLE_HAL_PVT.c **** *
  98:.\Generated_Source\PSoC4/BLE_HAL_PVT.c **** * \return
  99:.\Generated_Source\PSoC4/BLE_HAL_PVT.c **** *  CYRET_SUCCESS    a successful write
 100:.\Generated_Source\PSoC4/BLE_HAL_PVT.c **** *  CYRET_BAD_PARAM  A request to write outside the flash boundary.
 101:.\Generated_Source\PSoC4/BLE_HAL_PVT.c **** *  CYRET_UNKNOWN    Other errors in writing the flash
 102:.\Generated_Source\PSoC4/BLE_HAL_PVT.c **** *
 103:.\Generated_Source\PSoC4/BLE_HAL_PVT.c **** * \sideeffect
 104:.\Generated_Source\PSoC4/BLE_HAL_PVT.c **** *  For BLE devices with 128K of Flash memory this API will automatically 
 105:.\Generated_Source\PSoC4/BLE_HAL_PVT.c **** *  modify the clock settings for the device.
 106:.\Generated_Source\PSoC4/BLE_HAL_PVT.c **** *  Writing to flash requires changes to be done to the IMO (set to 48 MHz)
 107:.\Generated_Source\PSoC4/BLE_HAL_PVT.c **** *  and HFCLK (source set to IMO) settings. The configuration is restored before
 108:.\Generated_Source\PSoC4/BLE_HAL_PVT.c **** *  returning. This will impact the operation of most of the hardware in the
 109:.\Generated_Source\PSoC4/BLE_HAL_PVT.c **** *  device.
 110:.\Generated_Source\PSoC4/BLE_HAL_PVT.c **** *
 111:.\Generated_Source\PSoC4/BLE_HAL_PVT.c **** *******************************************************************************/
 112:.\Generated_Source\PSoC4/BLE_HAL_PVT.c **** cystatus CyBLE_Nvram_Write (const uint8 buffer[], const uint8 varFlash[], uint16 length)
 113:.\Generated_Source\PSoC4/BLE_HAL_PVT.c **** {
  26              		.loc 1 113 0
  27              		.cfi_startproc
  28 0000 80B5     		push	{r7, lr}
  29              		.cfi_def_cfa_offset 8
  30              		.cfi_offset 7, -8
  31              		.cfi_offset 14, -4
  32 0002 ACB0     		sub	sp, sp, #176
  33              		.cfi_def_cfa_offset 184
  34 0004 00AF     		add	r7, sp, #0
  35              		.cfi_def_cfa_register 7
  36 0006 F860     		str	r0, [r7, #12]
  37 0008 B960     		str	r1, [r7, #8]
  38 000a BB1D     		add	r3, r7, #6
  39 000c 1A80     		strh	r2, [r3]
 114:.\Generated_Source\PSoC4/BLE_HAL_PVT.c ****     uint8 writeBuffer[CY_FLASH_SIZEOF_ROW];
 115:.\Generated_Source\PSoC4/BLE_HAL_PVT.c ****     uint32 rowId;
 116:.\Generated_Source\PSoC4/BLE_HAL_PVT.c ****     uint32 dstIndex;
 117:.\Generated_Source\PSoC4/BLE_HAL_PVT.c ****     uint32 srcIndex = 0u;
  40              		.loc 1 117 0
  41 000e 0023     		mov	r3, #0
  42 0010 A422     		mov	r2, #164
  43 0012 BA18     		add	r2, r7, r2
  44 0014 1360     		str	r3, [r2]
 118:.\Generated_Source\PSoC4/BLE_HAL_PVT.c ****     cystatus rc = CYRET_SUCCESS;
  45              		.loc 1 118 0
  46 0016 0023     		mov	r3, #0
  47 0018 A022     		mov	r2, #160
  48 001a BA18     		add	r2, r7, r2
  49 001c 1360     		str	r3, [r2]
 119:.\Generated_Source\PSoC4/BLE_HAL_PVT.c ****     uint32 eeOffset;
 120:.\Generated_Source\PSoC4/BLE_HAL_PVT.c ****     uint32 byteOffset;
 121:.\Generated_Source\PSoC4/BLE_HAL_PVT.c ****     uint32 rowsNotEqual;
 122:.\Generated_Source\PSoC4/BLE_HAL_PVT.c **** 
ARM GAS  C:\Users\YBOURA~1\AppData\Local\Temp\ccGpkK9v.s 			page 4


 123:.\Generated_Source\PSoC4/BLE_HAL_PVT.c ****     eeOffset = (uint32)varFlash;
  50              		.loc 1 123 0
  51 001e BB68     		ldr	r3, [r7, #8]
  52 0020 9422     		mov	r2, #148
  53 0022 BA18     		add	r2, r7, r2
  54 0024 1360     		str	r3, [r2]
 124:.\Generated_Source\PSoC4/BLE_HAL_PVT.c **** 
 125:.\Generated_Source\PSoC4/BLE_HAL_PVT.c ****     /* Make sure, that varFlash[] points to Flash */
 126:.\Generated_Source\PSoC4/BLE_HAL_PVT.c ****     if ((eeOffset + length) < CYBLE_HAL_FLASH_END_ADDR)
  55              		.loc 1 126 0
  56 0026 BB1D     		add	r3, r7, #6
  57 0028 1A88     		ldrh	r2, [r3]
  58 002a 9423     		mov	r3, #148
  59 002c FB18     		add	r3, r7, r3
  60 002e 1B68     		ldr	r3, [r3]
  61 0030 D318     		add	r3, r2, r3
  62 0032 5A4A     		ldr	r2, .L14
  63 0034 9342     		cmp	r3, r2
  64 0036 00D9     		bls	.LCB36
  65 0038 96E0     		b	.L2	@long jump
  66              	.LCB36:
 127:.\Generated_Source\PSoC4/BLE_HAL_PVT.c ****     {
 128:.\Generated_Source\PSoC4/BLE_HAL_PVT.c ****         rowId = eeOffset / CY_FLASH_SIZEOF_ROW;
  67              		.loc 1 128 0
  68 003a 9423     		mov	r3, #148
  69 003c FB18     		add	r3, r7, r3
  70 003e 1B68     		ldr	r3, [r3]
  71 0040 DB09     		lsr	r3, r3, #7
  72 0042 AC22     		mov	r2, #172
  73 0044 BA18     		add	r2, r7, r2
  74 0046 1360     		str	r3, [r2]
 129:.\Generated_Source\PSoC4/BLE_HAL_PVT.c ****         byteOffset = CY_FLASH_SIZEOF_ROW * rowId;
  75              		.loc 1 129 0
  76 0048 AC23     		mov	r3, #172
  77 004a FB18     		add	r3, r7, r3
  78 004c 1B68     		ldr	r3, [r3]
  79 004e DB01     		lsl	r3, r3, #7
  80 0050 9C22     		mov	r2, #156
  81 0052 BA18     		add	r2, r7, r2
  82 0054 1360     		str	r3, [r2]
 130:.\Generated_Source\PSoC4/BLE_HAL_PVT.c **** 
 131:.\Generated_Source\PSoC4/BLE_HAL_PVT.c ****         while ((srcIndex < length) && (CYRET_SUCCESS == rc))
  83              		.loc 1 131 0
  84 0056 79E0     		b	.L3
  85              	.L11:
 132:.\Generated_Source\PSoC4/BLE_HAL_PVT.c ****         {
 133:.\Generated_Source\PSoC4/BLE_HAL_PVT.c ****             rowsNotEqual = 0u;
  86              		.loc 1 133 0
  87 0058 0023     		mov	r3, #0
  88 005a 9822     		mov	r2, #152
  89 005c BA18     		add	r2, r7, r2
  90 005e 1360     		str	r3, [r2]
 134:.\Generated_Source\PSoC4/BLE_HAL_PVT.c ****             /* Copy data to the write buffer either from the source buffer or from the flash */
 135:.\Generated_Source\PSoC4/BLE_HAL_PVT.c ****             for (dstIndex = 0u; dstIndex < CY_FLASH_SIZEOF_ROW; dstIndex++)
  91              		.loc 1 135 0
  92 0060 0023     		mov	r3, #0
  93 0062 A822     		mov	r2, #168
ARM GAS  C:\Users\YBOURA~1\AppData\Local\Temp\ccGpkK9v.s 			page 5


  94 0064 BA18     		add	r2, r7, r2
  95 0066 1360     		str	r3, [r2]
  96 0068 52E0     		b	.L4
  97              	.L8:
 136:.\Generated_Source\PSoC4/BLE_HAL_PVT.c ****             {
 137:.\Generated_Source\PSoC4/BLE_HAL_PVT.c ****                 if ((byteOffset >= eeOffset) && (srcIndex < length))
  98              		.loc 1 137 0
  99 006a 9C23     		mov	r3, #156
 100 006c FB18     		add	r3, r7, r3
 101 006e 1A68     		ldr	r2, [r3]
 102 0070 9423     		mov	r3, #148
 103 0072 FB18     		add	r3, r7, r3
 104 0074 1B68     		ldr	r3, [r3]
 105 0076 9A42     		cmp	r2, r3
 106 0078 2FD3     		bcc	.L5
 107              		.loc 1 137 0 is_stmt 0 discriminator 1
 108 007a BB1D     		add	r3, r7, #6
 109 007c 1A88     		ldrh	r2, [r3]
 110 007e A423     		mov	r3, #164
 111 0080 FB18     		add	r3, r7, r3
 112 0082 1B68     		ldr	r3, [r3]
 113 0084 9A42     		cmp	r2, r3
 114 0086 28D9     		bls	.L5
 138:.\Generated_Source\PSoC4/BLE_HAL_PVT.c ****                 {
 139:.\Generated_Source\PSoC4/BLE_HAL_PVT.c ****                     /* Detect that row programming is required */
 140:.\Generated_Source\PSoC4/BLE_HAL_PVT.c ****                     if(writeBuffer[dstIndex] != buffer[srcIndex])
 115              		.loc 1 140 0 is_stmt 1
 116 0088 1423     		mov	r3, #20
 117 008a FA18     		add	r2, r7, r3
 118 008c A823     		mov	r3, #168
 119 008e FB18     		add	r3, r7, r3
 120 0090 1B68     		ldr	r3, [r3]
 121 0092 D318     		add	r3, r2, r3
 122 0094 1A78     		ldrb	r2, [r3]
 123 0096 F968     		ldr	r1, [r7, #12]
 124 0098 A423     		mov	r3, #164
 125 009a FB18     		add	r3, r7, r3
 126 009c 1B68     		ldr	r3, [r3]
 127 009e CB18     		add	r3, r1, r3
 128 00a0 1B78     		ldrb	r3, [r3]
 129 00a2 9A42     		cmp	r2, r3
 130 00a4 11D0     		beq	.L6
 141:.\Generated_Source\PSoC4/BLE_HAL_PVT.c ****                     {
 142:.\Generated_Source\PSoC4/BLE_HAL_PVT.c ****                         writeBuffer[dstIndex] = buffer[srcIndex];
 131              		.loc 1 142 0
 132 00a6 FA68     		ldr	r2, [r7, #12]
 133 00a8 A423     		mov	r3, #164
 134 00aa FB18     		add	r3, r7, r3
 135 00ac 1B68     		ldr	r3, [r3]
 136 00ae D318     		add	r3, r2, r3
 137 00b0 1978     		ldrb	r1, [r3]
 138 00b2 1423     		mov	r3, #20
 139 00b4 FA18     		add	r2, r7, r3
 140 00b6 A823     		mov	r3, #168
 141 00b8 FB18     		add	r3, r7, r3
 142 00ba 1B68     		ldr	r3, [r3]
 143 00bc D318     		add	r3, r2, r3
ARM GAS  C:\Users\YBOURA~1\AppData\Local\Temp\ccGpkK9v.s 			page 6


 144 00be 0A1C     		add	r2, r1, #0
 145 00c0 1A70     		strb	r2, [r3]
 143:.\Generated_Source\PSoC4/BLE_HAL_PVT.c ****                         rowsNotEqual = 1u;  
 146              		.loc 1 143 0
 147 00c2 0123     		mov	r3, #1
 148 00c4 9822     		mov	r2, #152
 149 00c6 BA18     		add	r2, r7, r2
 150 00c8 1360     		str	r3, [r2]
 151              	.L6:
 144:.\Generated_Source\PSoC4/BLE_HAL_PVT.c ****                     }
 145:.\Generated_Source\PSoC4/BLE_HAL_PVT.c ****                     srcIndex++;
 152              		.loc 1 145 0
 153 00ca A423     		mov	r3, #164
 154 00cc FB18     		add	r3, r7, r3
 155 00ce 1B68     		ldr	r3, [r3]
 156 00d0 0133     		add	r3, r3, #1
 157 00d2 A422     		mov	r2, #164
 158 00d4 BA18     		add	r2, r7, r2
 159 00d6 1360     		str	r3, [r2]
 160 00d8 0CE0     		b	.L7
 161              	.L5:
 146:.\Generated_Source\PSoC4/BLE_HAL_PVT.c ****                 }
 147:.\Generated_Source\PSoC4/BLE_HAL_PVT.c ****                 else
 148:.\Generated_Source\PSoC4/BLE_HAL_PVT.c ****                 {
 149:.\Generated_Source\PSoC4/BLE_HAL_PVT.c ****                     writeBuffer[dstIndex] = CY_GET_XTND_REG8(CYDEV_FLASH_BASE + byteOffset);
 162              		.loc 1 149 0
 163 00da 9C23     		mov	r3, #156
 164 00dc FB18     		add	r3, r7, r3
 165 00de 1B68     		ldr	r3, [r3]
 166 00e0 1B78     		ldrb	r3, [r3]
 167 00e2 D9B2     		uxtb	r1, r3
 168 00e4 1423     		mov	r3, #20
 169 00e6 FA18     		add	r2, r7, r3
 170 00e8 A823     		mov	r3, #168
 171 00ea FB18     		add	r3, r7, r3
 172 00ec 1B68     		ldr	r3, [r3]
 173 00ee D318     		add	r3, r2, r3
 174 00f0 0A1C     		add	r2, r1, #0
 175 00f2 1A70     		strb	r2, [r3]
 176              	.L7:
 150:.\Generated_Source\PSoC4/BLE_HAL_PVT.c ****                 }
 151:.\Generated_Source\PSoC4/BLE_HAL_PVT.c ****                 byteOffset++;
 177              		.loc 1 151 0 discriminator 2
 178 00f4 9C23     		mov	r3, #156
 179 00f6 FB18     		add	r3, r7, r3
 180 00f8 1B68     		ldr	r3, [r3]
 181 00fa 0133     		add	r3, r3, #1
 182 00fc 9C22     		mov	r2, #156
 183 00fe BA18     		add	r2, r7, r2
 184 0100 1360     		str	r3, [r2]
 135:.\Generated_Source\PSoC4/BLE_HAL_PVT.c ****             {
 185              		.loc 1 135 0 discriminator 2
 186 0102 A823     		mov	r3, #168
 187 0104 FB18     		add	r3, r7, r3
 188 0106 1B68     		ldr	r3, [r3]
 189 0108 0133     		add	r3, r3, #1
 190 010a A822     		mov	r2, #168
ARM GAS  C:\Users\YBOURA~1\AppData\Local\Temp\ccGpkK9v.s 			page 7


 191 010c BA18     		add	r2, r7, r2
 192 010e 1360     		str	r3, [r2]
 193              	.L4:
 135:.\Generated_Source\PSoC4/BLE_HAL_PVT.c ****             {
 194              		.loc 1 135 0 is_stmt 0 discriminator 1
 195 0110 A823     		mov	r3, #168
 196 0112 FB18     		add	r3, r7, r3
 197 0114 1B68     		ldr	r3, [r3]
 198 0116 7F2B     		cmp	r3, #127
 199 0118 A7D9     		bls	.L8
 152:.\Generated_Source\PSoC4/BLE_HAL_PVT.c ****             }
 153:.\Generated_Source\PSoC4/BLE_HAL_PVT.c **** 
 154:.\Generated_Source\PSoC4/BLE_HAL_PVT.c ****             if(rowsNotEqual != 0u)
 200              		.loc 1 154 0 is_stmt 1
 201 011a 9823     		mov	r3, #152
 202 011c FB18     		add	r3, r7, r3
 203 011e 1B68     		ldr	r3, [r3]
 204 0120 002B     		cmp	r3, #0
 205 0122 0CD0     		beq	.L9
 155:.\Generated_Source\PSoC4/BLE_HAL_PVT.c ****             {
 156:.\Generated_Source\PSoC4/BLE_HAL_PVT.c ****                 /* Write flash row */
 157:.\Generated_Source\PSoC4/BLE_HAL_PVT.c ****                 rc = CySysFlashWriteRow(rowId, writeBuffer);
 206              		.loc 1 157 0
 207 0124 AC23     		mov	r3, #172
 208 0126 FB18     		add	r3, r7, r3
 209 0128 1A68     		ldr	r2, [r3]
 210 012a 1423     		mov	r3, #20
 211 012c FB18     		add	r3, r7, r3
 212 012e 101C     		mov	r0, r2
 213 0130 191C     		mov	r1, r3
 214 0132 FFF7FEFF 		bl	CySysFlashWriteRow
 215 0136 031C     		mov	r3, r0
 216 0138 A022     		mov	r2, #160
 217 013a BA18     		add	r2, r7, r2
 218 013c 1360     		str	r3, [r2]
 219              	.L9:
 158:.\Generated_Source\PSoC4/BLE_HAL_PVT.c ****             }
 159:.\Generated_Source\PSoC4/BLE_HAL_PVT.c **** 
 160:.\Generated_Source\PSoC4/BLE_HAL_PVT.c ****             /* Go to the next row */
 161:.\Generated_Source\PSoC4/BLE_HAL_PVT.c ****             rowId++;
 220              		.loc 1 161 0
 221 013e AC23     		mov	r3, #172
 222 0140 FB18     		add	r3, r7, r3
 223 0142 1B68     		ldr	r3, [r3]
 224 0144 0133     		add	r3, r3, #1
 225 0146 AC22     		mov	r2, #172
 226 0148 BA18     		add	r2, r7, r2
 227 014a 1360     		str	r3, [r2]
 228              	.L3:
 131:.\Generated_Source\PSoC4/BLE_HAL_PVT.c ****         {
 229              		.loc 1 131 0
 230 014c BB1D     		add	r3, r7, #6
 231 014e 1A88     		ldrh	r2, [r3]
 232 0150 A423     		mov	r3, #164
 233 0152 FB18     		add	r3, r7, r3
 234 0154 1B68     		ldr	r3, [r3]
 235 0156 9A42     		cmp	r2, r3
ARM GAS  C:\Users\YBOURA~1\AppData\Local\Temp\ccGpkK9v.s 			page 8


 236 0158 0AD9     		bls	.L10
 131:.\Generated_Source\PSoC4/BLE_HAL_PVT.c ****         {
 237              		.loc 1 131 0 is_stmt 0 discriminator 1
 238 015a A023     		mov	r3, #160
 239 015c FB18     		add	r3, r7, r3
 240 015e 1B68     		ldr	r3, [r3]
 241 0160 002B     		cmp	r3, #0
 242 0162 00D1     		bne	.LCB203
 243 0164 78E7     		b	.L11	@long jump
 244              	.LCB203:
 245 0166 03E0     		b	.L10
 246              	.L2:
 162:.\Generated_Source\PSoC4/BLE_HAL_PVT.c ****         }
 163:.\Generated_Source\PSoC4/BLE_HAL_PVT.c ****     }
 164:.\Generated_Source\PSoC4/BLE_HAL_PVT.c ****     else
 165:.\Generated_Source\PSoC4/BLE_HAL_PVT.c ****     {
 166:.\Generated_Source\PSoC4/BLE_HAL_PVT.c ****         rc = CYRET_BAD_PARAM;
 247              		.loc 1 166 0 is_stmt 1
 248 0168 0123     		mov	r3, #1
 249 016a A022     		mov	r2, #160
 250 016c BA18     		add	r2, r7, r2
 251 016e 1360     		str	r3, [r2]
 252              	.L10:
 167:.\Generated_Source\PSoC4/BLE_HAL_PVT.c ****     }
 168:.\Generated_Source\PSoC4/BLE_HAL_PVT.c **** 
 169:.\Generated_Source\PSoC4/BLE_HAL_PVT.c ****     /* Mask return codes from flash, if they are not supported */
 170:.\Generated_Source\PSoC4/BLE_HAL_PVT.c ****     if ((CYRET_SUCCESS != rc) && (CYRET_BAD_PARAM != rc))
 253              		.loc 1 170 0
 254 0170 A023     		mov	r3, #160
 255 0172 FB18     		add	r3, r7, r3
 256 0174 1B68     		ldr	r3, [r3]
 257 0176 002B     		cmp	r3, #0
 258 0178 09D0     		beq	.L12
 259              		.loc 1 170 0 is_stmt 0 discriminator 1
 260 017a A023     		mov	r3, #160
 261 017c FB18     		add	r3, r7, r3
 262 017e 1B68     		ldr	r3, [r3]
 263 0180 012B     		cmp	r3, #1
 264 0182 04D0     		beq	.L12
 171:.\Generated_Source\PSoC4/BLE_HAL_PVT.c ****     {
 172:.\Generated_Source\PSoC4/BLE_HAL_PVT.c ****         rc = CYRET_UNKNOWN;
 265              		.loc 1 172 0 is_stmt 1
 266 0184 0123     		mov	r3, #1
 267 0186 5B42     		neg	r3, r3
 268 0188 A022     		mov	r2, #160
 269 018a BA18     		add	r2, r7, r2
 270 018c 1360     		str	r3, [r2]
 271              	.L12:
 173:.\Generated_Source\PSoC4/BLE_HAL_PVT.c ****     }
 174:.\Generated_Source\PSoC4/BLE_HAL_PVT.c ****     
 175:.\Generated_Source\PSoC4/BLE_HAL_PVT.c ****     return (rc);
 272              		.loc 1 175 0
 273 018e A023     		mov	r3, #160
 274 0190 FB18     		add	r3, r7, r3
 275 0192 1B68     		ldr	r3, [r3]
 176:.\Generated_Source\PSoC4/BLE_HAL_PVT.c **** }
 276              		.loc 1 176 0
ARM GAS  C:\Users\YBOURA~1\AppData\Local\Temp\ccGpkK9v.s 			page 9


 277 0194 181C     		mov	r0, r3
 278 0196 BD46     		mov	sp, r7
 279 0198 2CB0     		add	sp, sp, #176
 280              		@ sp needed
 281 019a 80BD     		pop	{r7, pc}
 282              	.L15:
 283              		.align	2
 284              	.L14:
 285 019c FFFF0100 		.word	131071
 286              		.cfi_endproc
 287              	.LFE2:
 288              		.size	CyBLE_Nvram_Write, .-CyBLE_Nvram_Write
 289              		.section	.text.CyBLE_Nvram_Erase,"ax",%progbits
 290              		.align	2
 291              		.global	CyBLE_Nvram_Erase
 292              		.code	16
 293              		.thumb_func
 294              		.type	CyBLE_Nvram_Erase, %function
 295              	CyBLE_Nvram_Erase:
 296              	.LFB3:
 177:.\Generated_Source\PSoC4/BLE_HAL_PVT.c **** 
 178:.\Generated_Source\PSoC4/BLE_HAL_PVT.c **** /*******************************************************************************
 179:.\Generated_Source\PSoC4/BLE_HAL_PVT.c **** * Function Name: CyBLE_Nvram_Erase
 180:.\Generated_Source\PSoC4/BLE_HAL_PVT.c **** ****************************************************************************//**
 181:.\Generated_Source\PSoC4/BLE_HAL_PVT.c **** *
 182:.\Generated_Source\PSoC4/BLE_HAL_PVT.c **** *  This API erases the data from the NVRAM store. This API will perform an 
 183:.\Generated_Source\PSoC4/BLE_HAL_PVT.c **** *  address range check based on the length before performing erase operation.
 184:.\Generated_Source\PSoC4/BLE_HAL_PVT.c **** *
 185:.\Generated_Source\PSoC4/BLE_HAL_PVT.c **** *  \param varFlash: the pointer to the array or variable in the flash.
 186:.\Generated_Source\PSoC4/BLE_HAL_PVT.c **** *  \param length:    the length of the data in bytes.
 187:.\Generated_Source\PSoC4/BLE_HAL_PVT.c **** *
 188:.\Generated_Source\PSoC4/BLE_HAL_PVT.c **** * \return
 189:.\Generated_Source\PSoC4/BLE_HAL_PVT.c **** *  CYRET_SUCCESS    a successful write
 190:.\Generated_Source\PSoC4/BLE_HAL_PVT.c **** *  CYRET_BAD_PARAM  A request to write outside the flash boundary.
 191:.\Generated_Source\PSoC4/BLE_HAL_PVT.c **** *  CYRET_UNKNOWN    Other errors in writing the flash
 192:.\Generated_Source\PSoC4/BLE_HAL_PVT.c **** *
 193:.\Generated_Source\PSoC4/BLE_HAL_PVT.c **** *******************************************************************************/
 194:.\Generated_Source\PSoC4/BLE_HAL_PVT.c **** cystatus CyBLE_Nvram_Erase (const uint8 *varFlash, uint16 length)
 195:.\Generated_Source\PSoC4/BLE_HAL_PVT.c **** {
 297              		.loc 1 195 0
 298              		.cfi_startproc
 299 0000 80B5     		push	{r7, lr}
 300              		.cfi_def_cfa_offset 8
 301              		.cfi_offset 7, -8
 302              		.cfi_offset 14, -4
 303 0002 A6B0     		sub	sp, sp, #152
 304              		.cfi_def_cfa_offset 160
 305 0004 00AF     		add	r7, sp, #0
 306              		.cfi_def_cfa_register 7
 307 0006 7860     		str	r0, [r7, #4]
 308 0008 0A1C     		mov	r2, r1
 309 000a BB1C     		add	r3, r7, #2
 310 000c 1A80     		strh	r2, [r3]
 196:.\Generated_Source\PSoC4/BLE_HAL_PVT.c ****     const uint8 *tempFlash;
 197:.\Generated_Source\PSoC4/BLE_HAL_PVT.c ****     uint8 flashBuffer[CY_FLASH_SIZEOF_ROW] = {0u};
 311              		.loc 1 197 0
 312 000e 0C23     		mov	r3, #12
ARM GAS  C:\Users\YBOURA~1\AppData\Local\Temp\ccGpkK9v.s 			page 10


 313 0010 FB18     		add	r3, r7, r3
 314 0012 1A1C     		mov	r2, r3
 315 0014 8023     		mov	r3, #128
 316 0016 101C     		mov	r0, r2
 317 0018 0021     		mov	r1, #0
 318 001a 1A1C     		mov	r2, r3
 319 001c FFF7FEFF 		bl	memset
 198:.\Generated_Source\PSoC4/BLE_HAL_PVT.c ****     uint16 lengthFlash;
 199:.\Generated_Source\PSoC4/BLE_HAL_PVT.c ****     uint16 lengthRemaining;
 200:.\Generated_Source\PSoC4/BLE_HAL_PVT.c ****     cystatus rc = CYRET_UNKNOWN;
 320              		.loc 1 200 0
 321 0020 0123     		mov	r3, #1
 322 0022 5B42     		neg	r3, r3
 323 0024 8C22     		mov	r2, #140
 324 0026 BA18     		add	r2, r7, r2
 325 0028 1360     		str	r3, [r2]
 201:.\Generated_Source\PSoC4/BLE_HAL_PVT.c **** 
 202:.\Generated_Source\PSoC4/BLE_HAL_PVT.c ****     tempFlash = varFlash;
 326              		.loc 1 202 0
 327 002a 7B68     		ldr	r3, [r7, #4]
 328 002c 9422     		mov	r2, #148
 329 002e BA18     		add	r2, r7, r2
 330 0030 1360     		str	r3, [r2]
 203:.\Generated_Source\PSoC4/BLE_HAL_PVT.c ****     lengthRemaining = length;
 331              		.loc 1 203 0
 332 0032 9023     		mov	r3, #144
 333 0034 FB18     		add	r3, r7, r3
 334 0036 BA1C     		add	r2, r7, #2
 335 0038 1288     		ldrh	r2, [r2]
 336 003a 1A80     		strh	r2, [r3]
 204:.\Generated_Source\PSoC4/BLE_HAL_PVT.c **** 
 205:.\Generated_Source\PSoC4/BLE_HAL_PVT.c ****     while(lengthRemaining > 0u)
 337              		.loc 1 205 0
 338 003c 37E0     		b	.L17
 339              	.L22:
 206:.\Generated_Source\PSoC4/BLE_HAL_PVT.c ****     {
 207:.\Generated_Source\PSoC4/BLE_HAL_PVT.c ****         if(lengthRemaining < CY_FLASH_SIZEOF_ROW)
 340              		.loc 1 207 0
 341 003e 9023     		mov	r3, #144
 342 0040 FB18     		add	r3, r7, r3
 343 0042 1B88     		ldrh	r3, [r3]
 344 0044 7F2B     		cmp	r3, #127
 345 0046 06D8     		bhi	.L18
 208:.\Generated_Source\PSoC4/BLE_HAL_PVT.c ****         {
 209:.\Generated_Source\PSoC4/BLE_HAL_PVT.c ****             lengthFlash = lengthRemaining;
 346              		.loc 1 209 0
 347 0048 9223     		mov	r3, #146
 348 004a FB18     		add	r3, r7, r3
 349 004c 9022     		mov	r2, #144
 350 004e BA18     		add	r2, r7, r2
 351 0050 1288     		ldrh	r2, [r2]
 352 0052 1A80     		strh	r2, [r3]
 353 0054 03E0     		b	.L19
 354              	.L18:
 210:.\Generated_Source\PSoC4/BLE_HAL_PVT.c ****         }
 211:.\Generated_Source\PSoC4/BLE_HAL_PVT.c ****         else
 212:.\Generated_Source\PSoC4/BLE_HAL_PVT.c ****         {
ARM GAS  C:\Users\YBOURA~1\AppData\Local\Temp\ccGpkK9v.s 			page 11


 213:.\Generated_Source\PSoC4/BLE_HAL_PVT.c ****             lengthFlash = CY_FLASH_SIZEOF_ROW;
 355              		.loc 1 213 0
 356 0056 9223     		mov	r3, #146
 357 0058 FB18     		add	r3, r7, r3
 358 005a 8022     		mov	r2, #128
 359 005c 1A80     		strh	r2, [r3]
 360              	.L19:
 214:.\Generated_Source\PSoC4/BLE_HAL_PVT.c ****         }
 215:.\Generated_Source\PSoC4/BLE_HAL_PVT.c ****         rc = CyBLE_Nvram_Write(flashBuffer, tempFlash, lengthFlash);
 361              		.loc 1 215 0
 362 005e 0C23     		mov	r3, #12
 363 0060 F918     		add	r1, r7, r3
 364 0062 9423     		mov	r3, #148
 365 0064 FB18     		add	r3, r7, r3
 366 0066 1A68     		ldr	r2, [r3]
 367 0068 9223     		mov	r3, #146
 368 006a FB18     		add	r3, r7, r3
 369 006c 1B88     		ldrh	r3, [r3]
 370 006e 081C     		mov	r0, r1
 371 0070 111C     		mov	r1, r2
 372 0072 1A1C     		mov	r2, r3
 373 0074 FFF7FEFF 		bl	CyBLE_Nvram_Write
 374 0078 031C     		mov	r3, r0
 375 007a 8C22     		mov	r2, #140
 376 007c BA18     		add	r2, r7, r2
 377 007e 1360     		str	r3, [r2]
 216:.\Generated_Source\PSoC4/BLE_HAL_PVT.c ****         if(rc != CYRET_SUCCESS)
 378              		.loc 1 216 0
 379 0080 8C23     		mov	r3, #140
 380 0082 FB18     		add	r3, r7, r3
 381 0084 1B68     		ldr	r3, [r3]
 382 0086 002B     		cmp	r3, #0
 383 0088 00D0     		beq	.L20
 217:.\Generated_Source\PSoC4/BLE_HAL_PVT.c ****         {
 218:.\Generated_Source\PSoC4/BLE_HAL_PVT.c ****             break;
 384              		.loc 1 218 0
 385 008a 15E0     		b	.L21
 386              	.L20:
 219:.\Generated_Source\PSoC4/BLE_HAL_PVT.c ****         }
 220:.\Generated_Source\PSoC4/BLE_HAL_PVT.c ****         tempFlash += CY_FLASH_SIZEOF_ROW;
 387              		.loc 1 220 0
 388 008c 9423     		mov	r3, #148
 389 008e FB18     		add	r3, r7, r3
 390 0090 1B68     		ldr	r3, [r3]
 391 0092 8033     		add	r3, r3, #128
 392 0094 9422     		mov	r2, #148
 393 0096 BA18     		add	r2, r7, r2
 394 0098 1360     		str	r3, [r2]
 221:.\Generated_Source\PSoC4/BLE_HAL_PVT.c ****         lengthRemaining -= lengthFlash;
 395              		.loc 1 221 0
 396 009a 9023     		mov	r3, #144
 397 009c FB18     		add	r3, r7, r3
 398 009e 9022     		mov	r2, #144
 399 00a0 B918     		add	r1, r7, r2
 400 00a2 9222     		mov	r2, #146
 401 00a4 BA18     		add	r2, r7, r2
 402 00a6 0988     		ldrh	r1, [r1]
ARM GAS  C:\Users\YBOURA~1\AppData\Local\Temp\ccGpkK9v.s 			page 12


 403 00a8 1288     		ldrh	r2, [r2]
 404 00aa 8A1A     		sub	r2, r1, r2
 405 00ac 1A80     		strh	r2, [r3]
 406              	.L17:
 205:.\Generated_Source\PSoC4/BLE_HAL_PVT.c ****     {
 407              		.loc 1 205 0
 408 00ae 9023     		mov	r3, #144
 409 00b0 FB18     		add	r3, r7, r3
 410 00b2 1B88     		ldrh	r3, [r3]
 411 00b4 002B     		cmp	r3, #0
 412 00b6 C2D1     		bne	.L22
 413              	.L21:
 222:.\Generated_Source\PSoC4/BLE_HAL_PVT.c ****     }
 223:.\Generated_Source\PSoC4/BLE_HAL_PVT.c **** 
 224:.\Generated_Source\PSoC4/BLE_HAL_PVT.c ****     return rc;
 414              		.loc 1 224 0
 415 00b8 8C23     		mov	r3, #140
 416 00ba FB18     		add	r3, r7, r3
 417 00bc 1B68     		ldr	r3, [r3]
 225:.\Generated_Source\PSoC4/BLE_HAL_PVT.c **** }
 418              		.loc 1 225 0
 419 00be 181C     		mov	r0, r3
 420 00c0 BD46     		mov	sp, r7
 421 00c2 26B0     		add	sp, sp, #152
 422              		@ sp needed
 423 00c4 80BD     		pop	{r7, pc}
 424              		.cfi_endproc
 425              	.LFE3:
 426              		.size	CyBLE_Nvram_Erase, .-CyBLE_Nvram_Erase
 427 00c6 C046     		.section	.text.CyBLE_Bless_LlRegRead,"ax",%progbits
 428              		.align	2
 429              		.global	CyBLE_Bless_LlRegRead
 430              		.code	16
 431              		.thumb_func
 432              		.type	CyBLE_Bless_LlRegRead, %function
 433              	CyBLE_Bless_LlRegRead:
 434              	.LFB4:
 226:.\Generated_Source\PSoC4/BLE_HAL_PVT.c **** 
 227:.\Generated_Source\PSoC4/BLE_HAL_PVT.c **** 
 228:.\Generated_Source\PSoC4/BLE_HAL_PVT.c **** /*******************************************************************************
 229:.\Generated_Source\PSoC4/BLE_HAL_PVT.c **** * Function Name: CyBLE_Bless_LlRegRead
 230:.\Generated_Source\PSoC4/BLE_HAL_PVT.c **** ****************************************************************************//**
 231:.\Generated_Source\PSoC4/BLE_HAL_PVT.c **** *
 232:.\Generated_Source\PSoC4/BLE_HAL_PVT.c **** *  This API reads the content of the BLESS Link Layer register from the stack.
 233:.\Generated_Source\PSoC4/BLE_HAL_PVT.c **** *
 234:.\Generated_Source\PSoC4/BLE_HAL_PVT.c **** *  \param blessAddr: the pointer to the BLESS link layer address.
 235:.\Generated_Source\PSoC4/BLE_HAL_PVT.c **** *  \param regValue: the pointer to the buffer space to copy the read value.
 236:.\Generated_Source\PSoC4/BLE_HAL_PVT.c **** *
 237:.\Generated_Source\PSoC4/BLE_HAL_PVT.c **** * \return
 238:.\Generated_Source\PSoC4/BLE_HAL_PVT.c **** *  None
 239:.\Generated_Source\PSoC4/BLE_HAL_PVT.c **** *
 240:.\Generated_Source\PSoC4/BLE_HAL_PVT.c **** *******************************************************************************/
 241:.\Generated_Source\PSoC4/BLE_HAL_PVT.c **** void CyBLE_Bless_LlRegRead (const reg32 *blessAddr, uint16 *regValue)
 242:.\Generated_Source\PSoC4/BLE_HAL_PVT.c **** {
 435              		.loc 1 242 0
 436              		.cfi_startproc
 437 0000 80B5     		push	{r7, lr}
ARM GAS  C:\Users\YBOURA~1\AppData\Local\Temp\ccGpkK9v.s 			page 13


 438              		.cfi_def_cfa_offset 8
 439              		.cfi_offset 7, -8
 440              		.cfi_offset 14, -4
 441 0002 82B0     		sub	sp, sp, #8
 442              		.cfi_def_cfa_offset 16
 443 0004 00AF     		add	r7, sp, #0
 444              		.cfi_def_cfa_register 7
 445 0006 7860     		str	r0, [r7, #4]
 446 0008 3960     		str	r1, [r7]
 243:.\Generated_Source\PSoC4/BLE_HAL_PVT.c ****     *regValue = (uint16)CY_GET_REG32(blessAddr);
 447              		.loc 1 243 0
 448 000a 7B68     		ldr	r3, [r7, #4]
 449 000c 1B68     		ldr	r3, [r3]
 450 000e 9AB2     		uxth	r2, r3
 451 0010 3B68     		ldr	r3, [r7]
 452 0012 1A80     		strh	r2, [r3]
 244:.\Generated_Source\PSoC4/BLE_HAL_PVT.c **** }
 453              		.loc 1 244 0
 454 0014 BD46     		mov	sp, r7
 455 0016 02B0     		add	sp, sp, #8
 456              		@ sp needed
 457 0018 80BD     		pop	{r7, pc}
 458              		.cfi_endproc
 459              	.LFE4:
 460              		.size	CyBLE_Bless_LlRegRead, .-CyBLE_Bless_LlRegRead
 461 001a C046     		.section	.text.CyBLE_Bless_LlRegWrite,"ax",%progbits
 462              		.align	2
 463              		.global	CyBLE_Bless_LlRegWrite
 464              		.code	16
 465              		.thumb_func
 466              		.type	CyBLE_Bless_LlRegWrite, %function
 467              	CyBLE_Bless_LlRegWrite:
 468              	.LFB5:
 245:.\Generated_Source\PSoC4/BLE_HAL_PVT.c **** 
 246:.\Generated_Source\PSoC4/BLE_HAL_PVT.c **** 
 247:.\Generated_Source\PSoC4/BLE_HAL_PVT.c **** /*******************************************************************************
 248:.\Generated_Source\PSoC4/BLE_HAL_PVT.c **** * Function Name: CyBLE_Bless_LlRegWrite
 249:.\Generated_Source\PSoC4/BLE_HAL_PVT.c **** ****************************************************************************//**
 250:.\Generated_Source\PSoC4/BLE_HAL_PVT.c **** *
 251:.\Generated_Source\PSoC4/BLE_HAL_PVT.c **** *  This API writes to the BLESS Link Layer register from the stack.
 252:.\Generated_Source\PSoC4/BLE_HAL_PVT.c **** *
 253:.\Generated_Source\PSoC4/BLE_HAL_PVT.c **** *  \param blessAddr: the pointer to the BLESS link layer address.
 254:.\Generated_Source\PSoC4/BLE_HAL_PVT.c **** *  \param regValue: the pointer to the value to be written to the BLESS LL reg.
 255:.\Generated_Source\PSoC4/BLE_HAL_PVT.c **** *
 256:.\Generated_Source\PSoC4/BLE_HAL_PVT.c **** * \return
 257:.\Generated_Source\PSoC4/BLE_HAL_PVT.c **** *  None
 258:.\Generated_Source\PSoC4/BLE_HAL_PVT.c **** *
 259:.\Generated_Source\PSoC4/BLE_HAL_PVT.c **** *******************************************************************************/
 260:.\Generated_Source\PSoC4/BLE_HAL_PVT.c **** void CyBLE_Bless_LlRegWrite (reg32 *blessAddr, const uint16 regValue)
 261:.\Generated_Source\PSoC4/BLE_HAL_PVT.c **** {
 469              		.loc 1 261 0
 470              		.cfi_startproc
 471 0000 80B5     		push	{r7, lr}
 472              		.cfi_def_cfa_offset 8
 473              		.cfi_offset 7, -8
 474              		.cfi_offset 14, -4
 475 0002 82B0     		sub	sp, sp, #8
ARM GAS  C:\Users\YBOURA~1\AppData\Local\Temp\ccGpkK9v.s 			page 14


 476              		.cfi_def_cfa_offset 16
 477 0004 00AF     		add	r7, sp, #0
 478              		.cfi_def_cfa_register 7
 479 0006 7860     		str	r0, [r7, #4]
 480 0008 0A1C     		mov	r2, r1
 481 000a BB1C     		add	r3, r7, #2
 482 000c 1A80     		strh	r2, [r3]
 262:.\Generated_Source\PSoC4/BLE_HAL_PVT.c ****     CY_SET_REG32(blessAddr, regValue);
 483              		.loc 1 262 0
 484 000e BB1C     		add	r3, r7, #2
 485 0010 1A88     		ldrh	r2, [r3]
 486 0012 7B68     		ldr	r3, [r7, #4]
 487 0014 1A60     		str	r2, [r3]
 263:.\Generated_Source\PSoC4/BLE_HAL_PVT.c **** }
 488              		.loc 1 263 0
 489 0016 BD46     		mov	sp, r7
 490 0018 02B0     		add	sp, sp, #8
 491              		@ sp needed
 492 001a 80BD     		pop	{r7, pc}
 493              		.cfi_endproc
 494              	.LFE5:
 495              		.size	CyBLE_Bless_LlRegWrite, .-CyBLE_Bless_LlRegWrite
 496              		.section	.text.CyBLE_Bless_RfRegRead,"ax",%progbits
 497              		.align	2
 498              		.global	CyBLE_Bless_RfRegRead
 499              		.code	16
 500              		.thumb_func
 501              		.type	CyBLE_Bless_RfRegRead, %function
 502              	CyBLE_Bless_RfRegRead:
 503              	.LFB6:
 264:.\Generated_Source\PSoC4/BLE_HAL_PVT.c **** 
 265:.\Generated_Source\PSoC4/BLE_HAL_PVT.c **** 
 266:.\Generated_Source\PSoC4/BLE_HAL_PVT.c **** /*******************************************************************************
 267:.\Generated_Source\PSoC4/BLE_HAL_PVT.c **** * Function Name: CyBLE_Bless_RfRegRead
 268:.\Generated_Source\PSoC4/BLE_HAL_PVT.c **** ****************************************************************************//**
 269:.\Generated_Source\PSoC4/BLE_HAL_PVT.c **** *
 270:.\Generated_Source\PSoC4/BLE_HAL_PVT.c **** *  This API reads the content of the BLESS RF register from the stack.
 271:.\Generated_Source\PSoC4/BLE_HAL_PVT.c **** *
 272:.\Generated_Source\PSoC4/BLE_HAL_PVT.c **** *  \param blessAddr: the pointer to BLESS RF register address.
 273:.\Generated_Source\PSoC4/BLE_HAL_PVT.c **** *  \param regValue: the pointer to the buffer space to copy the read value.
 274:.\Generated_Source\PSoC4/BLE_HAL_PVT.c **** *
 275:.\Generated_Source\PSoC4/BLE_HAL_PVT.c **** * \return
 276:.\Generated_Source\PSoC4/BLE_HAL_PVT.c **** *  None
 277:.\Generated_Source\PSoC4/BLE_HAL_PVT.c **** *
 278:.\Generated_Source\PSoC4/BLE_HAL_PVT.c **** *******************************************************************************/
 279:.\Generated_Source\PSoC4/BLE_HAL_PVT.c **** void CyBLE_Bless_RfRegRead (const reg32 *blessAddr, uint16 *regValue)
 280:.\Generated_Source\PSoC4/BLE_HAL_PVT.c **** {
 504              		.loc 1 280 0
 505              		.cfi_startproc
 506 0000 80B5     		push	{r7, lr}
 507              		.cfi_def_cfa_offset 8
 508              		.cfi_offset 7, -8
 509              		.cfi_offset 14, -4
 510 0002 82B0     		sub	sp, sp, #8
 511              		.cfi_def_cfa_offset 16
 512 0004 00AF     		add	r7, sp, #0
 513              		.cfi_def_cfa_register 7
ARM GAS  C:\Users\YBOURA~1\AppData\Local\Temp\ccGpkK9v.s 			page 15


 514 0006 7860     		str	r0, [r7, #4]
 515 0008 3960     		str	r1, [r7]
 281:.\Generated_Source\PSoC4/BLE_HAL_PVT.c ****     *regValue = (uint16)CY_GET_REG32(blessAddr);
 516              		.loc 1 281 0
 517 000a 7B68     		ldr	r3, [r7, #4]
 518 000c 1B68     		ldr	r3, [r3]
 519 000e 9AB2     		uxth	r2, r3
 520 0010 3B68     		ldr	r3, [r7]
 521 0012 1A80     		strh	r2, [r3]
 282:.\Generated_Source\PSoC4/BLE_HAL_PVT.c **** }
 522              		.loc 1 282 0
 523 0014 BD46     		mov	sp, r7
 524 0016 02B0     		add	sp, sp, #8
 525              		@ sp needed
 526 0018 80BD     		pop	{r7, pc}
 527              		.cfi_endproc
 528              	.LFE6:
 529              		.size	CyBLE_Bless_RfRegRead, .-CyBLE_Bless_RfRegRead
 530 001a C046     		.section	.text.CyBLE_Bless_RfRegWrite,"ax",%progbits
 531              		.align	2
 532              		.global	CyBLE_Bless_RfRegWrite
 533              		.code	16
 534              		.thumb_func
 535              		.type	CyBLE_Bless_RfRegWrite, %function
 536              	CyBLE_Bless_RfRegWrite:
 537              	.LFB7:
 283:.\Generated_Source\PSoC4/BLE_HAL_PVT.c **** 
 284:.\Generated_Source\PSoC4/BLE_HAL_PVT.c **** 
 285:.\Generated_Source\PSoC4/BLE_HAL_PVT.c **** /*******************************************************************************
 286:.\Generated_Source\PSoC4/BLE_HAL_PVT.c **** * Function Name: CyBLE_Bless_RfRegWrite
 287:.\Generated_Source\PSoC4/BLE_HAL_PVT.c **** ****************************************************************************//**
 288:.\Generated_Source\PSoC4/BLE_HAL_PVT.c **** *
 289:.\Generated_Source\PSoC4/BLE_HAL_PVT.c **** *  This API writes to the BLESS RF register from the stack.
 290:.\Generated_Source\PSoC4/BLE_HAL_PVT.c **** *
 291:.\Generated_Source\PSoC4/BLE_HAL_PVT.c **** *  \param blessAddr: the pointer to the BLESS RF address.
 292:.\Generated_Source\PSoC4/BLE_HAL_PVT.c **** *  \param regValue: the pointer to the value to be written to the BLESS RF reg.
 293:.\Generated_Source\PSoC4/BLE_HAL_PVT.c **** *
 294:.\Generated_Source\PSoC4/BLE_HAL_PVT.c **** * \return
 295:.\Generated_Source\PSoC4/BLE_HAL_PVT.c **** *  None
 296:.\Generated_Source\PSoC4/BLE_HAL_PVT.c **** *
 297:.\Generated_Source\PSoC4/BLE_HAL_PVT.c **** *******************************************************************************/
 298:.\Generated_Source\PSoC4/BLE_HAL_PVT.c **** void CyBLE_Bless_RfRegWrite (reg32 *blessAddr, const uint16 regValue)
 299:.\Generated_Source\PSoC4/BLE_HAL_PVT.c **** {
 538              		.loc 1 299 0
 539              		.cfi_startproc
 540 0000 80B5     		push	{r7, lr}
 541              		.cfi_def_cfa_offset 8
 542              		.cfi_offset 7, -8
 543              		.cfi_offset 14, -4
 544 0002 82B0     		sub	sp, sp, #8
 545              		.cfi_def_cfa_offset 16
 546 0004 00AF     		add	r7, sp, #0
 547              		.cfi_def_cfa_register 7
 548 0006 7860     		str	r0, [r7, #4]
 549 0008 0A1C     		mov	r2, r1
 550 000a BB1C     		add	r3, r7, #2
 551 000c 1A80     		strh	r2, [r3]
ARM GAS  C:\Users\YBOURA~1\AppData\Local\Temp\ccGpkK9v.s 			page 16


 300:.\Generated_Source\PSoC4/BLE_HAL_PVT.c ****      CY_SET_REG32(blessAddr, regValue);
 552              		.loc 1 300 0
 553 000e BB1C     		add	r3, r7, #2
 554 0010 1A88     		ldrh	r2, [r3]
 555 0012 7B68     		ldr	r3, [r7, #4]
 556 0014 1A60     		str	r2, [r3]
 301:.\Generated_Source\PSoC4/BLE_HAL_PVT.c **** }
 557              		.loc 1 301 0
 558 0016 BD46     		mov	sp, r7
 559 0018 02B0     		add	sp, sp, #8
 560              		@ sp needed
 561 001a 80BD     		pop	{r7, pc}
 562              		.cfi_endproc
 563              	.LFE7:
 564              		.size	CyBLE_Bless_RfRegWrite, .-CyBLE_Bless_RfRegWrite
 565              		.section	.text.CyBLE_BlessDeviceConfig,"ax",%progbits
 566              		.align	2
 567              		.global	CyBLE_BlessDeviceConfig
 568              		.code	16
 569              		.thumb_func
 570              		.type	CyBLE_BlessDeviceConfig, %function
 571              	CyBLE_BlessDeviceConfig:
 572              	.LFB8:
 302:.\Generated_Source\PSoC4/BLE_HAL_PVT.c **** 
 303:.\Generated_Source\PSoC4/BLE_HAL_PVT.c **** 
 304:.\Generated_Source\PSoC4/BLE_HAL_PVT.c **** void CyBLE_BlessDeviceConfig(void)
 305:.\Generated_Source\PSoC4/BLE_HAL_PVT.c **** {
 573              		.loc 1 305 0
 574              		.cfi_startproc
 575 0000 80B5     		push	{r7, lr}
 576              		.cfi_def_cfa_offset 8
 577              		.cfi_offset 7, -8
 578              		.cfi_offset 14, -4
 579 0002 82B0     		sub	sp, sp, #8
 580              		.cfi_def_cfa_offset 16
 581 0004 00AF     		add	r7, sp, #0
 582              		.cfi_def_cfa_register 7
 306:.\Generated_Source\PSoC4/BLE_HAL_PVT.c ****     uint32 trimRegValue;
 307:.\Generated_Source\PSoC4/BLE_HAL_PVT.c ****     uint32 ldo;
 308:.\Generated_Source\PSoC4/BLE_HAL_PVT.c **** 
 309:.\Generated_Source\PSoC4/BLE_HAL_PVT.c ****     trimRegValue = ((uint32)CYBLE_SFLASH_BLESS_BB_BUMP2_HIGH_REG << 8u) | CYBLE_SFLASH_BLESS_BB_BUM
 583              		.loc 1 309 0
 584 0006 304B     		ldr	r3, .L35
 585 0008 1B78     		ldrb	r3, [r3]
 586 000a DBB2     		uxtb	r3, r3
 587 000c 1B02     		lsl	r3, r3, #8
 588 000e 2F4A     		ldr	r2, .L35+4
 589 0010 1278     		ldrb	r2, [r2]
 590 0012 D2B2     		uxtb	r2, r2
 591 0014 1343     		orr	r3, r2
 592 0016 7B60     		str	r3, [r7, #4]
 310:.\Generated_Source\PSoC4/BLE_HAL_PVT.c ****     ldo = ((uint32)CYBLE_SFLASH_BLESS_LDO_HIGH_REG << 8u) | CYBLE_SFLASH_BLESS_LDO_LOW_REG;
 593              		.loc 1 310 0
 594 0018 2D4B     		ldr	r3, .L35+8
 595 001a 1B78     		ldrb	r3, [r3]
 596 001c DBB2     		uxtb	r3, r3
 597 001e 1B02     		lsl	r3, r3, #8
ARM GAS  C:\Users\YBOURA~1\AppData\Local\Temp\ccGpkK9v.s 			page 17


 598 0020 2C4A     		ldr	r2, .L35+12
 599 0022 1278     		ldrb	r2, [r2]
 600 0024 D2B2     		uxtb	r2, r2
 601 0026 1343     		orr	r3, r2
 602 0028 3B60     		str	r3, [r7]
 311:.\Generated_Source\PSoC4/BLE_HAL_PVT.c **** 
 312:.\Generated_Source\PSoC4/BLE_HAL_PVT.c ****     if ((ldo == CYBLE_SFLASH_BLERD_LDO_REG_VAL1) && (trimRegValue == CYBLE_SFLASH_BLERD_BB_BUMP2_RE
 603              		.loc 1 312 0
 604 002a 3B68     		ldr	r3, [r7]
 605 002c 2A4A     		ldr	r2, .L35+16
 606 002e 9342     		cmp	r3, r2
 607 0030 07D1     		bne	.L29
 608              		.loc 1 312 0 is_stmt 0 discriminator 1
 609 0032 7B68     		ldr	r3, [r7, #4]
 610 0034 072B     		cmp	r3, #7
 611 0036 04D1     		bne	.L29
 313:.\Generated_Source\PSoC4/BLE_HAL_PVT.c ****     {
 314:.\Generated_Source\PSoC4/BLE_HAL_PVT.c ****         ldo = CYBLE_BLERD_LDO_REG_VAL_FINAL;
 612              		.loc 1 314 0 is_stmt 1
 613 0038 284B     		ldr	r3, .L35+20
 614 003a 3B60     		str	r3, [r7]
 315:.\Generated_Source\PSoC4/BLE_HAL_PVT.c ****         trimRegValue = CYBLE_BLERD_BB_BUMP2_REG_VAL_FINAL;
 615              		.loc 1 315 0
 616 003c 0423     		mov	r3, #4
 617 003e 7B60     		str	r3, [r7, #4]
 618 0040 09E0     		b	.L30
 619              	.L29:
 316:.\Generated_Source\PSoC4/BLE_HAL_PVT.c ****     }
 317:.\Generated_Source\PSoC4/BLE_HAL_PVT.c ****     else if ((ldo == CYBLE_SFLASH_BLERD_LDO_REG_VAL2) && (trimRegValue == CYBLE_BLERD_BB_BUMP2_REG_
 620              		.loc 1 317 0
 621 0042 3A68     		ldr	r2, [r7]
 622 0044 D423     		mov	r3, #212
 623 0046 1B01     		lsl	r3, r3, #4
 624 0048 9A42     		cmp	r2, r3
 625 004a 04D1     		bne	.L30
 626              		.loc 1 317 0 is_stmt 0 discriminator 1
 627 004c 7B68     		ldr	r3, [r7, #4]
 628 004e 042B     		cmp	r3, #4
 629 0050 01D1     		bne	.L30
 318:.\Generated_Source\PSoC4/BLE_HAL_PVT.c ****     {
 319:.\Generated_Source\PSoC4/BLE_HAL_PVT.c ****         ldo = CYBLE_BLERD_LDO_REG_VAL_FINAL;
 630              		.loc 1 319 0 is_stmt 1
 631 0052 224B     		ldr	r3, .L35+20
 632 0054 3B60     		str	r3, [r7]
 633              	.L30:
 320:.\Generated_Source\PSoC4/BLE_HAL_PVT.c ****     }
 321:.\Generated_Source\PSoC4/BLE_HAL_PVT.c ****     else
 322:.\Generated_Source\PSoC4/BLE_HAL_PVT.c ****     {
 323:.\Generated_Source\PSoC4/BLE_HAL_PVT.c ****     }
 324:.\Generated_Source\PSoC4/BLE_HAL_PVT.c **** 
 325:.\Generated_Source\PSoC4/BLE_HAL_PVT.c ****     CYBLE_BLE_BLERD_LDO_REG = ldo;
 634              		.loc 1 325 0
 635 0056 224B     		ldr	r3, .L35+24
 636 0058 3A68     		ldr	r2, [r7]
 637 005a 1A60     		str	r2, [r3]
 326:.\Generated_Source\PSoC4/BLE_HAL_PVT.c ****     CYBLE_BLE_BLERD_BB_BUMP2_REG = trimRegValue;
 638              		.loc 1 326 0
ARM GAS  C:\Users\YBOURA~1\AppData\Local\Temp\ccGpkK9v.s 			page 18


 639 005c 214B     		ldr	r3, .L35+28
 640 005e 7A68     		ldr	r2, [r7, #4]
 641 0060 1A60     		str	r2, [r3]
 327:.\Generated_Source\PSoC4/BLE_HAL_PVT.c **** 
 328:.\Generated_Source\PSoC4/BLE_HAL_PVT.c ****     /* Edit only XTAL fast charge bit */
 329:.\Generated_Source\PSoC4/BLE_HAL_PVT.c ****     trimRegValue = ((uint32)CYBLE_SFLASH_BLESS_BB_XO_HIGH_REG << 8u) | CYBLE_SFLASH_BLESS_BB_XO_LOW
 642              		.loc 1 329 0
 643 0062 214B     		ldr	r3, .L35+32
 644 0064 1B78     		ldrb	r3, [r3]
 645 0066 DBB2     		uxtb	r3, r3
 646 0068 1B02     		lsl	r3, r3, #8
 647 006a 204A     		ldr	r2, .L35+36
 648 006c 1278     		ldrb	r2, [r2]
 649 006e D2B2     		uxtb	r2, r2
 650 0070 1343     		orr	r3, r2
 651 0072 7B60     		str	r3, [r7, #4]
 330:.\Generated_Source\PSoC4/BLE_HAL_PVT.c **** 
 331:.\Generated_Source\PSoC4/BLE_HAL_PVT.c ****     if ((trimRegValue == CYBLE_SFLASH_BLERD_BB_XO_REG_VAL1) || (trimRegValue == CYBLE_SFLASH_BLERD_
 652              		.loc 1 331 0
 653 0074 7A68     		ldr	r2, [r7, #4]
 654 0076 8023     		mov	r3, #128
 655 0078 9B01     		lsl	r3, r3, #6
 656 007a 9A42     		cmp	r2, r3
 657 007c 02D0     		beq	.L31
 658              		.loc 1 331 0 is_stmt 0 discriminator 1
 659 007e 7B68     		ldr	r3, [r7, #4]
 660 0080 002B     		cmp	r3, #0
 661 0082 01D1     		bne	.L32
 662              	.L31:
 332:.\Generated_Source\PSoC4/BLE_HAL_PVT.c ****     {
 333:.\Generated_Source\PSoC4/BLE_HAL_PVT.c ****         trimRegValue = CYBLE_BLERD_BB_XO_REG_VAL_FINAL;
 663              		.loc 1 333 0 is_stmt 1
 664 0084 1A4B     		ldr	r3, .L35+40
 665 0086 7B60     		str	r3, [r7, #4]
 666              	.L32:
 334:.\Generated_Source\PSoC4/BLE_HAL_PVT.c ****     }
 335:.\Generated_Source\PSoC4/BLE_HAL_PVT.c ****     
 336:.\Generated_Source\PSoC4/BLE_HAL_PVT.c ****     CYBLE_BLE_BLERD_BB_XO_REG = trimRegValue;
 667              		.loc 1 336 0
 668 0088 1A4B     		ldr	r3, .L35+44
 669 008a 7A68     		ldr	r2, [r7, #4]
 670 008c 1A60     		str	r2, [r3]
 337:.\Generated_Source\PSoC4/BLE_HAL_PVT.c ****     
 338:.\Generated_Source\PSoC4/BLE_HAL_PVT.c ****     trimRegValue = ((uint32)CYBLE_SFLASH_BLESS_SY_BUMP1_HIGH_REG << 8u) | CYBLE_SFLASH_BLESS_SY_BUM
 671              		.loc 1 338 0
 672 008e 1A4B     		ldr	r3, .L35+48
 673 0090 1B78     		ldrb	r3, [r3]
 674 0092 DBB2     		uxtb	r3, r3
 675 0094 1B02     		lsl	r3, r3, #8
 676 0096 194A     		ldr	r2, .L35+52
 677 0098 1278     		ldrb	r2, [r2]
 678 009a D2B2     		uxtb	r2, r2
 679 009c 1343     		orr	r3, r2
 680 009e 7B60     		str	r3, [r7, #4]
 339:.\Generated_Source\PSoC4/BLE_HAL_PVT.c **** 
 340:.\Generated_Source\PSoC4/BLE_HAL_PVT.c ****     if ((trimRegValue == CYBLE_SFLASH_BLERD_SY_BUMP1_REG_VAL1) || 
 681              		.loc 1 340 0
ARM GAS  C:\Users\YBOURA~1\AppData\Local\Temp\ccGpkK9v.s 			page 19


 682 00a0 7B68     		ldr	r3, [r7, #4]
 683 00a2 174A     		ldr	r2, .L35+56
 684 00a4 9342     		cmp	r3, r2
 685 00a6 06D0     		beq	.L33
 686              		.loc 1 340 0 is_stmt 0 discriminator 1
 687 00a8 7B68     		ldr	r3, [r7, #4]
 688 00aa 164A     		ldr	r2, .L35+60
 689 00ac 9342     		cmp	r3, r2
 690 00ae 02D0     		beq	.L33
 341:.\Generated_Source\PSoC4/BLE_HAL_PVT.c ****         (trimRegValue == CYBLE_SFLASH_BLERD_SY_BUMP1_REG_VAL2) ||  
 691              		.loc 1 341 0 is_stmt 1
 692 00b0 7B68     		ldr	r3, [r7, #4]
 693 00b2 052B     		cmp	r3, #5
 694 00b4 01D1     		bne	.L34
 695              	.L33:
 342:.\Generated_Source\PSoC4/BLE_HAL_PVT.c ****         (trimRegValue == CYBLE_SFLASH_BLERD_SY_BUMP1_REG_VAL3))
 343:.\Generated_Source\PSoC4/BLE_HAL_PVT.c ****     {
 344:.\Generated_Source\PSoC4/BLE_HAL_PVT.c ****         trimRegValue = CYBLE_BLERD_SY_BUMP1_REG_VAL_FINAL;
 696              		.loc 1 344 0
 697 00b6 144B     		ldr	r3, .L35+64
 698 00b8 7B60     		str	r3, [r7, #4]
 699              	.L34:
 345:.\Generated_Source\PSoC4/BLE_HAL_PVT.c ****     }
 346:.\Generated_Source\PSoC4/BLE_HAL_PVT.c ****     CYBLE_BLE_BLERD_SY_BUMP1_REG = trimRegValue;
 700              		.loc 1 346 0
 701 00ba 144B     		ldr	r3, .L35+68
 702 00bc 7A68     		ldr	r2, [r7, #4]
 703 00be 1A60     		str	r2, [r3]
 347:.\Generated_Source\PSoC4/BLE_HAL_PVT.c ****       
 348:.\Generated_Source\PSoC4/BLE_HAL_PVT.c **** }
 704              		.loc 1 348 0
 705 00c0 BD46     		mov	sp, r7
 706 00c2 02B0     		add	sp, sp, #8
 707              		@ sp needed
 708 00c4 80BD     		pop	{r7, pc}
 709              	.L36:
 710 00c6 C046     		.align	2
 711              	.L35:
 712 00c8 D9F0FF0F 		.word	268431577
 713 00cc D8F0FF0F 		.word	268431576
 714 00d0 DFF0FF0F 		.word	268431583
 715 00d4 DEF0FF0F 		.word	268431582
 716 00d8 580B0000 		.word	2904
 717 00dc 580D0000 		.word	3416
 718 00e0 6C002E40 		.word	1076756588
 719 00e4 74002E40 		.word	1076756596
 720 00e8 DBF0FF0F 		.word	268431579
 721 00ec DAF0FF0F 		.word	268431578
 722 00f0 02200000 		.word	8194
 723 00f4 78002E40 		.word	1076756600
 724 00f8 DDF0FF0F 		.word	268431581
 725 00fc DCF0FF0F 		.word	268431580
 726 0100 0F0F0000 		.word	3855
 727 0104 05050000 		.word	1285
 728 0108 050F0000 		.word	3845
 729 010c 80002E40 		.word	1076756608
 730              		.cfi_endproc
ARM GAS  C:\Users\YBOURA~1\AppData\Local\Temp\ccGpkK9v.s 			page 20


 731              	.LFE8:
 732              		.size	CyBLE_BlessDeviceConfig, .-CyBLE_BlessDeviceConfig
 733              		.section	.text.CyBleHal_DelayUs,"ax",%progbits
 734              		.align	2
 735              		.global	CyBleHal_DelayUs
 736              		.code	16
 737              		.thumb_func
 738              		.type	CyBleHal_DelayUs, %function
 739              	CyBleHal_DelayUs:
 740              	.LFB9:
 349:.\Generated_Source\PSoC4/BLE_HAL_PVT.c **** 
 350:.\Generated_Source\PSoC4/BLE_HAL_PVT.c **** 
 351:.\Generated_Source\PSoC4/BLE_HAL_PVT.c **** void CyBleHal_DelayUs(uint16 delayVal)
 352:.\Generated_Source\PSoC4/BLE_HAL_PVT.c **** {
 741              		.loc 1 352 0
 742              		.cfi_startproc
 743 0000 80B5     		push	{r7, lr}
 744              		.cfi_def_cfa_offset 8
 745              		.cfi_offset 7, -8
 746              		.cfi_offset 14, -4
 747 0002 82B0     		sub	sp, sp, #8
 748              		.cfi_def_cfa_offset 16
 749 0004 00AF     		add	r7, sp, #0
 750              		.cfi_def_cfa_register 7
 751 0006 021C     		mov	r2, r0
 752 0008 BB1D     		add	r3, r7, #6
 753 000a 1A80     		strh	r2, [r3]
 353:.\Generated_Source\PSoC4/BLE_HAL_PVT.c ****     CyDelayUs(delayVal);
 754              		.loc 1 353 0
 755 000c BB1D     		add	r3, r7, #6
 756 000e 1B88     		ldrh	r3, [r3]
 757 0010 181C     		mov	r0, r3
 758 0012 FFF7FEFF 		bl	CyDelayUs
 354:.\Generated_Source\PSoC4/BLE_HAL_PVT.c **** }
 759              		.loc 1 354 0
 760 0016 BD46     		mov	sp, r7
 761 0018 02B0     		add	sp, sp, #8
 762              		@ sp needed
 763 001a 80BD     		pop	{r7, pc}
 764              		.cfi_endproc
 765              	.LFE9:
 766              		.size	CyBleHal_DelayUs, .-CyBleHal_DelayUs
 767              		.section	.text.CyBleHal_DelayMs,"ax",%progbits
 768              		.align	2
 769              		.global	CyBleHal_DelayMs
 770              		.code	16
 771              		.thumb_func
 772              		.type	CyBleHal_DelayMs, %function
 773              	CyBleHal_DelayMs:
 774              	.LFB10:
 355:.\Generated_Source\PSoC4/BLE_HAL_PVT.c **** 
 356:.\Generated_Source\PSoC4/BLE_HAL_PVT.c **** void CyBleHal_DelayMs(uint32 delayVal)
 357:.\Generated_Source\PSoC4/BLE_HAL_PVT.c **** {
 775              		.loc 1 357 0
 776              		.cfi_startproc
 777 0000 80B5     		push	{r7, lr}
 778              		.cfi_def_cfa_offset 8
ARM GAS  C:\Users\YBOURA~1\AppData\Local\Temp\ccGpkK9v.s 			page 21


 779              		.cfi_offset 7, -8
 780              		.cfi_offset 14, -4
 781 0002 82B0     		sub	sp, sp, #8
 782              		.cfi_def_cfa_offset 16
 783 0004 00AF     		add	r7, sp, #0
 784              		.cfi_def_cfa_register 7
 785 0006 7860     		str	r0, [r7, #4]
 358:.\Generated_Source\PSoC4/BLE_HAL_PVT.c ****     CyDelay(delayVal);
 786              		.loc 1 358 0
 787 0008 7B68     		ldr	r3, [r7, #4]
 788 000a 181C     		mov	r0, r3
 789 000c FFF7FEFF 		bl	CyDelay
 359:.\Generated_Source\PSoC4/BLE_HAL_PVT.c **** }
 790              		.loc 1 359 0
 791 0010 BD46     		mov	sp, r7
 792 0012 02B0     		add	sp, sp, #8
 793              		@ sp needed
 794 0014 80BD     		pop	{r7, pc}
 795              		.cfi_endproc
 796              	.LFE10:
 797              		.size	CyBleHal_DelayMs, .-CyBleHal_DelayMs
 798 0016 C046     		.section	.text.CyBleHal_EnableGlobalInterrupts,"ax",%progbits
 799              		.align	2
 800              		.global	CyBleHal_EnableGlobalInterrupts
 801              		.code	16
 802              		.thumb_func
 803              		.type	CyBleHal_EnableGlobalInterrupts, %function
 804              	CyBleHal_EnableGlobalInterrupts:
 805              	.LFB11:
 360:.\Generated_Source\PSoC4/BLE_HAL_PVT.c **** 
 361:.\Generated_Source\PSoC4/BLE_HAL_PVT.c **** void CyBleHal_EnableGlobalInterrupts(void)
 362:.\Generated_Source\PSoC4/BLE_HAL_PVT.c **** {
 806              		.loc 1 362 0
 807              		.cfi_startproc
 808 0000 80B5     		push	{r7, lr}
 809              		.cfi_def_cfa_offset 8
 810              		.cfi_offset 7, -8
 811              		.cfi_offset 14, -4
 812 0002 00AF     		add	r7, sp, #0
 813              		.cfi_def_cfa_register 7
 363:.\Generated_Source\PSoC4/BLE_HAL_PVT.c ****     BLE_bless_isr_Enable();
 814              		.loc 1 363 0
 815 0004 FFF7FEFF 		bl	BLE_bless_isr_Enable
 364:.\Generated_Source\PSoC4/BLE_HAL_PVT.c **** }
 816              		.loc 1 364 0
 817 0008 BD46     		mov	sp, r7
 818              		@ sp needed
 819 000a 80BD     		pop	{r7, pc}
 820              		.cfi_endproc
 821              	.LFE11:
 822              		.size	CyBleHal_EnableGlobalInterrupts, .-CyBleHal_EnableGlobalInterrupts
 823              		.section	.text.CyBleHal_DisableGlobalInterrupts,"ax",%progbits
 824              		.align	2
 825              		.global	CyBleHal_DisableGlobalInterrupts
 826              		.code	16
 827              		.thumb_func
 828              		.type	CyBleHal_DisableGlobalInterrupts, %function
ARM GAS  C:\Users\YBOURA~1\AppData\Local\Temp\ccGpkK9v.s 			page 22


 829              	CyBleHal_DisableGlobalInterrupts:
 830              	.LFB12:
 365:.\Generated_Source\PSoC4/BLE_HAL_PVT.c **** 
 366:.\Generated_Source\PSoC4/BLE_HAL_PVT.c **** void CyBleHal_DisableGlobalInterrupts(void)
 367:.\Generated_Source\PSoC4/BLE_HAL_PVT.c **** {
 831              		.loc 1 367 0
 832              		.cfi_startproc
 833 0000 80B5     		push	{r7, lr}
 834              		.cfi_def_cfa_offset 8
 835              		.cfi_offset 7, -8
 836              		.cfi_offset 14, -4
 837 0002 00AF     		add	r7, sp, #0
 838              		.cfi_def_cfa_register 7
 368:.\Generated_Source\PSoC4/BLE_HAL_PVT.c ****     BLE_bless_isr_Disable();
 839              		.loc 1 368 0
 840 0004 FFF7FEFF 		bl	BLE_bless_isr_Disable
 369:.\Generated_Source\PSoC4/BLE_HAL_PVT.c **** }
 841              		.loc 1 369 0
 842 0008 BD46     		mov	sp, r7
 843              		@ sp needed
 844 000a 80BD     		pop	{r7, pc}
 845              		.cfi_endproc
 846              	.LFE12:
 847              		.size	CyBleHal_DisableGlobalInterrupts, .-CyBleHal_DisableGlobalInterrupts
 848              		.section	.text.CyBle_HalInit,"ax",%progbits
 849              		.align	2
 850              		.global	CyBle_HalInit
 851              		.code	16
 852              		.thumb_func
 853              		.type	CyBle_HalInit, %function
 854              	CyBle_HalInit:
 855              	.LFB13:
 370:.\Generated_Source\PSoC4/BLE_HAL_PVT.c **** 
 371:.\Generated_Source\PSoC4/BLE_HAL_PVT.c **** void CyBle_HalInit(void)
 372:.\Generated_Source\PSoC4/BLE_HAL_PVT.c **** {
 856              		.loc 1 372 0
 857              		.cfi_startproc
 858 0000 80B5     		push	{r7, lr}
 859              		.cfi_def_cfa_offset 8
 860              		.cfi_offset 7, -8
 861              		.cfi_offset 14, -4
 862 0002 00AF     		add	r7, sp, #0
 863              		.cfi_def_cfa_register 7
 373:.\Generated_Source\PSoC4/BLE_HAL_PVT.c ****     /* For all we know the interrupt is active. */
 374:.\Generated_Source\PSoC4/BLE_HAL_PVT.c ****     BLE_bless_isr_Disable();
 864              		.loc 1 374 0
 865 0004 FFF7FEFF 		bl	BLE_bless_isr_Disable
 375:.\Generated_Source\PSoC4/BLE_HAL_PVT.c **** 
 376:.\Generated_Source\PSoC4/BLE_HAL_PVT.c ****     /* Set the ISR to point to the BLE_bless_isr Interrupt. */
 377:.\Generated_Source\PSoC4/BLE_HAL_PVT.c ****     BLE_bless_isr_SetVector(&CyBLE_Bless_Interrupt);
 866              		.loc 1 377 0
 867 0008 044B     		ldr	r3, .L42
 868 000a 181C     		mov	r0, r3
 869 000c FFF7FEFF 		bl	BLE_bless_isr_SetVector
 378:.\Generated_Source\PSoC4/BLE_HAL_PVT.c **** 
 379:.\Generated_Source\PSoC4/BLE_HAL_PVT.c ****     /* Set the priority. */
 380:.\Generated_Source\PSoC4/BLE_HAL_PVT.c ****     BLE_bless_isr_SetPriority((uint8)BLE_bless_isr_INTC_PRIOR_NUMBER);
ARM GAS  C:\Users\YBOURA~1\AppData\Local\Temp\ccGpkK9v.s 			page 23


 870              		.loc 1 380 0
 871 0010 0320     		mov	r0, #3
 872 0012 FFF7FEFF 		bl	BLE_bless_isr_SetPriority
 381:.\Generated_Source\PSoC4/BLE_HAL_PVT.c **** }
 873              		.loc 1 381 0
 874 0016 BD46     		mov	sp, r7
 875              		@ sp needed
 876 0018 80BD     		pop	{r7, pc}
 877              	.L43:
 878 001a C046     		.align	2
 879              	.L42:
 880 001c 00000000 		.word	CyBLE_Bless_Interrupt
 881              		.cfi_endproc
 882              	.LFE13:
 883              		.size	CyBle_HalInit, .-CyBle_HalInit
 884              		.section	.text.CYBLE_BlessStart,"ax",%progbits
 885              		.align	2
 886              		.global	CYBLE_BlessStart
 887              		.code	16
 888              		.thumb_func
 889              		.type	CYBLE_BlessStart, %function
 890              	CYBLE_BlessStart:
 891              	.LFB14:
 382:.\Generated_Source\PSoC4/BLE_HAL_PVT.c **** 
 383:.\Generated_Source\PSoC4/BLE_HAL_PVT.c **** /* Start Interrupt Controller API. */
 384:.\Generated_Source\PSoC4/BLE_HAL_PVT.c **** void CYBLE_BlessStart(void)
 385:.\Generated_Source\PSoC4/BLE_HAL_PVT.c **** {
 892              		.loc 1 385 0
 893              		.cfi_startproc
 894 0000 80B5     		push	{r7, lr}
 895              		.cfi_def_cfa_offset 8
 896              		.cfi_offset 7, -8
 897              		.cfi_offset 14, -4
 898 0002 00AF     		add	r7, sp, #0
 899              		.cfi_def_cfa_register 7
 386:.\Generated_Source\PSoC4/BLE_HAL_PVT.c ****     BLE_bless_isr_StartEx(&CyBLE_Bless_Interrupt);
 900              		.loc 1 386 0
 901 0004 024B     		ldr	r3, .L45
 902 0006 181C     		mov	r0, r3
 903 0008 FFF7FEFF 		bl	BLE_bless_isr_StartEx
 387:.\Generated_Source\PSoC4/BLE_HAL_PVT.c **** }
 904              		.loc 1 387 0
 905 000c BD46     		mov	sp, r7
 906              		@ sp needed
 907 000e 80BD     		pop	{r7, pc}
 908              	.L46:
 909              		.align	2
 910              	.L45:
 911 0010 00000000 		.word	CyBLE_Bless_Interrupt
 912              		.cfi_endproc
 913              	.LFE14:
 914              		.size	CYBLE_BlessStart, .-CYBLE_BlessStart
 915              		.text
 916              	.Letext0:
 917              		.file 2 ".\\Generated_Source\\PSoC4\\cytypes.h"