ARM GAS  C:\Users\YBOURA~1\AppData\Local\Temp\ccSu3Zx4.s 			page 1


   1              		.cpu cortex-m0
   2              		.fpu softvfp
   3              		.eabi_attribute 20, 1
   4              		.eabi_attribute 21, 1
   5              		.eabi_attribute 23, 3
   6              		.eabi_attribute 24, 1
   7              		.eabi_attribute 25, 1
   8              		.eabi_attribute 26, 1
   9              		.eabi_attribute 30, 6
  10              		.eabi_attribute 34, 0
  11              		.eabi_attribute 18, 4
  12              		.code	16
  13              		.file	"main.c"
  14              		.text
  15              	.Ltext0:
  16              		.cfi_sections	.debug_frame
  17              		.section	.rodata
  18              		.align	2
  19              	.LC1:
  20 0000 25322E32 		.ascii	"%2.2x%2.2x%2.2x%2.2x%2.2x%2.2x,\000"
  20      7825322E 
  20      32782532 
  20      2E327825 
  20      322E3278 
  21              		.align	2
  22              	.LC3:
  23 0020 25303278 		.ascii	"%02x,\000"
  23      2C00
  24 0026 0000     		.align	2
  25              	.LC5:
  26 0028 256900   		.ascii	"%i\000"
  27              		.section	.text.StackEventHandler,"ax",%progbits
  28              		.align	2
  29              		.global	StackEventHandler
  30              		.code	16
  31              		.thumb_func
  32              		.type	StackEventHandler, %function
  33              	StackEventHandler:
  34              	.LFB35:
  35              		.file 1 ".\\main.c"
   1:.\main.c      **** /*******************************************************************************
   2:.\main.c      **** * File Name: main.c
   3:.\main.c      **** *
   4:.\main.c      **** * Version: 1.1
   5:.\main.c      **** *
   6:.\main.c      **** * Description:
   7:.\main.c      **** *  This project demonstrates simultaneous usage of the BLE GAP Peripheral and 
   8:.\main.c      **** *  Broadcaster roles. The device would connect to a peer device, while also 
   9:.\main.c      **** *  broadcasting (non-connectable advertising) at the same time.
  10:.\main.c      **** *
  11:.\main.c      **** * Hardware Dependency:
  12:.\main.c      **** *  YABP-00102-A : Cypress EZ-BLE PRoC Bluetooth Evaluation Board
  13:.\main.c      **** *  YP-01: USB to TTL
  14:.\main.c      **** *
  15:.\main.c      **** ********************************************************************************
  16:.\main.c      **** * Copyright (2016), YABTRONIX TECHNOLOGIES INC.
  17:.\main.c      **** ******************************************************************************
ARM GAS  C:\Users\YBOURA~1\AppData\Local\Temp\ccSu3Zx4.s 			page 2


  18:.\main.c      **** * By : Yvan Bourassa
  19:.\main.c      **** * Date: March 21, 2016
  20:.\main.c      **** *******************************************************************************/
  21:.\main.c      **** 
  22:.\main.c      **** /*******************************************************************************
  23:.\main.c      **** * Included headers
  24:.\main.c      **** *******************************************************************************/
  25:.\main.c      **** #include <project.h>
  26:.\main.c      **** #include <stdio.h>
  27:.\main.c      **** #include <common.h>
  28:.\main.c      **** 
  29:.\main.c      **** /***************************************
  30:.\main.c      **** *        Function Prototypes
  31:.\main.c      **** ***************************************/
  32:.\main.c      **** void StackEventHandler(uint32 event, void* eventParam);
  33:.\main.c      **** 
  34:.\main.c      **** /*******************************************************************************
  35:.\main.c      **** * Function Name: StackEventHandler
  36:.\main.c      **** ********************************************************************************
  37:.\main.c      **** *
  38:.\main.c      **** * Summary:
  39:.\main.c      **** *  This is an event callback function to receive events from the CYBLE Component.
  40:.\main.c      **** *
  41:.\main.c      **** * Parameters:
  42:.\main.c      **** *  uint8 event:       Event from the CYBLE component.
  43:.\main.c      **** *  void* eventParams: A structure instance for corresponding event type. The
  44:.\main.c      **** *                     list of event structure is described in the component
  45:.\main.c      **** *                     datasheet.
  46:.\main.c      **** *
  47:.\main.c      **** * Return:
  48:.\main.c      **** *  None
  49:.\main.c      **** *
  50:.\main.c      **** *******************************************************************************/
  51:.\main.c      **** void StackEventHandler(uint32 event, void* eventParam)
  52:.\main.c      **** {
  36              		.loc 1 52 0
  37              		.cfi_startproc
  38 0000 F0B5     		push	{r4, r5, r6, r7, lr}
  39              		.cfi_def_cfa_offset 20
  40              		.cfi_offset 4, -20
  41              		.cfi_offset 5, -16
  42              		.cfi_offset 6, -12
  43              		.cfi_offset 7, -8
  44              		.cfi_offset 14, -4
  45 0002 8DB0     		sub	sp, sp, #52
  46              		.cfi_def_cfa_offset 72
  47 0004 04AF     		add	r7, sp, #16
  48              		.cfi_def_cfa 7, 56
  49 0006 7860     		str	r0, [r7, #4]
  50 0008 3960     		str	r1, [r7]
  53:.\main.c      ****     /*local variables*/
  54:.\main.c      ****    CYBLE_GAPC_ADV_REPORT_T advReport;
  55:.\main.c      ****    uint8 i;
  56:.\main.c      ****      
  57:.\main.c      ****     switch(event)
  51              		.loc 1 57 0
  52 000a 7B68     		ldr	r3, [r7, #4]
ARM GAS  C:\Users\YBOURA~1\AppData\Local\Temp\ccSu3Zx4.s 			page 3


  53 000c 202B     		cmp	r3, #32
  54 000e 09D0     		beq	.L3
  55 0010 2B2B     		cmp	r3, #43
  56 0012 00D1     		bne	.LCB21
  57 0014 7BE0     		b	.L4	@long jump
  58              	.LCB21:
  59 0016 012B     		cmp	r3, #1
  60 0018 00D0     		beq	.L5
  58:.\main.c      ****     {
  59:.\main.c      ****         
  60:.\main.c      ****         case CYBLE_EVT_STACK_ON:    /*BLE stack ON*/
  61:.\main.c      ****         
  62:.\main.c      ****                 //printf("Bluetooth ON:\r\n");
  63:.\main.c      ****                 /*Start Scanning*/
  64:.\main.c      ****                 if(CYBLE_ERROR_OK==CyBle_GapcStartScan(CYBLE_SCANNING_SLOW))
  65:.\main.c      ****                 {
  66:.\main.c      ****                     //printf("Sarted to Scan\r\n"); 
  67:.\main.c      ****                 }   
  68:.\main.c      ****                 
  69:.\main.c      ****             break;
  70:.\main.c      **** 
  71:.\main.c      ****         case CYBLE_EVT_GAPC_SCAN_PROGRESS_RESULT:  
  72:.\main.c      ****                 
  73:.\main.c      ****                 /* scan progress result event occurs 
  74:.\main.c      ****                  * when it receives any advertisiment packet
  75:.\main.c      ****                  * or scan response packet from peer device*/
  76:.\main.c      ****                 
  77:.\main.c      ****                 advReport=*(CYBLE_GAPC_ADV_REPORT_T *)eventParam;
  78:.\main.c      **** 
  79:.\main.c      ****                 //printf("CYBLE_EVT_GAPC_SCAN_PROGRESS_RESULT:\r\n");
  80:.\main.c      ****                 /* Print the Advertising Event details of peer device:*/
  81:.\main.c      ****                 //printf("eventType:");
  82:.\main.c      ****                 
  83:.\main.c      ****                 //************************************************
  84:.\main.c      ****                 /* REPLACE THIS BY JSON FORMAT */
  85:.\main.c      ****                 //************************************************
  86:.\main.c      ****                 
  87:.\main.c      ****                 switch(advReport.eventType)
  88:.\main.c      ****                 {
  89:.\main.c      ****                     case CYBLE_GAPC_CONN_UNDIRECTED_ADV: 
  90:.\main.c      ****                         
  91:.\main.c      ****                          //printf("Connectable undirected advertising\r\n");
  92:.\main.c      ****                         break;
  93:.\main.c      ****                         
  94:.\main.c      ****                     case  CYBLE_GAPC_CONN_DIRECTED_ADV:
  95:.\main.c      ****                          
  96:.\main.c      ****                          //printf("Connectable directed advertising\r\n");
  97:.\main.c      ****                         break;
  98:.\main.c      ****                     
  99:.\main.c      ****                     case  CYBLE_GAPC_SCAN_UNDIRECTED_ADV:
 100:.\main.c      ****                         
 101:.\main.c      ****                          //printf("Scannable undirected advertising\r\n");
 102:.\main.c      ****                         break;
 103:.\main.c      ****                      
 104:.\main.c      ****                     case CYBLE_GAPC_NON_CONN_UNDIRECTED_ADV:
 105:.\main.c      ****                         
 106:.\main.c      ****                           //printf("Non connectable undirected advertising\r\n");
ARM GAS  C:\Users\YBOURA~1\AppData\Local\Temp\ccSu3Zx4.s 			page 4


 107:.\main.c      ****                         break;
 108:.\main.c      ****                      
 109:.\main.c      ****                     case CYBLE_GAPC_SCAN_RSP:
 110:.\main.c      ****                         
 111:.\main.c      ****                           //printf("SCAN_RSP\r\n");
 112:.\main.c      ****                         break;
 113:.\main.c      ****                 }
 114:.\main.c      ****                 
 115:.\main.c      ****                 /*  PEER addr type  */
 116:.\main.c      ****                 //printf("    peerAddrType: ");
 117:.\main.c      ****                 
 118:.\main.c      ****                 if(advReport.peerAddrType==CYBLE_GAP_ADDR_TYPE_PUBLIC)
 119:.\main.c      ****                 {
 120:.\main.c      ****                     //printf("PUBLIC\r\n");
 121:.\main.c      ****                 }
 122:.\main.c      ****                 else if(advReport.peerAddrType==CYBLE_GAP_ADDR_TYPE_RANDOM)
 123:.\main.c      ****                 {
 124:.\main.c      ****                     //printf("RANDOM \r\n");
 125:.\main.c      ****                 }
 126:.\main.c      ****                 
 127:.\main.c      ****                  /*  PEER Device address type  */
 128:.\main.c      ****                 printf("%2.2x%2.2x%2.2x%2.2x%2.2x%2.2x,",
 129:.\main.c      ****                     advReport.peerBdAddr[5u], advReport.peerBdAddr[4u],
 130:.\main.c      ****                     advReport.peerBdAddr[3u], advReport.peerBdAddr[2u],
 131:.\main.c      ****                     advReport.peerBdAddr[1u], advReport.peerBdAddr[0u]);
 132:.\main.c      ****   
 133:.\main.c      ****                 /*  Advertising or scan response data  */
 134:.\main.c      ****                 //printf("    Peer device adveritsing/scan response data Length: %x \r\n", advRepor
 135:.\main.c      ****                 //printf("    advertising/scan response data of peer device: ");
 136:.\main.c      **** 
 137:.\main.c      ****                 if(advReport.dataLen!=0)
 138:.\main.c      ****                 {
 139:.\main.c      ****                     for(i = 0u; i < (advReport.dataLen); i++)
 140:.\main.c      ****                     {
 141:.\main.c      ****                         printf("%02x,", advReport.data[i]);
 142:.\main.c      ****                     }
 143:.\main.c      ****                 
 144:.\main.c      ****                 }
 145:.\main.c      ****            
 146:.\main.c      ****                 /*  RSSI of the received packet from peer Device  */
 147:.\main.c      ****                 printf("%i", (advReport.rssi));
 148:.\main.c      ****                 printf("\n");
 149:.\main.c      ****                 
 150:.\main.c      ****                 /*   Stop GAP for next scan */
 151:.\main.c      ****                 CyBle_GapcStopScan();
 152:.\main.c      ****                 
 153:.\main.c      ****             break;  
 154:.\main.c      ****                 
 155:.\main.c      ****          case  CYBLE_EVT_GAPC_SCAN_START_STOP:
 156:.\main.c      ****                 
 157:.\main.c      ****                 if(CyBle_GetState()==CYBLE_STATE_DISCONNECTED)
 158:.\main.c      ****                 {   /*Restart scanning if time out happens*/
 159:.\main.c      ****                     CyBle_GapcStartScan(CYBLE_SCANNING_SLOW);
 160:.\main.c      ****                 }
 161:.\main.c      ****             break;
 162:.\main.c      ****                 
 163:.\main.c      ****         default:
ARM GAS  C:\Users\YBOURA~1\AppData\Local\Temp\ccSu3Zx4.s 			page 5


 164:.\main.c      ****             break;
  61              		.loc 1 164 0
  62 001a 81E0     		b	.L1
  63              	.L5:
  64:.\main.c      ****                 {
  64              		.loc 1 64 0
  65 001c 0120     		mov	r0, #1
  66 001e FFF7FEFF 		bl	CyBle_GapcStartScan
  69:.\main.c      **** 
  67              		.loc 1 69 0
  68 0022 7DE0     		b	.L1
  69              	.L3:
  77:.\main.c      **** 
  70              		.loc 1 77 0
  71 0024 0823     		mov	r3, #8
  72 0026 FB18     		add	r3, r7, r3
  73 0028 3A68     		ldr	r2, [r7]
  74 002a 13CA     		ldmia	r2!, {r0, r1, r4}
  75 002c 13C3     		stmia	r3!, {r0, r1, r4}
  76 002e 03CA     		ldmia	r2!, {r0, r1}
  77 0030 03C3     		stmia	r3!, {r0, r1}
  87:.\main.c      ****                 {
  78              		.loc 1 87 0
  79 0032 0823     		mov	r3, #8
  80 0034 FB18     		add	r3, r7, r3
  81 0036 1B78     		ldrb	r3, [r3]
  82 0038 042B     		cmp	r3, #4
  83 003a 05D8     		bhi	.L7
  84 003c 9A00     		lsl	r2, r3, #2
  85 003e 3A4B     		ldr	r3, .L21
  86 0040 D318     		add	r3, r2, r3
  87 0042 1B68     		ldr	r3, [r3]
  88 0044 9F46     		mov	pc, r3
  89              		.section	.rodata
  90 002b 00       		.align	2
  91              	.L9:
  92 002c 46000000 		.word	.L19
  93 0030 46000000 		.word	.L19
  94 0034 46000000 		.word	.L19
  95 0038 46000000 		.word	.L19
  96 003c 46000000 		.word	.L19
  97              		.section	.text.StackEventHandler
  98              	.L19:
 112:.\main.c      ****                 }
  99              		.loc 1 112 0
 100 0046 C046     		mov	r8, r8
 101              	.L7:
 129:.\main.c      ****                     advReport.peerBdAddr[3u], advReport.peerBdAddr[2u],
 102              		.loc 1 129 0
 103 0048 0823     		mov	r3, #8
 104 004a FB18     		add	r3, r7, r3
 105 004c 5B68     		ldr	r3, [r3, #4]
 106 004e 0533     		add	r3, r3, #5
 107 0050 1B78     		ldrb	r3, [r3]
 128:.\main.c      ****                     advReport.peerBdAddr[5u], advReport.peerBdAddr[4u],
 108              		.loc 1 128 0
 109 0052 1E1C     		mov	r6, r3
ARM GAS  C:\Users\YBOURA~1\AppData\Local\Temp\ccSu3Zx4.s 			page 6


 129:.\main.c      ****                     advReport.peerBdAddr[3u], advReport.peerBdAddr[2u],
 110              		.loc 1 129 0
 111 0054 0823     		mov	r3, #8
 112 0056 FB18     		add	r3, r7, r3
 113 0058 5B68     		ldr	r3, [r3, #4]
 114 005a 0433     		add	r3, r3, #4
 115 005c 1B78     		ldrb	r3, [r3]
 128:.\main.c      ****                     advReport.peerBdAddr[5u], advReport.peerBdAddr[4u],
 116              		.loc 1 128 0
 117 005e 1D1C     		mov	r5, r3
 130:.\main.c      ****                     advReport.peerBdAddr[1u], advReport.peerBdAddr[0u]);
 118              		.loc 1 130 0
 119 0060 0823     		mov	r3, #8
 120 0062 FB18     		add	r3, r7, r3
 121 0064 5B68     		ldr	r3, [r3, #4]
 122 0066 0333     		add	r3, r3, #3
 123 0068 1B78     		ldrb	r3, [r3]
 128:.\main.c      ****                     advReport.peerBdAddr[5u], advReport.peerBdAddr[4u],
 124              		.loc 1 128 0
 125 006a 1C1C     		mov	r4, r3
 130:.\main.c      ****                     advReport.peerBdAddr[1u], advReport.peerBdAddr[0u]);
 126              		.loc 1 130 0
 127 006c 0823     		mov	r3, #8
 128 006e FB18     		add	r3, r7, r3
 129 0070 5B68     		ldr	r3, [r3, #4]
 130 0072 0233     		add	r3, r3, #2
 131 0074 1B78     		ldrb	r3, [r3]
 128:.\main.c      ****                     advReport.peerBdAddr[5u], advReport.peerBdAddr[4u],
 132              		.loc 1 128 0
 133 0076 181C     		mov	r0, r3
 131:.\main.c      ****   
 134              		.loc 1 131 0
 135 0078 0823     		mov	r3, #8
 136 007a FB18     		add	r3, r7, r3
 137 007c 5B68     		ldr	r3, [r3, #4]
 138 007e 0133     		add	r3, r3, #1
 139 0080 1B78     		ldrb	r3, [r3]
 128:.\main.c      ****                     advReport.peerBdAddr[5u], advReport.peerBdAddr[4u],
 140              		.loc 1 128 0
 141 0082 191C     		mov	r1, r3
 131:.\main.c      ****   
 142              		.loc 1 131 0
 143 0084 0823     		mov	r3, #8
 144 0086 FB18     		add	r3, r7, r3
 145 0088 5B68     		ldr	r3, [r3, #4]
 146 008a 1B78     		ldrb	r3, [r3]
 128:.\main.c      ****                     advReport.peerBdAddr[5u], advReport.peerBdAddr[4u],
 147              		.loc 1 128 0
 148 008c 1A1C     		mov	r2, r3
 149 008e 274B     		ldr	r3, .L21+4
 150 0090 0090     		str	r0, [sp]
 151 0092 0191     		str	r1, [sp, #4]
 152 0094 0292     		str	r2, [sp, #8]
 153 0096 181C     		mov	r0, r3
 154 0098 311C     		mov	r1, r6
 155 009a 2A1C     		mov	r2, r5
 156 009c 231C     		mov	r3, r4
ARM GAS  C:\Users\YBOURA~1\AppData\Local\Temp\ccSu3Zx4.s 			page 7


 157 009e FFF7FEFF 		bl	printf
 137:.\main.c      ****                 {
 158              		.loc 1 137 0
 159 00a2 0823     		mov	r3, #8
 160 00a4 FB18     		add	r3, r7, r3
 161 00a6 1B7A     		ldrb	r3, [r3, #8]
 162 00a8 002B     		cmp	r3, #0
 163 00aa 21D0     		beq	.L15
 139:.\main.c      ****                     {
 164              		.loc 1 139 0
 165 00ac 1F23     		mov	r3, #31
 166 00ae FB18     		add	r3, r7, r3
 167 00b0 0022     		mov	r2, #0
 168 00b2 1A70     		strb	r2, [r3]
 169 00b4 14E0     		b	.L16
 170              	.L17:
 141:.\main.c      ****                     }
 171              		.loc 1 141 0 discriminator 3
 172 00b6 0823     		mov	r3, #8
 173 00b8 FB18     		add	r3, r7, r3
 174 00ba DA68     		ldr	r2, [r3, #12]
 175 00bc 1F23     		mov	r3, #31
 176 00be FB18     		add	r3, r7, r3
 177 00c0 1B78     		ldrb	r3, [r3]
 178 00c2 D318     		add	r3, r2, r3
 179 00c4 1B78     		ldrb	r3, [r3]
 180 00c6 1A1C     		mov	r2, r3
 181 00c8 194B     		ldr	r3, .L21+8
 182 00ca 181C     		mov	r0, r3
 183 00cc 111C     		mov	r1, r2
 184 00ce FFF7FEFF 		bl	printf
 139:.\main.c      ****                     {
 185              		.loc 1 139 0 discriminator 3
 186 00d2 1F23     		mov	r3, #31
 187 00d4 FB18     		add	r3, r7, r3
 188 00d6 1A78     		ldrb	r2, [r3]
 189 00d8 1F23     		mov	r3, #31
 190 00da FB18     		add	r3, r7, r3
 191 00dc 0132     		add	r2, r2, #1
 192 00de 1A70     		strb	r2, [r3]
 193              	.L16:
 139:.\main.c      ****                     {
 194              		.loc 1 139 0 is_stmt 0 discriminator 1
 195 00e0 0823     		mov	r3, #8
 196 00e2 FB18     		add	r3, r7, r3
 197 00e4 1B7A     		ldrb	r3, [r3, #8]
 198 00e6 1F22     		mov	r2, #31
 199 00e8 BA18     		add	r2, r7, r2
 200 00ea 1278     		ldrb	r2, [r2]
 201 00ec 9A42     		cmp	r2, r3
 202 00ee E2D3     		bcc	.L17
 203              	.L15:
 147:.\main.c      ****                 printf("\n");
 204              		.loc 1 147 0 is_stmt 1
 205 00f0 0823     		mov	r3, #8
 206 00f2 FB18     		add	r3, r7, r3
 207 00f4 1B7C     		ldrb	r3, [r3, #16]
ARM GAS  C:\Users\YBOURA~1\AppData\Local\Temp\ccSu3Zx4.s 			page 8


 208 00f6 5BB2     		sxtb	r3, r3
 209 00f8 0E4A     		ldr	r2, .L21+12
 210 00fa 101C     		mov	r0, r2
 211 00fc 191C     		mov	r1, r3
 212 00fe FFF7FEFF 		bl	printf
 148:.\main.c      ****                 
 213              		.loc 1 148 0
 214 0102 0A20     		mov	r0, #10
 215 0104 FFF7FEFF 		bl	putchar
 151:.\main.c      ****                 
 216              		.loc 1 151 0
 217 0108 FFF7FEFF 		bl	CyBle_GapcStopScan
 153:.\main.c      ****                 
 218              		.loc 1 153 0
 219 010c 08E0     		b	.L1
 220              	.L4:
 157:.\main.c      ****                 {   /*Restart scanning if time out happens*/
 221              		.loc 1 157 0
 222 010e 0A4B     		ldr	r3, .L21+16
 223 0110 1B78     		ldrb	r3, [r3]
 224 0112 042B     		cmp	r3, #4
 225 0114 03D1     		bne	.L18
 159:.\main.c      ****                 }
 226              		.loc 1 159 0
 227 0116 0120     		mov	r0, #1
 228 0118 FFF7FEFF 		bl	CyBle_GapcStartScan
 161:.\main.c      ****                 
 229              		.loc 1 161 0
 230 011c FFE7     		b	.L20
 231              	.L18:
 232              	.L20:
 233 011e C046     		mov	r8, r8
 234              	.L1:
 165:.\main.c      ****     }
 166:.\main.c      **** }
 235              		.loc 1 166 0
 236 0120 BD46     		mov	sp, r7
 237 0122 09B0     		add	sp, sp, #36
 238              		@ sp needed
 239 0124 F0BD     		pop	{r4, r5, r6, r7, pc}
 240              	.L22:
 241 0126 C046     		.align	2
 242              	.L21:
 243 0128 2C000000 		.word	.L9
 244 012c 00000000 		.word	.LC1
 245 0130 20000000 		.word	.LC3
 246 0134 28000000 		.word	.LC5
 247 0138 00000000 		.word	cyBle_state
 248              		.cfi_endproc
 249              	.LFE35:
 250              		.size	StackEventHandler, .-StackEventHandler
 251              		.section	.text.main,"ax",%progbits
 252              		.align	2
 253              		.global	main
 254              		.code	16
 255              		.thumb_func
 256              		.type	main, %function
ARM GAS  C:\Users\YBOURA~1\AppData\Local\Temp\ccSu3Zx4.s 			page 9


 257              	main:
 258              	.LFB36:
 167:.\main.c      **** 
 168:.\main.c      **** /*******************************************************************************
 169:.\main.c      **** * Function Name: main
 170:.\main.c      **** ********************************************************************************
 171:.\main.c      **** *
 172:.\main.c      **** * Summary:
 173:.\main.c      **** *  Main function.
 174:.\main.c      **** *
 175:.\main.c      **** * Parameters:
 176:.\main.c      **** *  None
 177:.\main.c      **** *
 178:.\main.c      **** * Return:
 179:.\main.c      **** *  None
 180:.\main.c      **** *
 181:.\main.c      **** *******************************************************************************/
 182:.\main.c      **** 
 183:.\main.c      **** int main()
 184:.\main.c      **** {
 259              		.loc 1 184 0
 260              		.cfi_startproc
 261 0000 80B5     		push	{r7, lr}
 262              		.cfi_def_cfa_offset 8
 263              		.cfi_offset 7, -8
 264              		.cfi_offset 14, -4
 265 0002 00AF     		add	r7, sp, #0
 266              		.cfi_def_cfa_register 7
 185:.\main.c      ****     /* Variable declarations */
 186:.\main.c      ****     //CYBLE_LP_MODE_T lpMode;
 187:.\main.c      ****     //CYBLE_BLESS_STATE_T blessState;
 188:.\main.c      ****     //uint8 InterruptsStatus;    
 189:.\main.c      ****    
 190:.\main.c      ****     /* Start communication component */
 191:.\main.c      ****     UART_Start();
 267              		.loc 1 191 0
 268 0004 FFF7FEFF 		bl	UART_Start
 192:.\main.c      ****     
 193:.\main.c      ****     /* Enable global interrupts */
 194:.\main.c      ****     CyGlobalIntEnable;
 269              		.loc 1 194 0
 270              	@ 194 ".\main.c" 1
 271 0008 62B6     		CPSIE   i
 272              	@ 0 "" 2
 195:.\main.c      ****        
 196:.\main.c      ****     /* Internal low power oscillator is stopped as it is not used in this project */
 197:.\main.c      ****     CySysClkIloStop();
 273              		.loc 1 197 0
 274              		.code	16
 275 000a FFF7FEFF 		bl	CySysClkIloStop
 198:.\main.c      ****     
 199:.\main.c      ****     /* Set the divider for ECO, ECO will be used as source when IMO is switched off to save power,
 200:.\main.c      ****     **  to drive the HFCLK */
 201:.\main.c      ****     CySysClkWriteEcoDiv(CY_SYS_CLK_ECO_DIV8);
 276              		.loc 1 201 0
 277 000e 0320     		mov	r0, #3
 278 0010 FFF7FEFF 		bl	CySysClkWriteEcoDiv
ARM GAS  C:\Users\YBOURA~1\AppData\Local\Temp\ccSu3Zx4.s 			page 10


 202:.\main.c      ****    
 203:.\main.c      ****     CyBle_Start(StackEventHandler);
 279              		.loc 1 203 0
 280 0014 034B     		ldr	r3, .L25
 281 0016 181C     		mov	r0, r3
 282 0018 FFF7FEFF 		bl	CyBle_Start
 283              	.L24:
 204:.\main.c      ****     /*Infinite Loop*/
 205:.\main.c      ****     for(;;)
 206:.\main.c      ****     {
 207:.\main.c      ****         CyBle_ProcessEvents();
 284              		.loc 1 207 0 discriminator 1
 285 001c FFF7FEFF 		bl	CyBle_ProcessEvents
 208:.\main.c      ****     }
 286              		.loc 1 208 0 discriminator 1
 287 0020 FCE7     		b	.L24
 288              	.L26:
 289 0022 C046     		.align	2
 290              	.L25:
 291 0024 00000000 		.word	StackEventHandler
 292              		.cfi_endproc
 293              	.LFE36:
 294              		.size	main, .-main
 295              		.text
 296              	.Letext0:
 297              		.file 2 "Generated_Source\\PSoC4/cytypes.h"
 298              		.file 3 "Generated_Source\\PSoC4/BLE_Stack.h"
 299              		.file 4 "Generated_Source\\PSoC4/BLE_StackGap.h"
 300              		.file 5 "Generated_Source\\PSoC4/BLE_eventHandler.h"