ARM GAS  C:\Users\YBOURA~1\AppData\Local\Temp\cc3HigXd.s 			page 1


   1              		.cpu cortex-m0
   2              		.fpu softvfp
   3              		.eabi_attribute 20, 1
   4              		.eabi_attribute 21, 1
   5              		.eabi_attribute 23, 3
   6              		.eabi_attribute 24, 1
   7              		.eabi_attribute 25, 1
   8              		.eabi_attribute 26, 1
   9              		.eabi_attribute 30, 6
  10              		.eabi_attribute 34, 0
  11              		.eabi_attribute 18, 4
  12              		.code	16
  13              		.file	"BLE_eventHandler.c"
  14              		.text
  15              	.Ltext0:
  16              		.cfi_sections	.debug_frame
  17              		.comm	cyBle_connHandle,2,4
  18              		.comm	cyBle_eventHandlerFlag,1,1
  19              		.comm	cyBle_busyStatus,1,1
  20              		.comm	cyBle_scanningIntervalType,1,1
  21              		.comm	cyBle_disCount,1,1
  22              		.bss
  23              		.align	1
  24              	cyBle_charEndHandle:
  25 0000 0000     		.space	2
  26 0002 0000     		.align	2
  27              	cyBle_discInclInfo:
  28 0004 00000000 		.space	24
  28      00000000 
  28      00000000 
  28      00000000 
  28      00000000 
  29              		.global	cyBle_serverInfo
  30              		.data
  31              		.align	2
  32              		.type	cyBle_serverInfo, %object
  33              		.size	cyBle_serverInfo, 18
  34              	cyBle_serverInfo:
  35 0000 0000     		.short	0
  36 0002 0000     		.short	0
  37 0004 0018     		.short	6144
  38 0006 0000     		.short	0
  39 0008 0000     		.short	0
  40 000a 0118     		.short	6145
  41 000c 0000     		.short	0
  42 000e 0000     		.short	0
  43 0010 0000     		.short	0
  44              		.comm	cyBle_gapc,10,4
  45              		.global	cyBle_authInfo
  46 0012 0000     		.align	2
  47              		.type	cyBle_authInfo, %object
  48              		.size	cyBle_authInfo, 4
  49              	cyBle_authInfo:
  50 0014 10       		.byte	16
  51 0015 01       		.byte	1
  52 0016 10       		.byte	16
  53 0017 00       		.byte	0
ARM GAS  C:\Users\YBOURA~1\AppData\Local\Temp\cc3HigXd.s 			page 2


  54              		.section	.text.CyBle_WriteReqHandler,"ax",%progbits
  55              		.align	2
  56              		.code	16
  57              		.thumb_func
  58              		.type	CyBle_WriteReqHandler, %function
  59              	CyBle_WriteReqHandler:
  60              	.LFB2:
  61              		.file 1 ".\\Generated_Source\\PSoC4\\BLE_eventHandler.c"
   1:.\Generated_Source\PSoC4/BLE_eventHandler.c **** /***************************************************************************//**
   2:.\Generated_Source\PSoC4/BLE_eventHandler.c **** * \file CYBLE_eventHandler.c
   3:.\Generated_Source\PSoC4/BLE_eventHandler.c **** * \version 2.30
   4:.\Generated_Source\PSoC4/BLE_eventHandler.c **** * 
   5:.\Generated_Source\PSoC4/BLE_eventHandler.c **** * \brief
   6:.\Generated_Source\PSoC4/BLE_eventHandler.c **** *  This file contains the source code for the Event Handler State Machine
   7:.\Generated_Source\PSoC4/BLE_eventHandler.c **** *  of the BLE Component.
   8:.\Generated_Source\PSoC4/BLE_eventHandler.c **** * 
   9:.\Generated_Source\PSoC4/BLE_eventHandler.c **** ********************************************************************************
  10:.\Generated_Source\PSoC4/BLE_eventHandler.c **** * \copyright
  11:.\Generated_Source\PSoC4/BLE_eventHandler.c **** * Copyright 2014-2015, Cypress Semiconductor Corporation.  All rights reserved.
  12:.\Generated_Source\PSoC4/BLE_eventHandler.c **** * You may use this file only in accordance with the license, terms, conditions,
  13:.\Generated_Source\PSoC4/BLE_eventHandler.c **** * disclaimers, and limitations in the end user license agreement accompanying
  14:.\Generated_Source\PSoC4/BLE_eventHandler.c **** * the software package with which this file was provided.
  15:.\Generated_Source\PSoC4/BLE_eventHandler.c **** *******************************************************************************/
  16:.\Generated_Source\PSoC4/BLE_eventHandler.c **** 
  17:.\Generated_Source\PSoC4/BLE_eventHandler.c **** #include "BLE_eventHandler.h"
  18:.\Generated_Source\PSoC4/BLE_eventHandler.c **** 
  19:.\Generated_Source\PSoC4/BLE_eventHandler.c **** 
  20:.\Generated_Source\PSoC4/BLE_eventHandler.c **** /***************************************
  21:.\Generated_Source\PSoC4/BLE_eventHandler.c **** * Private Function Prototypes
  22:.\Generated_Source\PSoC4/BLE_eventHandler.c **** ***************************************/
  23:.\Generated_Source\PSoC4/BLE_eventHandler.c **** 
  24:.\Generated_Source\PSoC4/BLE_eventHandler.c **** #if (CYBLE_GATT_ROLE_SERVER || CYBLE_GATT_ROLE_CLIENT)
  25:.\Generated_Source\PSoC4/BLE_eventHandler.c **** 
  26:.\Generated_Source\PSoC4/BLE_eventHandler.c **** static uint8 CyBle_IsDeviceAddressValid(const CYBLE_GAP_BD_ADDR_T *sflashDeviceAddress);
  27:.\Generated_Source\PSoC4/BLE_eventHandler.c **** 
  28:.\Generated_Source\PSoC4/BLE_eventHandler.c **** #endif /* CYBLE_GATT_ROLE_SERVER || CYBLE_GATT_ROLE_CLIENT */
  29:.\Generated_Source\PSoC4/BLE_eventHandler.c **** 
  30:.\Generated_Source\PSoC4/BLE_eventHandler.c **** static void CyBle_GattDisconnectEventHandler(void);
  31:.\Generated_Source\PSoC4/BLE_eventHandler.c **** static void CyBle_TimeOutEventHandler(const CYBLE_TO_REASON_CODE_T *eventParam);
  32:.\Generated_Source\PSoC4/BLE_eventHandler.c **** static void CyBle_GattConnectReqHandler(void);
  33:.\Generated_Source\PSoC4/BLE_eventHandler.c **** static void CyBle_L2Cap_ConnParamUpdateRspEventHandler(uint16 response);
  34:.\Generated_Source\PSoC4/BLE_eventHandler.c **** static void CyBle_GapConnUpdateCompleteEventHandler(const CYBLE_GAP_CONN_PARAM_UPDATED_IN_CONTROLLE
  35:.\Generated_Source\PSoC4/BLE_eventHandler.c **** 
  36:.\Generated_Source\PSoC4/BLE_eventHandler.c **** 
  37:.\Generated_Source\PSoC4/BLE_eventHandler.c **** #if (CYBLE_GATT_ROLE_SERVER)
  38:.\Generated_Source\PSoC4/BLE_eventHandler.c **** 
  39:.\Generated_Source\PSoC4/BLE_eventHandler.c **** static void CyBle_WriteReqHandler(CYBLE_GATTS_WRITE_REQ_PARAM_T *eventParam);
  40:.\Generated_Source\PSoC4/BLE_eventHandler.c **** static void CyBle_ValueConfirmation(const CYBLE_CONN_HANDLE_T *eventParam);
  41:.\Generated_Source\PSoC4/BLE_eventHandler.c **** 
  42:.\Generated_Source\PSoC4/BLE_eventHandler.c **** #endif /* CYBLE_GATT_ROLE_SERVER */
  43:.\Generated_Source\PSoC4/BLE_eventHandler.c **** 
  44:.\Generated_Source\PSoC4/BLE_eventHandler.c **** #if (CYBLE_GATT_ROLE_CLIENT)
  45:.\Generated_Source\PSoC4/BLE_eventHandler.c **** 
  46:.\Generated_Source\PSoC4/BLE_eventHandler.c **** static void CyBle_GapcDiscoverCharacteristicsEventHandler(CYBLE_DISC_CHAR_INFO_T *discCharInfo);
  47:.\Generated_Source\PSoC4/BLE_eventHandler.c **** static CYBLE_GATT_ATTR_HANDLE_RANGE_T CyBle_GetCharRange(void);
  48:.\Generated_Source\PSoC4/BLE_eventHandler.c **** static void CyBle_GattcWriteResponseEventHandler(const CYBLE_CONN_HANDLE_T *eventParam);
  49:.\Generated_Source\PSoC4/BLE_eventHandler.c **** static void CyBle_NotificationEventHandler(CYBLE_GATTC_HANDLE_VALUE_NTF_PARAM_T *eventParam);
ARM GAS  C:\Users\YBOURA~1\AppData\Local\Temp\cc3HigXd.s 			page 3


  50:.\Generated_Source\PSoC4/BLE_eventHandler.c **** static void CyBle_IndicationEventHandler(CYBLE_GATTC_HANDLE_VALUE_IND_PARAM_T *eventParam);
  51:.\Generated_Source\PSoC4/BLE_eventHandler.c **** static void CyBle_ReadResponseEventHandler(CYBLE_GATTC_READ_RSP_PARAM_T *eventParam);
  52:.\Generated_Source\PSoC4/BLE_eventHandler.c **** 
  53:.\Generated_Source\PSoC4/BLE_eventHandler.c **** #endif /* CYBLE_GATT_ROLE_CLIENT */
  54:.\Generated_Source\PSoC4/BLE_eventHandler.c **** 
  55:.\Generated_Source\PSoC4/BLE_eventHandler.c **** 
  56:.\Generated_Source\PSoC4/BLE_eventHandler.c **** /***************************************
  57:.\Generated_Source\PSoC4/BLE_eventHandler.c **** * Global Variables
  58:.\Generated_Source\PSoC4/BLE_eventHandler.c **** ***************************************/
  59:.\Generated_Source\PSoC4/BLE_eventHandler.c **** 
  60:.\Generated_Source\PSoC4/BLE_eventHandler.c **** /* This global variable is initialized after connection with peer device, 
  61:.\Generated_Source\PSoC4/BLE_eventHandler.c ****    after CYBLE_EVT_GATT_CONNECT_IND event, and could be used by application code
  62:.\Generated_Source\PSoC4/BLE_eventHandler.c ****    to send data to peer device. 
  63:.\Generated_Source\PSoC4/BLE_eventHandler.c **** */
  64:.\Generated_Source\PSoC4/BLE_eventHandler.c **** CYBLE_CONN_HANDLE_T cyBle_connHandle;
  65:.\Generated_Source\PSoC4/BLE_eventHandler.c **** 
  66:.\Generated_Source\PSoC4/BLE_eventHandler.c **** volatile uint8 cyBle_eventHandlerFlag;
  67:.\Generated_Source\PSoC4/BLE_eventHandler.c **** volatile uint8 cyBle_busyStatus;
  68:.\Generated_Source\PSoC4/BLE_eventHandler.c **** 
  69:.\Generated_Source\PSoC4/BLE_eventHandler.c **** #if(CYBLE_GAP_ROLE_PERIPHERAL || CYBLE_GAP_ROLE_BROADCASTER) 
  70:.\Generated_Source\PSoC4/BLE_eventHandler.c ****     uint8 cyBle_advertisingIntervalType;
  71:.\Generated_Source\PSoC4/BLE_eventHandler.c **** #endif /* CYBLE_GAP_ROLE_PERIPHERAL || CYBLE_GAP_ROLE_BROADCASTER) */
  72:.\Generated_Source\PSoC4/BLE_eventHandler.c **** 
  73:.\Generated_Source\PSoC4/BLE_eventHandler.c **** #if(CYBLE_GAP_ROLE_CENTRAL || CYBLE_GAP_ROLE_OBSERVER) 
  74:.\Generated_Source\PSoC4/BLE_eventHandler.c ****     uint8 cyBle_scanningIntervalType;
  75:.\Generated_Source\PSoC4/BLE_eventHandler.c **** #endif /* CYBLE_GAP_ROLE_CENTRAL || CYBLE_GAP_ROLE_OBSERVER */
  76:.\Generated_Source\PSoC4/BLE_eventHandler.c **** 
  77:.\Generated_Source\PSoC4/BLE_eventHandler.c **** #if(CYBLE_GATT_ROLE_SERVER)
  78:.\Generated_Source\PSoC4/BLE_eventHandler.c **** #if defined CYBLE_CTS_SERVER || defined CYBLE_ESS_SERVER
  79:.\Generated_Source\PSoC4/BLE_eventHandler.c **** CYBLE_GATT_ERR_CODE_T cyBle_gattError;
  80:.\Generated_Source\PSoC4/BLE_eventHandler.c **** #endif /* defined CYBLE_CTS_SERVER || defined CYBLE_ESS_SERVER */
  81:.\Generated_Source\PSoC4/BLE_eventHandler.c **** #endif /* CYBLE_GATT_ROLE_SERVER */
  82:.\Generated_Source\PSoC4/BLE_eventHandler.c **** 
  83:.\Generated_Source\PSoC4/BLE_eventHandler.c **** #if(CYBLE_GATT_ROLE_CLIENT)
  84:.\Generated_Source\PSoC4/BLE_eventHandler.c **** uint8 cyBle_disCount; /* Counter for discovery procedures */
  85:.\Generated_Source\PSoC4/BLE_eventHandler.c **** static CYBLE_GATT_DB_ATTR_HANDLE_T cyBle_charEndHandle;
  86:.\Generated_Source\PSoC4/BLE_eventHandler.c **** /* Discovery included service information, used for 128-bit UUID read response handle 
  87:.\Generated_Source\PSoC4/BLE_eventHandler.c ****    and for continue discovery. 
  88:.\Generated_Source\PSoC4/BLE_eventHandler.c **** */
  89:.\Generated_Source\PSoC4/BLE_eventHandler.c **** static CYBLE_DISC_INCL_INFO_T cyBle_discInclInfo;
  90:.\Generated_Source\PSoC4/BLE_eventHandler.c **** #ifdef CYBLE_HIDS_CLIENT
  91:.\Generated_Source\PSoC4/BLE_eventHandler.c ****     static uint8 disServiceIndex;      /* To discovery descriptors for multiple HID service instanc
  92:.\Generated_Source\PSoC4/BLE_eventHandler.c **** #endif /* CYBLE_HIDS_CLIENT */
  93:.\Generated_Source\PSoC4/BLE_eventHandler.c **** 
  94:.\Generated_Source\PSoC4/BLE_eventHandler.c **** CYBLE_DISC_SRVC_INFO_T cyBle_serverInfo[CYBLE_SRVI_COUNT] = /*6*/
  95:.\Generated_Source\PSoC4/BLE_eventHandler.c **** {
  96:.\Generated_Source\PSoC4/BLE_eventHandler.c ****     {{CYBLE_GATT_INVALID_ATTR_HANDLE_VALUE, CYBLE_GATT_INVALID_ATTR_HANDLE_VALUE}, CYBLE_UUID_GAP_S
  97:.\Generated_Source\PSoC4/BLE_eventHandler.c ****     {{CYBLE_GATT_INVALID_ATTR_HANDLE_VALUE, CYBLE_GATT_INVALID_ATTR_HANDLE_VALUE}, CYBLE_UUID_GATT_
  98:.\Generated_Source\PSoC4/BLE_eventHandler.c **** #ifdef CYBLE_ANCS_CLIENT
  99:.\Generated_Source\PSoC4/BLE_eventHandler.c ****     {{CYBLE_GATT_INVALID_ATTR_HANDLE_VALUE, CYBLE_GATT_INVALID_ATTR_HANDLE_VALUE}, 0x0000u},
 100:.\Generated_Source\PSoC4/BLE_eventHandler.c **** #endif /* CYBLE_ANCS_CLIENT */
 101:.\Generated_Source\PSoC4/BLE_eventHandler.c **** #ifdef CYBLE_ANS_CLIENT
 102:.\Generated_Source\PSoC4/BLE_eventHandler.c ****     {{CYBLE_GATT_INVALID_ATTR_HANDLE_VALUE, CYBLE_GATT_INVALID_ATTR_HANDLE_VALUE}, 
 103:.\Generated_Source\PSoC4/BLE_eventHandler.c ****         CYBLE_UUID_ALERT_NOTIFICATION_SERVICE},
 104:.\Generated_Source\PSoC4/BLE_eventHandler.c **** #endif /* CYBLE_ANS_CLIENT */
 105:.\Generated_Source\PSoC4/BLE_eventHandler.c **** #ifdef CYBLE_BAS_CLIENT
 106:.\Generated_Source\PSoC4/BLE_eventHandler.c ****     {{CYBLE_GATT_INVALID_ATTR_HANDLE_VALUE, CYBLE_GATT_INVALID_ATTR_HANDLE_VALUE}, CYBLE_UUID_BAS_S
ARM GAS  C:\Users\YBOURA~1\AppData\Local\Temp\cc3HigXd.s 			page 4


 107:.\Generated_Source\PSoC4/BLE_eventHandler.c ****     #if(CYBLE_BASC_SERVICE_COUNT > 1u) /* Generate it by GUI */
 108:.\Generated_Source\PSoC4/BLE_eventHandler.c ****         
 109:.\Generated_Source\PSoC4/BLE_eventHandler.c ****     #endif /* CYBLE_BASC_SERVICE_COUNT > 1u */
 110:.\Generated_Source\PSoC4/BLE_eventHandler.c **** #endif /* CYBLE_BAS_CLIENT */
 111:.\Generated_Source\PSoC4/BLE_eventHandler.c **** #ifdef CYBLE_BCS_CLIENT
 112:.\Generated_Source\PSoC4/BLE_eventHandler.c ****     {{CYBLE_GATT_INVALID_ATTR_HANDLE_VALUE, CYBLE_GATT_INVALID_ATTR_HANDLE_VALUE}, CYBLE_UUID_BODY_
 113:.\Generated_Source\PSoC4/BLE_eventHandler.c **** #endif /* CYBLE_BCS_CLIENT */
 114:.\Generated_Source\PSoC4/BLE_eventHandler.c **** #ifdef CYBLE_BLS_CLIENT
 115:.\Generated_Source\PSoC4/BLE_eventHandler.c ****     {{CYBLE_GATT_INVALID_ATTR_HANDLE_VALUE, CYBLE_GATT_INVALID_ATTR_HANDLE_VALUE}, CYBLE_UUID_BLOOD
 116:.\Generated_Source\PSoC4/BLE_eventHandler.c **** #endif /* CYBLE_BLS_CLIENT */
 117:.\Generated_Source\PSoC4/BLE_eventHandler.c **** #ifdef CYBLE_BMS_CLIENT
 118:.\Generated_Source\PSoC4/BLE_eventHandler.c ****     {{CYBLE_GATT_INVALID_ATTR_HANDLE_VALUE, CYBLE_GATT_INVALID_ATTR_HANDLE_VALUE}, CYBLE_UUID_BOND_
 119:.\Generated_Source\PSoC4/BLE_eventHandler.c **** #endif /* CYBLE_BMS_CLIENT */
 120:.\Generated_Source\PSoC4/BLE_eventHandler.c **** #ifdef CYBLE_CGMS_CLIENT
 121:.\Generated_Source\PSoC4/BLE_eventHandler.c ****     {{CYBLE_GATT_INVALID_ATTR_HANDLE_VALUE, CYBLE_GATT_INVALID_ATTR_HANDLE_VALUE}, CYBLE_UUID_CGM_S
 122:.\Generated_Source\PSoC4/BLE_eventHandler.c **** #endif /* CYBLE_CGMS_CLIENT */
 123:.\Generated_Source\PSoC4/BLE_eventHandler.c **** #ifdef CYBLE_CPS_CLIENT
 124:.\Generated_Source\PSoC4/BLE_eventHandler.c ****     {{CYBLE_GATT_INVALID_ATTR_HANDLE_VALUE, CYBLE_GATT_INVALID_ATTR_HANDLE_VALUE}, CYBLE_UUID_CPS_S
 125:.\Generated_Source\PSoC4/BLE_eventHandler.c **** #endif /* CYBLE_CPS_CLIENT */
 126:.\Generated_Source\PSoC4/BLE_eventHandler.c **** #ifdef CYBLE_CSCS_CLIENT
 127:.\Generated_Source\PSoC4/BLE_eventHandler.c ****     {{CYBLE_GATT_INVALID_ATTR_HANDLE_VALUE, CYBLE_GATT_INVALID_ATTR_HANDLE_VALUE}, 
 128:.\Generated_Source\PSoC4/BLE_eventHandler.c ****         CYBLE_UUID_CYCLING_SPEED_AND_CADENCE_SERVICE},
 129:.\Generated_Source\PSoC4/BLE_eventHandler.c **** #endif /* CYBLE_CSCS_CLIENT */
 130:.\Generated_Source\PSoC4/BLE_eventHandler.c **** #ifdef CYBLE_CTS_CLIENT
 131:.\Generated_Source\PSoC4/BLE_eventHandler.c ****     {{CYBLE_GATT_INVALID_ATTR_HANDLE_VALUE, CYBLE_GATT_INVALID_ATTR_HANDLE_VALUE}, CYBLE_UUID_CURRE
 132:.\Generated_Source\PSoC4/BLE_eventHandler.c **** #endif /* CYBLE_CTS_CLIENT */
 133:.\Generated_Source\PSoC4/BLE_eventHandler.c **** #ifdef CYBLE_CUSTOM_CLIENT
 134:.\Generated_Source\PSoC4/BLE_eventHandler.c ****             {{CYBLE_GATT_INVALID_ATTR_HANDLE_VALUE, CYBLE_GATT_INVALID_ATTR_HANDLE_VALUE}, 0x0000u}
 135:.\Generated_Source\PSoC4/BLE_eventHandler.c **** 
 136:.\Generated_Source\PSoC4/BLE_eventHandler.c **** #endif /* CYBLE_CUSTOM_CLIENT */
 137:.\Generated_Source\PSoC4/BLE_eventHandler.c **** #ifdef CYBLE_DIS_CLIENT
 138:.\Generated_Source\PSoC4/BLE_eventHandler.c ****     {{CYBLE_GATT_INVALID_ATTR_HANDLE_VALUE, CYBLE_GATT_INVALID_ATTR_HANDLE_VALUE}, CYBLE_UUID_DEVIC
 139:.\Generated_Source\PSoC4/BLE_eventHandler.c **** #endif /* CYBLE_DIS_CLIENT */
 140:.\Generated_Source\PSoC4/BLE_eventHandler.c **** #ifdef CYBLE_ESS_CLIENT
 141:.\Generated_Source\PSoC4/BLE_eventHandler.c ****     {{CYBLE_GATT_INVALID_ATTR_HANDLE_VALUE, CYBLE_GATT_INVALID_ATTR_HANDLE_VALUE}, 
 142:.\Generated_Source\PSoC4/BLE_eventHandler.c ****         CYBLE_UUID_ENVIRONMENTAL_SENSING_SERVICE},
 143:.\Generated_Source\PSoC4/BLE_eventHandler.c **** #endif /* CYBLE_ESS_CLIENT */
 144:.\Generated_Source\PSoC4/BLE_eventHandler.c **** #ifdef CYBLE_GLS_CLIENT
 145:.\Generated_Source\PSoC4/BLE_eventHandler.c ****     {{CYBLE_GATT_INVALID_ATTR_HANDLE_VALUE, CYBLE_GATT_INVALID_ATTR_HANDLE_VALUE}, CYBLE_UUID_GLUCO
 146:.\Generated_Source\PSoC4/BLE_eventHandler.c **** #endif /* CYBLE_GLS_CLIENT */
 147:.\Generated_Source\PSoC4/BLE_eventHandler.c **** #ifdef CYBLE_HIDS_CLIENT
 148:.\Generated_Source\PSoC4/BLE_eventHandler.c ****     {{CYBLE_GATT_INVALID_ATTR_HANDLE_VALUE, CYBLE_GATT_INVALID_ATTR_HANDLE_VALUE}, CYBLE_UUID_HIDS_
 149:.\Generated_Source\PSoC4/BLE_eventHandler.c ****     #if(CYBLE_HIDSC_SERVICE_COUNT > 1u) /* Generate it by GUI */
 150:.\Generated_Source\PSoC4/BLE_eventHandler.c ****         
 151:.\Generated_Source\PSoC4/BLE_eventHandler.c ****     #endif /* CYBLE_HIDSC_SERVICE_COUNT > 1u */
 152:.\Generated_Source\PSoC4/BLE_eventHandler.c **** #endif /* CYBLE_HIDS_CLIENT */
 153:.\Generated_Source\PSoC4/BLE_eventHandler.c **** #ifdef CYBLE_HRS_CLIENT
 154:.\Generated_Source\PSoC4/BLE_eventHandler.c ****     {{CYBLE_GATT_INVALID_ATTR_HANDLE_VALUE, CYBLE_GATT_INVALID_ATTR_HANDLE_VALUE}, CYBLE_UUID_HEART
 155:.\Generated_Source\PSoC4/BLE_eventHandler.c **** #endif /* CYBLE_HRS_CLIENT */
 156:.\Generated_Source\PSoC4/BLE_eventHandler.c **** #ifdef CYBLE_HTS_CLIENT
 157:.\Generated_Source\PSoC4/BLE_eventHandler.c ****     {{CYBLE_GATT_INVALID_ATTR_HANDLE_VALUE, CYBLE_GATT_INVALID_ATTR_HANDLE_VALUE}, CYBLE_UUID_HEALT
 158:.\Generated_Source\PSoC4/BLE_eventHandler.c **** #endif /* CYBLE_HTS_CLIENT */
 159:.\Generated_Source\PSoC4/BLE_eventHandler.c **** #ifdef CYBLE_IAS_CLIENT
 160:.\Generated_Source\PSoC4/BLE_eventHandler.c ****     {{CYBLE_GATT_INVALID_ATTR_HANDLE_VALUE, CYBLE_GATT_INVALID_ATTR_HANDLE_VALUE}, CYBLE_UUID_IMMED
 161:.\Generated_Source\PSoC4/BLE_eventHandler.c **** #endif /* CYBLE_IAS_CLIENT */
 162:.\Generated_Source\PSoC4/BLE_eventHandler.c **** #ifdef CYBLE_LLS_CLIENT
 163:.\Generated_Source\PSoC4/BLE_eventHandler.c ****     {{CYBLE_GATT_INVALID_ATTR_HANDLE_VALUE, CYBLE_GATT_INVALID_ATTR_HANDLE_VALUE}, CYBLE_UUID_LINK_
ARM GAS  C:\Users\YBOURA~1\AppData\Local\Temp\cc3HigXd.s 			page 5


 164:.\Generated_Source\PSoC4/BLE_eventHandler.c **** #endif /* CYBLE_LLS_CLIENT */
 165:.\Generated_Source\PSoC4/BLE_eventHandler.c **** #ifdef CYBLE_LNS_CLIENT
 166:.\Generated_Source\PSoC4/BLE_eventHandler.c ****     {{CYBLE_GATT_INVALID_ATTR_HANDLE_VALUE, CYBLE_GATT_INVALID_ATTR_HANDLE_VALUE}, CYBLE_UUID_LOCAT
 167:.\Generated_Source\PSoC4/BLE_eventHandler.c **** #endif /* CYBLE_LNS_CLIENT */
 168:.\Generated_Source\PSoC4/BLE_eventHandler.c **** #ifdef CYBLE_NDCS_CLIENT
 169:.\Generated_Source\PSoC4/BLE_eventHandler.c ****     {{CYBLE_GATT_INVALID_ATTR_HANDLE_VALUE, CYBLE_GATT_INVALID_ATTR_HANDLE_VALUE}, CYBLE_UUID_NEXT_
 170:.\Generated_Source\PSoC4/BLE_eventHandler.c **** #endif /* CYBLE_NDCS_CLIENT */
 171:.\Generated_Source\PSoC4/BLE_eventHandler.c **** #ifdef CYBLE_IPSS_CLIENT
 172:.\Generated_Source\PSoC4/BLE_eventHandler.c ****     {{CYBLE_GATT_INVALID_ATTR_HANDLE_VALUE, CYBLE_GATT_INVALID_ATTR_HANDLE_VALUE}, CYBLE_UUID_INTER
 173:.\Generated_Source\PSoC4/BLE_eventHandler.c **** #endif /* CYBLE_IPSS_CLIENT */
 174:.\Generated_Source\PSoC4/BLE_eventHandler.c **** #ifdef CYBLE_PASS_CLIENT
 175:.\Generated_Source\PSoC4/BLE_eventHandler.c ****     {{CYBLE_GATT_INVALID_ATTR_HANDLE_VALUE, CYBLE_GATT_INVALID_ATTR_HANDLE_VALUE}, CYBLE_UUID_PHONE
 176:.\Generated_Source\PSoC4/BLE_eventHandler.c **** #endif /* CYBLE_PASS_CLIENT */
 177:.\Generated_Source\PSoC4/BLE_eventHandler.c **** #ifdef CYBLE_RSCS_CLIENT
 178:.\Generated_Source\PSoC4/BLE_eventHandler.c ****     {{CYBLE_GATT_INVALID_ATTR_HANDLE_VALUE, CYBLE_GATT_INVALID_ATTR_HANDLE_VALUE}, CYBLE_UUID_RUNNI
 179:.\Generated_Source\PSoC4/BLE_eventHandler.c **** #endif /* CYBLE_RSCS_CLIENT */
 180:.\Generated_Source\PSoC4/BLE_eventHandler.c **** #ifdef CYBLE_RTUS_CLIENT
 181:.\Generated_Source\PSoC4/BLE_eventHandler.c ****     {{CYBLE_GATT_INVALID_ATTR_HANDLE_VALUE, CYBLE_GATT_INVALID_ATTR_HANDLE_VALUE}, CYBLE_UUID_REF_T
 182:.\Generated_Source\PSoC4/BLE_eventHandler.c **** #endif /* CYBLE_RTUS_CLIENT */
 183:.\Generated_Source\PSoC4/BLE_eventHandler.c **** #ifdef CYBLE_SCPS_CLIENT
 184:.\Generated_Source\PSoC4/BLE_eventHandler.c ****     {{CYBLE_GATT_INVALID_ATTR_HANDLE_VALUE, CYBLE_GATT_INVALID_ATTR_HANDLE_VALUE}, CYBLE_UUID_SCAN_
 185:.\Generated_Source\PSoC4/BLE_eventHandler.c **** #endif /* CYBLE_SCPS_CLIENT */
 186:.\Generated_Source\PSoC4/BLE_eventHandler.c **** #ifdef CYBLE_TPS_CLIENT
 187:.\Generated_Source\PSoC4/BLE_eventHandler.c ****     {{CYBLE_GATT_INVALID_ATTR_HANDLE_VALUE, CYBLE_GATT_INVALID_ATTR_HANDLE_VALUE}, CYBLE_UUID_TX_PO
 188:.\Generated_Source\PSoC4/BLE_eventHandler.c **** #endif /* CYBLE_TPS_CLIENT */
 189:.\Generated_Source\PSoC4/BLE_eventHandler.c **** #ifdef CYBLE_UDS_CLIENT
 190:.\Generated_Source\PSoC4/BLE_eventHandler.c ****     {{CYBLE_GATT_INVALID_ATTR_HANDLE_VALUE, CYBLE_GATT_INVALID_ATTR_HANDLE_VALUE}, CYBLE_UUID_USER_
 191:.\Generated_Source\PSoC4/BLE_eventHandler.c **** #endif /* CYBLE_UDS_CLIENT */
 192:.\Generated_Source\PSoC4/BLE_eventHandler.c **** #ifdef CYBLE_WSS_CLIENT
 193:.\Generated_Source\PSoC4/BLE_eventHandler.c ****     {{CYBLE_GATT_INVALID_ATTR_HANDLE_VALUE, CYBLE_GATT_INVALID_ATTR_HANDLE_VALUE}, CYBLE_UUID_WEIGH
 194:.\Generated_Source\PSoC4/BLE_eventHandler.c **** #endif /* CYBLE_WSS_CLIENT */
 195:.\Generated_Source\PSoC4/BLE_eventHandler.c **** #ifdef CYBLE_WPTS_CLIENT
 196:.\Generated_Source\PSoC4/BLE_eventHandler.c ****     {{CYBLE_GATT_INVALID_ATTR_HANDLE_VALUE, CYBLE_GATT_INVALID_ATTR_HANDLE_VALUE}, CYBLE_UUID_WIREL
 197:.\Generated_Source\PSoC4/BLE_eventHandler.c **** #endif /* CYBLE_WPTS_CLIENT */
 198:.\Generated_Source\PSoC4/BLE_eventHandler.c **** };
 199:.\Generated_Source\PSoC4/BLE_eventHandler.c **** 
 200:.\Generated_Source\PSoC4/BLE_eventHandler.c **** CYBLE_GAPC_T cyBle_gapc;
 201:.\Generated_Source\PSoC4/BLE_eventHandler.c **** 
 202:.\Generated_Source\PSoC4/BLE_eventHandler.c **** #endif /* CYBLE_GATT_ROLE_CLIENT */
 203:.\Generated_Source\PSoC4/BLE_eventHandler.c **** 
 204:.\Generated_Source\PSoC4/BLE_eventHandler.c **** /* Default device security */
 205:.\Generated_Source\PSoC4/BLE_eventHandler.c **** CYBLE_GAP_AUTH_INFO_T cyBle_authInfo =
 206:.\Generated_Source\PSoC4/BLE_eventHandler.c **** {
 207:.\Generated_Source\PSoC4/BLE_eventHandler.c ****     (CYBLE_GAP_SEC_MODE_1 | CYBLE_GAP_SEC_LEVEL_1 ), /* uint8 security */
 208:.\Generated_Source\PSoC4/BLE_eventHandler.c ****     CYBLE_GAP_BONDING, /* uint8 bonding */
 209:.\Generated_Source\PSoC4/BLE_eventHandler.c ****     0x10u,      /* uint8 ekeySize */
 210:.\Generated_Source\PSoC4/BLE_eventHandler.c ****     CYBLE_GAP_AUTH_ERROR_NONE, /* CYBLE_AUTH_FAILED_REASON_T authErr */
 211:.\Generated_Source\PSoC4/BLE_eventHandler.c **** };
 212:.\Generated_Source\PSoC4/BLE_eventHandler.c **** 
 213:.\Generated_Source\PSoC4/BLE_eventHandler.c **** #if(CYBLE_GATT_ROLE_SERVER)
 214:.\Generated_Source\PSoC4/BLE_eventHandler.c **** 
 215:.\Generated_Source\PSoC4/BLE_eventHandler.c **** 
 216:.\Generated_Source\PSoC4/BLE_eventHandler.c **** /******************************************************************************    
 217:.\Generated_Source\PSoC4/BLE_eventHandler.c **** * Function Name: CyBle_WriteReqHandler
 218:.\Generated_Source\PSoC4/BLE_eventHandler.c **** ***************************************************************************//**
 219:.\Generated_Source\PSoC4/BLE_eventHandler.c **** * 
 220:.\Generated_Source\PSoC4/BLE_eventHandler.c **** *  Handles the Write Request event from BLE stack.
ARM GAS  C:\Users\YBOURA~1\AppData\Local\Temp\cc3HigXd.s 			page 6


 221:.\Generated_Source\PSoC4/BLE_eventHandler.c **** * 
 222:.\Generated_Source\PSoC4/BLE_eventHandler.c **** *  CYBLE_GATTS_WRITE_REQ_PARAM_T * eventParam - event parameter
 223:.\Generated_Source\PSoC4/BLE_eventHandler.c **** * 
 224:.\Generated_Source\PSoC4/BLE_eventHandler.c **** * \return
 225:.\Generated_Source\PSoC4/BLE_eventHandler.c **** *  None
 226:.\Generated_Source\PSoC4/BLE_eventHandler.c **** * 
 227:.\Generated_Source\PSoC4/BLE_eventHandler.c **** ******************************************************************************/
 228:.\Generated_Source\PSoC4/BLE_eventHandler.c **** static void CyBle_WriteReqHandler(CYBLE_GATTS_WRITE_REQ_PARAM_T *eventParam)
 229:.\Generated_Source\PSoC4/BLE_eventHandler.c **** {
  62              		.loc 1 229 0
  63              		.cfi_startproc
  64 0000 90B5     		push	{r4, r7, lr}
  65              		.cfi_def_cfa_offset 12
  66              		.cfi_offset 4, -12
  67              		.cfi_offset 7, -8
  68              		.cfi_offset 14, -4
  69 0002 85B0     		sub	sp, sp, #20
  70              		.cfi_def_cfa_offset 32
  71 0004 00AF     		add	r7, sp, #0
  72              		.cfi_def_cfa_register 7
  73 0006 7860     		str	r0, [r7, #4]
 230:.\Generated_Source\PSoC4/BLE_eventHandler.c ****     CYBLE_GATT_ERR_CODE_T gattErr;
 231:.\Generated_Source\PSoC4/BLE_eventHandler.c **** #if defined CYBLE_CTS_SERVER || defined CYBLE_ESS_SERVER
 232:.\Generated_Source\PSoC4/BLE_eventHandler.c ****     cyBle_gattError = CYBLE_GATT_ERR_NONE;
 233:.\Generated_Source\PSoC4/BLE_eventHandler.c **** #endif /* defined CYBLE_CTS_SERVER || defined CYBLE_ESS_SERVER */
 234:.\Generated_Source\PSoC4/BLE_eventHandler.c ****     
 235:.\Generated_Source\PSoC4/BLE_eventHandler.c ****     gattErr = CyBle_GattsWriteEventHandler(eventParam);
  74              		.loc 1 235 0
  75 0008 0F23     		mov	r3, #15
  76 000a FC18     		add	r4, r7, r3
  77 000c 7B68     		ldr	r3, [r7, #4]
  78 000e 181C     		mov	r0, r3
  79 0010 FFF7FEFF 		bl	CyBle_GattsWriteEventHandler
  80 0014 031C     		mov	r3, r0
  81 0016 2370     		strb	r3, [r4]
 236:.\Generated_Source\PSoC4/BLE_eventHandler.c **** #ifdef CYBLE_ANCS_SERVER
 237:.\Generated_Source\PSoC4/BLE_eventHandler.c ****     if(((cyBle_eventHandlerFlag & CYBLE_CALLBACK) != 0u) && (gattErr == CYBLE_GATT_ERR_NONE))
 238:.\Generated_Source\PSoC4/BLE_eventHandler.c ****     {
 239:.\Generated_Source\PSoC4/BLE_eventHandler.c ****         gattErr = CyBle_AncssWriteEventHandler(eventParam);
 240:.\Generated_Source\PSoC4/BLE_eventHandler.c ****     }
 241:.\Generated_Source\PSoC4/BLE_eventHandler.c **** #endif /* CYBLE_ANCS_SERVER */
 242:.\Generated_Source\PSoC4/BLE_eventHandler.c **** #ifdef CYBLE_ANS_SERVER
 243:.\Generated_Source\PSoC4/BLE_eventHandler.c ****     if(((cyBle_eventHandlerFlag & CYBLE_CALLBACK) != 0u) && (gattErr == CYBLE_GATT_ERR_NONE))
 244:.\Generated_Source\PSoC4/BLE_eventHandler.c ****     {
 245:.\Generated_Source\PSoC4/BLE_eventHandler.c ****         gattErr = CyBle_AnssWriteEventHandler(eventParam);
 246:.\Generated_Source\PSoC4/BLE_eventHandler.c ****     }
 247:.\Generated_Source\PSoC4/BLE_eventHandler.c **** #endif /* CYBLE_ANS_SERVER */
 248:.\Generated_Source\PSoC4/BLE_eventHandler.c **** #ifdef CYBLE_BAS_SERVER
 249:.\Generated_Source\PSoC4/BLE_eventHandler.c ****     if(((cyBle_eventHandlerFlag & CYBLE_CALLBACK) != 0u) && (gattErr == CYBLE_GATT_ERR_NONE))
 250:.\Generated_Source\PSoC4/BLE_eventHandler.c ****     {
 251:.\Generated_Source\PSoC4/BLE_eventHandler.c ****         gattErr = CyBle_BassWriteEventHandler(eventParam);
 252:.\Generated_Source\PSoC4/BLE_eventHandler.c ****     }
 253:.\Generated_Source\PSoC4/BLE_eventHandler.c **** #endif /* CYBLE_BAS_SERVER */
 254:.\Generated_Source\PSoC4/BLE_eventHandler.c **** #ifdef CYBLE_BCS_SERVER
 255:.\Generated_Source\PSoC4/BLE_eventHandler.c ****     if(((cyBle_eventHandlerFlag & CYBLE_CALLBACK) != 0u) && (gattErr == CYBLE_GATT_ERR_NONE))
 256:.\Generated_Source\PSoC4/BLE_eventHandler.c ****     {
 257:.\Generated_Source\PSoC4/BLE_eventHandler.c ****         gattErr = CyBle_BcssWriteEventHandler(eventParam);
ARM GAS  C:\Users\YBOURA~1\AppData\Local\Temp\cc3HigXd.s 			page 7


 258:.\Generated_Source\PSoC4/BLE_eventHandler.c ****     }
 259:.\Generated_Source\PSoC4/BLE_eventHandler.c **** #endif /* CYBLE_BCS_SERVER */
 260:.\Generated_Source\PSoC4/BLE_eventHandler.c **** #ifdef CYBLE_BLS_SERVER
 261:.\Generated_Source\PSoC4/BLE_eventHandler.c ****     if(((cyBle_eventHandlerFlag & CYBLE_CALLBACK) != 0u) && (gattErr == CYBLE_GATT_ERR_NONE))
 262:.\Generated_Source\PSoC4/BLE_eventHandler.c ****     {
 263:.\Generated_Source\PSoC4/BLE_eventHandler.c ****         gattErr = CyBle_BlssWriteEventHandler(eventParam);
 264:.\Generated_Source\PSoC4/BLE_eventHandler.c ****     }
 265:.\Generated_Source\PSoC4/BLE_eventHandler.c **** #endif /* CYBLE_BLS_SERVER */
 266:.\Generated_Source\PSoC4/BLE_eventHandler.c **** #ifdef CYBLE_BMS_SERVER
 267:.\Generated_Source\PSoC4/BLE_eventHandler.c ****     if(((cyBle_eventHandlerFlag & CYBLE_CALLBACK) != 0u) && (gattErr == CYBLE_GATT_ERR_NONE))
 268:.\Generated_Source\PSoC4/BLE_eventHandler.c ****     {
 269:.\Generated_Source\PSoC4/BLE_eventHandler.c ****         gattErr = CyBle_BmssWriteEventHandler(eventParam);
 270:.\Generated_Source\PSoC4/BLE_eventHandler.c ****     }
 271:.\Generated_Source\PSoC4/BLE_eventHandler.c **** #endif /* CYBLE_BMS_SERVER */
 272:.\Generated_Source\PSoC4/BLE_eventHandler.c **** #ifdef CYBLE_BTS_SERVER
 273:.\Generated_Source\PSoC4/BLE_eventHandler.c ****     if((cyBle_eventHandlerFlag & CYBLE_CALLBACK) != 0u)
 274:.\Generated_Source\PSoC4/BLE_eventHandler.c ****     {
 275:.\Generated_Source\PSoC4/BLE_eventHandler.c ****         gattErr = CyBle_BtsWriteEventHandler(eventParam);
 276:.\Generated_Source\PSoC4/BLE_eventHandler.c ****     }
 277:.\Generated_Source\PSoC4/BLE_eventHandler.c **** #endif /* CYBLE_BTS_SERVER */
 278:.\Generated_Source\PSoC4/BLE_eventHandler.c **** #ifdef CYBLE_CGMS_SERVER
 279:.\Generated_Source\PSoC4/BLE_eventHandler.c ****     if(((cyBle_eventHandlerFlag & CYBLE_CALLBACK) != 0u) && (gattErr == CYBLE_GATT_ERR_NONE))
 280:.\Generated_Source\PSoC4/BLE_eventHandler.c ****     {
 281:.\Generated_Source\PSoC4/BLE_eventHandler.c ****         gattErr = CyBle_CgmssWriteEventHandler(eventParam);
 282:.\Generated_Source\PSoC4/BLE_eventHandler.c ****     }
 283:.\Generated_Source\PSoC4/BLE_eventHandler.c **** #endif /* CYBLE_CGMS_SERVER */
 284:.\Generated_Source\PSoC4/BLE_eventHandler.c **** #ifdef CYBLE_CPS_SERVER
 285:.\Generated_Source\PSoC4/BLE_eventHandler.c ****     if(((cyBle_eventHandlerFlag & CYBLE_CALLBACK) != 0u) && (gattErr == CYBLE_GATT_ERR_NONE))
 286:.\Generated_Source\PSoC4/BLE_eventHandler.c ****     {
 287:.\Generated_Source\PSoC4/BLE_eventHandler.c ****         gattErr = CyBle_CpssWriteEventHandler(eventParam);
 288:.\Generated_Source\PSoC4/BLE_eventHandler.c ****     }
 289:.\Generated_Source\PSoC4/BLE_eventHandler.c **** #endif /* CYBLE_CPS_SERVER */
 290:.\Generated_Source\PSoC4/BLE_eventHandler.c **** #ifdef CYBLE_CSCS_SERVER
 291:.\Generated_Source\PSoC4/BLE_eventHandler.c ****     if(((cyBle_eventHandlerFlag & CYBLE_CALLBACK) != 0u) && (gattErr == CYBLE_GATT_ERR_NONE))
 292:.\Generated_Source\PSoC4/BLE_eventHandler.c ****     {
 293:.\Generated_Source\PSoC4/BLE_eventHandler.c ****         gattErr = CyBle_CscssWriteEventHandler(eventParam);
 294:.\Generated_Source\PSoC4/BLE_eventHandler.c ****     }
 295:.\Generated_Source\PSoC4/BLE_eventHandler.c **** #endif /* CYBLE_CSCS_SERVER */
 296:.\Generated_Source\PSoC4/BLE_eventHandler.c **** #ifdef CYBLE_CTS_SERVER
 297:.\Generated_Source\PSoC4/BLE_eventHandler.c ****     if(((cyBle_eventHandlerFlag & CYBLE_CALLBACK) != 0u) && (gattErr == CYBLE_GATT_ERR_NONE))
 298:.\Generated_Source\PSoC4/BLE_eventHandler.c ****     {
 299:.\Generated_Source\PSoC4/BLE_eventHandler.c ****         gattErr = CyBle_CtssWriteEventHandler(eventParam);
 300:.\Generated_Source\PSoC4/BLE_eventHandler.c ****     }
 301:.\Generated_Source\PSoC4/BLE_eventHandler.c **** #endif /* CYBLE_CTS_SERVER */
 302:.\Generated_Source\PSoC4/BLE_eventHandler.c **** #ifdef CYBLE_ESS_SERVER
 303:.\Generated_Source\PSoC4/BLE_eventHandler.c ****     if(((cyBle_eventHandlerFlag & CYBLE_CALLBACK) != 0u) && (gattErr == CYBLE_GATT_ERR_NONE))
 304:.\Generated_Source\PSoC4/BLE_eventHandler.c ****     {
 305:.\Generated_Source\PSoC4/BLE_eventHandler.c ****         gattErr = CyBle_EsssWriteEventHandler(eventParam);
 306:.\Generated_Source\PSoC4/BLE_eventHandler.c ****     }
 307:.\Generated_Source\PSoC4/BLE_eventHandler.c **** #endif /* CYBLE_ESS_SERVER */
 308:.\Generated_Source\PSoC4/BLE_eventHandler.c **** #ifdef CYBLE_GLS_SERVER
 309:.\Generated_Source\PSoC4/BLE_eventHandler.c ****     if(((cyBle_eventHandlerFlag & CYBLE_CALLBACK) != 0u) && (gattErr == CYBLE_GATT_ERR_NONE))
 310:.\Generated_Source\PSoC4/BLE_eventHandler.c ****     {
 311:.\Generated_Source\PSoC4/BLE_eventHandler.c ****         gattErr = CyBle_GlssWriteEventHandler(eventParam);
 312:.\Generated_Source\PSoC4/BLE_eventHandler.c ****     }
 313:.\Generated_Source\PSoC4/BLE_eventHandler.c **** #endif /* CYBLE_GLS_SERVER */
 314:.\Generated_Source\PSoC4/BLE_eventHandler.c **** #ifdef CYBLE_HIDS_SERVER
ARM GAS  C:\Users\YBOURA~1\AppData\Local\Temp\cc3HigXd.s 			page 8


 315:.\Generated_Source\PSoC4/BLE_eventHandler.c ****     if(((cyBle_eventHandlerFlag & CYBLE_CALLBACK) != 0u) && (gattErr == CYBLE_GATT_ERR_NONE))
 316:.\Generated_Source\PSoC4/BLE_eventHandler.c ****     {
 317:.\Generated_Source\PSoC4/BLE_eventHandler.c ****         gattErr = CyBle_HidssWriteEventHandler(eventParam);
 318:.\Generated_Source\PSoC4/BLE_eventHandler.c ****     }
 319:.\Generated_Source\PSoC4/BLE_eventHandler.c **** #endif /* CYBLE_HIDS_SERVER */
 320:.\Generated_Source\PSoC4/BLE_eventHandler.c **** #ifdef CYBLE_HRS_SERVER
 321:.\Generated_Source\PSoC4/BLE_eventHandler.c ****     if(((cyBle_eventHandlerFlag & CYBLE_CALLBACK) != 0u) && (gattErr == CYBLE_GATT_ERR_NONE))
 322:.\Generated_Source\PSoC4/BLE_eventHandler.c ****     {
 323:.\Generated_Source\PSoC4/BLE_eventHandler.c ****         gattErr = CyBle_HrssWriteEventHandler(eventParam);
 324:.\Generated_Source\PSoC4/BLE_eventHandler.c ****     }
 325:.\Generated_Source\PSoC4/BLE_eventHandler.c **** #endif /* CYBLE_HRS_SERVER */
 326:.\Generated_Source\PSoC4/BLE_eventHandler.c **** #ifdef CYBLE_HTS_SERVER
 327:.\Generated_Source\PSoC4/BLE_eventHandler.c ****     if(((cyBle_eventHandlerFlag & CYBLE_CALLBACK) != 0u) && (gattErr == CYBLE_GATT_ERR_NONE))
 328:.\Generated_Source\PSoC4/BLE_eventHandler.c ****     {
 329:.\Generated_Source\PSoC4/BLE_eventHandler.c ****         gattErr = CyBle_HtssWriteEventHandler(eventParam);
 330:.\Generated_Source\PSoC4/BLE_eventHandler.c ****     }
 331:.\Generated_Source\PSoC4/BLE_eventHandler.c **** #endif /* CYBLE_HTS_SERVER */
 332:.\Generated_Source\PSoC4/BLE_eventHandler.c **** #ifdef CYBLE_LLS_SERVER
 333:.\Generated_Source\PSoC4/BLE_eventHandler.c ****     if(((cyBle_eventHandlerFlag & CYBLE_CALLBACK) != 0u) && (gattErr == CYBLE_GATT_ERR_NONE))
 334:.\Generated_Source\PSoC4/BLE_eventHandler.c ****     {
 335:.\Generated_Source\PSoC4/BLE_eventHandler.c ****         gattErr = CyBle_LlssWriteEventHandler(eventParam);
 336:.\Generated_Source\PSoC4/BLE_eventHandler.c ****     }
 337:.\Generated_Source\PSoC4/BLE_eventHandler.c **** #endif /* CYBLE_LLS_SERVER */
 338:.\Generated_Source\PSoC4/BLE_eventHandler.c **** #ifdef CYBLE_LNS_SERVER
 339:.\Generated_Source\PSoC4/BLE_eventHandler.c ****     if(((cyBle_eventHandlerFlag & CYBLE_CALLBACK) != 0u) && (gattErr == CYBLE_GATT_ERR_NONE))
 340:.\Generated_Source\PSoC4/BLE_eventHandler.c ****     {
 341:.\Generated_Source\PSoC4/BLE_eventHandler.c ****         gattErr = CyBle_LnssWriteEventHandler(eventParam);
 342:.\Generated_Source\PSoC4/BLE_eventHandler.c ****     }
 343:.\Generated_Source\PSoC4/BLE_eventHandler.c **** #endif /* CYBLE_LNS_SERVER */
 344:.\Generated_Source\PSoC4/BLE_eventHandler.c **** #ifdef CYBLE_PASS_SERVER
 345:.\Generated_Source\PSoC4/BLE_eventHandler.c ****     if(((cyBle_eventHandlerFlag & CYBLE_CALLBACK) != 0u) && (gattErr == CYBLE_GATT_ERR_NONE))
 346:.\Generated_Source\PSoC4/BLE_eventHandler.c ****     {
 347:.\Generated_Source\PSoC4/BLE_eventHandler.c ****         gattErr = CyBle_PasssWriteEventHandler(eventParam);
 348:.\Generated_Source\PSoC4/BLE_eventHandler.c ****     }
 349:.\Generated_Source\PSoC4/BLE_eventHandler.c **** #endif /* CYBLE_PASS_SERVER */
 350:.\Generated_Source\PSoC4/BLE_eventHandler.c **** #ifdef CYBLE_RSCS_SERVER
 351:.\Generated_Source\PSoC4/BLE_eventHandler.c ****     if(((cyBle_eventHandlerFlag & CYBLE_CALLBACK) != 0u) && (gattErr == CYBLE_GATT_ERR_NONE))
 352:.\Generated_Source\PSoC4/BLE_eventHandler.c ****     {
 353:.\Generated_Source\PSoC4/BLE_eventHandler.c ****         gattErr = CyBle_RscssWriteEventHandler(eventParam);
 354:.\Generated_Source\PSoC4/BLE_eventHandler.c ****     }
 355:.\Generated_Source\PSoC4/BLE_eventHandler.c **** #endif /* CYBLE_RSCS_SERVER */
 356:.\Generated_Source\PSoC4/BLE_eventHandler.c **** #ifdef CYBLE_SCPS_SERVER
 357:.\Generated_Source\PSoC4/BLE_eventHandler.c ****     if(((cyBle_eventHandlerFlag & CYBLE_CALLBACK) != 0u) && (gattErr == CYBLE_GATT_ERR_NONE))
 358:.\Generated_Source\PSoC4/BLE_eventHandler.c ****     {
 359:.\Generated_Source\PSoC4/BLE_eventHandler.c ****         gattErr = CyBle_ScpssWriteEventHandler(eventParam);
 360:.\Generated_Source\PSoC4/BLE_eventHandler.c ****     }
 361:.\Generated_Source\PSoC4/BLE_eventHandler.c **** #endif /* CYBLE_SCPS_SERVER */
 362:.\Generated_Source\PSoC4/BLE_eventHandler.c **** #ifdef CYBLE_TPS_SERVER
 363:.\Generated_Source\PSoC4/BLE_eventHandler.c ****     if(((cyBle_eventHandlerFlag & CYBLE_CALLBACK) != 0u) && (gattErr == CYBLE_GATT_ERR_NONE))
 364:.\Generated_Source\PSoC4/BLE_eventHandler.c ****     {
 365:.\Generated_Source\PSoC4/BLE_eventHandler.c ****         gattErr = CyBle_TpssWriteEventHandler(eventParam);
 366:.\Generated_Source\PSoC4/BLE_eventHandler.c ****     }
 367:.\Generated_Source\PSoC4/BLE_eventHandler.c **** #endif /* CYBLE_TPS_SERVER */
 368:.\Generated_Source\PSoC4/BLE_eventHandler.c **** #ifdef CYBLE_UDS_SERVER
 369:.\Generated_Source\PSoC4/BLE_eventHandler.c ****     if(((cyBle_eventHandlerFlag & CYBLE_CALLBACK) != 0u) && (gattErr == CYBLE_GATT_ERR_NONE))
 370:.\Generated_Source\PSoC4/BLE_eventHandler.c ****     {
 371:.\Generated_Source\PSoC4/BLE_eventHandler.c ****         gattErr = CyBle_UdssWriteEventHandler(eventParam);
ARM GAS  C:\Users\YBOURA~1\AppData\Local\Temp\cc3HigXd.s 			page 9


 372:.\Generated_Source\PSoC4/BLE_eventHandler.c ****     }
 373:.\Generated_Source\PSoC4/BLE_eventHandler.c **** #endif /* CYBLE_UDS_SERVER */
 374:.\Generated_Source\PSoC4/BLE_eventHandler.c **** #ifdef CYBLE_WPTS_SERVER
 375:.\Generated_Source\PSoC4/BLE_eventHandler.c ****     if(((cyBle_eventHandlerFlag & CYBLE_CALLBACK) != 0u) && (gattErr == CYBLE_GATT_ERR_NONE))
 376:.\Generated_Source\PSoC4/BLE_eventHandler.c ****     {
 377:.\Generated_Source\PSoC4/BLE_eventHandler.c ****         gattErr = CyBle_WptssWriteEventHandler(eventParam);
 378:.\Generated_Source\PSoC4/BLE_eventHandler.c ****     }
 379:.\Generated_Source\PSoC4/BLE_eventHandler.c **** #endif /* CYBLE_WPTS_SERVER */
 380:.\Generated_Source\PSoC4/BLE_eventHandler.c **** #ifdef CYBLE_WSS_SERVER
 381:.\Generated_Source\PSoC4/BLE_eventHandler.c ****     if(((cyBle_eventHandlerFlag & CYBLE_CALLBACK) != 0u) && (gattErr == CYBLE_GATT_ERR_NONE))
 382:.\Generated_Source\PSoC4/BLE_eventHandler.c ****     {
 383:.\Generated_Source\PSoC4/BLE_eventHandler.c ****         gattErr = CyBle_WsssWriteEventHandler(eventParam);
 384:.\Generated_Source\PSoC4/BLE_eventHandler.c ****     }
 385:.\Generated_Source\PSoC4/BLE_eventHandler.c **** #endif /* CYBLE_WSS_SERVER */
 386:.\Generated_Source\PSoC4/BLE_eventHandler.c **** 
 387:.\Generated_Source\PSoC4/BLE_eventHandler.c ****     /* Send response when event was handled by service */
 388:.\Generated_Source\PSoC4/BLE_eventHandler.c ****     if((cyBle_eventHandlerFlag & CYBLE_CALLBACK) == 0u)
  82              		.loc 1 388 0
  83 0018 144B     		ldr	r3, .L4
  84 001a 1B78     		ldrb	r3, [r3]
  85 001c DBB2     		uxtb	r3, r3
  86 001e 1A1C     		mov	r2, r3
  87 0020 0123     		mov	r3, #1
  88 0022 1340     		and	r3, r2
  89 0024 1FD1     		bne	.L1
 389:.\Generated_Source\PSoC4/BLE_eventHandler.c ****     {
 390:.\Generated_Source\PSoC4/BLE_eventHandler.c ****         if(gattErr != CYBLE_GATT_ERR_NONE)
  90              		.loc 1 390 0
  91 0026 0F23     		mov	r3, #15
  92 0028 FB18     		add	r3, r7, r3
  93 002a 1B78     		ldrb	r3, [r3]
  94 002c 002B     		cmp	r3, #0
  95 002e 16D0     		beq	.L3
  96              	.LBB2:
 391:.\Generated_Source\PSoC4/BLE_eventHandler.c ****         {
 392:.\Generated_Source\PSoC4/BLE_eventHandler.c ****             CYBLE_GATTS_ERR_PARAM_T err_param;
 393:.\Generated_Source\PSoC4/BLE_eventHandler.c ****             
 394:.\Generated_Source\PSoC4/BLE_eventHandler.c ****             err_param.opcode = (uint8) CYBLE_GATT_WRITE_REQ;
  97              		.loc 1 394 0
  98 0030 0823     		mov	r3, #8
  99 0032 FB18     		add	r3, r7, r3
 100 0034 1222     		mov	r2, #18
 101 0036 9A70     		strb	r2, [r3, #2]
 395:.\Generated_Source\PSoC4/BLE_eventHandler.c ****             err_param.attrHandle = eventParam->handleValPair.attrHandle;
 102              		.loc 1 395 0
 103 0038 7B68     		ldr	r3, [r7, #4]
 104 003a 9A89     		ldrh	r2, [r3, #12]
 105 003c 0823     		mov	r3, #8
 106 003e FB18     		add	r3, r7, r3
 107 0040 1A80     		strh	r2, [r3]
 396:.\Generated_Source\PSoC4/BLE_eventHandler.c ****             err_param.errorCode = gattErr;
 108              		.loc 1 396 0
 109 0042 0823     		mov	r3, #8
 110 0044 FB18     		add	r3, r7, r3
 111 0046 0F22     		mov	r2, #15
 112 0048 BA18     		add	r2, r7, r2
 113 004a 1278     		ldrb	r2, [r2]
ARM GAS  C:\Users\YBOURA~1\AppData\Local\Temp\cc3HigXd.s 			page 10


 114 004c DA70     		strb	r2, [r3, #3]
 397:.\Generated_Source\PSoC4/BLE_eventHandler.c **** 
 398:.\Generated_Source\PSoC4/BLE_eventHandler.c ****             /* Send Error Response */
 399:.\Generated_Source\PSoC4/BLE_eventHandler.c ****             (void)CyBle_GattsErrorRsp(eventParam->connHandle, &err_param);
 115              		.loc 1 399 0
 116 004e 7B68     		ldr	r3, [r7, #4]
 117 0050 0822     		mov	r2, #8
 118 0052 BA18     		add	r2, r7, r2
 119 0054 1868     		ldr	r0, [r3]
 120 0056 111C     		mov	r1, r2
 121 0058 FFF7FEFF 		bl	CyBle_GattsErrorRsp
 122              	.LBE2:
 123 005c 03E0     		b	.L1
 124              	.L3:
 400:.\Generated_Source\PSoC4/BLE_eventHandler.c ****         }
 401:.\Generated_Source\PSoC4/BLE_eventHandler.c ****         else
 402:.\Generated_Source\PSoC4/BLE_eventHandler.c ****         {
 403:.\Generated_Source\PSoC4/BLE_eventHandler.c ****             (void)CyBle_GattsWriteRsp(eventParam->connHandle);
 125              		.loc 1 403 0
 126 005e 7B68     		ldr	r3, [r7, #4]
 127 0060 1868     		ldr	r0, [r3]
 128 0062 FFF7FEFF 		bl	CyBle_GattsWriteRsp
 129              	.L1:
 404:.\Generated_Source\PSoC4/BLE_eventHandler.c ****         }
 405:.\Generated_Source\PSoC4/BLE_eventHandler.c ****     }
 406:.\Generated_Source\PSoC4/BLE_eventHandler.c **** }
 130              		.loc 1 406 0
 131 0066 BD46     		mov	sp, r7
 132 0068 05B0     		add	sp, sp, #20
 133              		@ sp needed
 134 006a 90BD     		pop	{r4, r7, pc}
 135              	.L5:
 136              		.align	2
 137              	.L4:
 138 006c 00000000 		.word	cyBle_eventHandlerFlag
 139              		.cfi_endproc
 140              	.LFE2:
 141              		.size	CyBle_WriteReqHandler, .-CyBle_WriteReqHandler
 142              		.section	.text.CyBle_ValueConfirmation,"ax",%progbits
 143              		.align	2
 144              		.code	16
 145              		.thumb_func
 146              		.type	CyBle_ValueConfirmation, %function
 147              	CyBle_ValueConfirmation:
 148              	.LFB3:
 407:.\Generated_Source\PSoC4/BLE_eventHandler.c **** 
 408:.\Generated_Source\PSoC4/BLE_eventHandler.c **** 
 409:.\Generated_Source\PSoC4/BLE_eventHandler.c **** /****************************************************************************** 
 410:.\Generated_Source\PSoC4/BLE_eventHandler.c **** * Function Name: CyBle_ValueConfirmation
 411:.\Generated_Source\PSoC4/BLE_eventHandler.c **** ***************************************************************************//**
 412:.\Generated_Source\PSoC4/BLE_eventHandler.c **** * 
 413:.\Generated_Source\PSoC4/BLE_eventHandler.c **** *  Handles the Value Confirmation request event from the BLE stack.
 414:.\Generated_Source\PSoC4/BLE_eventHandler.c **** * 
 415:.\Generated_Source\PSoC4/BLE_eventHandler.c **** *  \param eventParam: Pointer to a structure of type 'CYBLE_CONN_HANDLE_T'
 416:.\Generated_Source\PSoC4/BLE_eventHandler.c **** * 
 417:.\Generated_Source\PSoC4/BLE_eventHandler.c **** * \return
 418:.\Generated_Source\PSoC4/BLE_eventHandler.c **** *  None
ARM GAS  C:\Users\YBOURA~1\AppData\Local\Temp\cc3HigXd.s 			page 11


 419:.\Generated_Source\PSoC4/BLE_eventHandler.c **** * 
 420:.\Generated_Source\PSoC4/BLE_eventHandler.c **** ******************************************************************************/
 421:.\Generated_Source\PSoC4/BLE_eventHandler.c **** static void CyBle_ValueConfirmation(const CYBLE_CONN_HANDLE_T *eventParam)
 422:.\Generated_Source\PSoC4/BLE_eventHandler.c **** {
 149              		.loc 1 422 0
 150              		.cfi_startproc
 151 0000 80B5     		push	{r7, lr}
 152              		.cfi_def_cfa_offset 8
 153              		.cfi_offset 7, -8
 154              		.cfi_offset 14, -4
 155 0002 82B0     		sub	sp, sp, #8
 156              		.cfi_def_cfa_offset 16
 157 0004 00AF     		add	r7, sp, #0
 158              		.cfi_def_cfa_register 7
 159 0006 7860     		str	r0, [r7, #4]
 423:.\Generated_Source\PSoC4/BLE_eventHandler.c ****     if(eventParam != NULL)
 424:.\Generated_Source\PSoC4/BLE_eventHandler.c ****     {
 425:.\Generated_Source\PSoC4/BLE_eventHandler.c ****     #ifdef CYBLE_BCS_SERVER
 426:.\Generated_Source\PSoC4/BLE_eventHandler.c ****         CyBle_BcssConfirmationEventHandler(eventParam);
 427:.\Generated_Source\PSoC4/BLE_eventHandler.c ****     #endif /* CYBLE_BCS_SERVER */
 428:.\Generated_Source\PSoC4/BLE_eventHandler.c ****     #ifdef CYBLE_BLS_SERVER
 429:.\Generated_Source\PSoC4/BLE_eventHandler.c ****         if((cyBle_eventHandlerFlag & CYBLE_CALLBACK) != 0u)
 430:.\Generated_Source\PSoC4/BLE_eventHandler.c ****         {
 431:.\Generated_Source\PSoC4/BLE_eventHandler.c ****             CyBle_BlssConfirmationEventHandler(eventParam);
 432:.\Generated_Source\PSoC4/BLE_eventHandler.c ****         }
 433:.\Generated_Source\PSoC4/BLE_eventHandler.c ****     #endif /* CYBLE_BLS_SERVER */
 434:.\Generated_Source\PSoC4/BLE_eventHandler.c ****     
 435:.\Generated_Source\PSoC4/BLE_eventHandler.c ****     #ifdef CYBLE_CGMS_SERVER
 436:.\Generated_Source\PSoC4/BLE_eventHandler.c ****         if((cyBle_eventHandlerFlag & CYBLE_CALLBACK) != 0u)
 437:.\Generated_Source\PSoC4/BLE_eventHandler.c ****         {
 438:.\Generated_Source\PSoC4/BLE_eventHandler.c ****             CyBle_CgmssConfirmationEventHandler(eventParam);
 439:.\Generated_Source\PSoC4/BLE_eventHandler.c ****         }
 440:.\Generated_Source\PSoC4/BLE_eventHandler.c ****     #endif /* CYBLE_CGMS_SERVER */
 441:.\Generated_Source\PSoC4/BLE_eventHandler.c ****     
 442:.\Generated_Source\PSoC4/BLE_eventHandler.c ****     #ifdef CYBLE_CPS_SERVER
 443:.\Generated_Source\PSoC4/BLE_eventHandler.c ****         if((cyBle_eventHandlerFlag & CYBLE_CALLBACK) != 0u)
 444:.\Generated_Source\PSoC4/BLE_eventHandler.c ****         {
 445:.\Generated_Source\PSoC4/BLE_eventHandler.c ****             CyBle_CpssConfirmationEventHandler(eventParam);
 446:.\Generated_Source\PSoC4/BLE_eventHandler.c ****         }
 447:.\Generated_Source\PSoC4/BLE_eventHandler.c ****     #endif /* CYBLE_CPS_SERVER */
 448:.\Generated_Source\PSoC4/BLE_eventHandler.c ****     
 449:.\Generated_Source\PSoC4/BLE_eventHandler.c ****     #ifdef CYBLE_CSCS_SERVER
 450:.\Generated_Source\PSoC4/BLE_eventHandler.c ****         if((cyBle_eventHandlerFlag & CYBLE_CALLBACK) != 0u)
 451:.\Generated_Source\PSoC4/BLE_eventHandler.c ****         {
 452:.\Generated_Source\PSoC4/BLE_eventHandler.c ****             CyBle_CscssConfirmationEventHandler(eventParam);
 453:.\Generated_Source\PSoC4/BLE_eventHandler.c ****         }
 454:.\Generated_Source\PSoC4/BLE_eventHandler.c ****     #endif /* CYBLE_CSCS_SERVER */
 455:.\Generated_Source\PSoC4/BLE_eventHandler.c ****     
 456:.\Generated_Source\PSoC4/BLE_eventHandler.c ****     #ifdef CYBLE_ESS_SERVER
 457:.\Generated_Source\PSoC4/BLE_eventHandler.c ****         if((cyBle_eventHandlerFlag & CYBLE_CALLBACK) != 0u)
 458:.\Generated_Source\PSoC4/BLE_eventHandler.c ****         {
 459:.\Generated_Source\PSoC4/BLE_eventHandler.c ****             CyBle_EsssConfirmationEventHandler(eventParam);
 460:.\Generated_Source\PSoC4/BLE_eventHandler.c ****         }
 461:.\Generated_Source\PSoC4/BLE_eventHandler.c ****     #endif /* CYBLE_ESS_SERVER */
 462:.\Generated_Source\PSoC4/BLE_eventHandler.c ****     
 463:.\Generated_Source\PSoC4/BLE_eventHandler.c ****     #ifdef CYBLE_GLS_SERVER
 464:.\Generated_Source\PSoC4/BLE_eventHandler.c ****         if((cyBle_eventHandlerFlag & CYBLE_CALLBACK) != 0u)
ARM GAS  C:\Users\YBOURA~1\AppData\Local\Temp\cc3HigXd.s 			page 12


 465:.\Generated_Source\PSoC4/BLE_eventHandler.c ****         {
 466:.\Generated_Source\PSoC4/BLE_eventHandler.c ****             CyBle_GlssConfirmationEventHandler(eventParam);
 467:.\Generated_Source\PSoC4/BLE_eventHandler.c ****         }
 468:.\Generated_Source\PSoC4/BLE_eventHandler.c ****     #endif /* CYBLE_GLS_SERVER */
 469:.\Generated_Source\PSoC4/BLE_eventHandler.c ****     
 470:.\Generated_Source\PSoC4/BLE_eventHandler.c ****     #ifdef CYBLE_HTS_SERVER
 471:.\Generated_Source\PSoC4/BLE_eventHandler.c ****         if((cyBle_eventHandlerFlag & CYBLE_CALLBACK) != 0u)
 472:.\Generated_Source\PSoC4/BLE_eventHandler.c ****         {
 473:.\Generated_Source\PSoC4/BLE_eventHandler.c ****             CyBle_HtssConfirmationEventHandler(eventParam);
 474:.\Generated_Source\PSoC4/BLE_eventHandler.c ****         }
 475:.\Generated_Source\PSoC4/BLE_eventHandler.c ****     #endif /* CYBLE_HTS_SERVER */
 476:.\Generated_Source\PSoC4/BLE_eventHandler.c **** 
 477:.\Generated_Source\PSoC4/BLE_eventHandler.c ****     #ifdef CYBLE_LNS_SERVER
 478:.\Generated_Source\PSoC4/BLE_eventHandler.c ****         if((cyBle_eventHandlerFlag & CYBLE_CALLBACK) != 0u)
 479:.\Generated_Source\PSoC4/BLE_eventHandler.c ****         {
 480:.\Generated_Source\PSoC4/BLE_eventHandler.c ****             CyBle_LnssConfirmationEventHandler(eventParam);
 481:.\Generated_Source\PSoC4/BLE_eventHandler.c ****         }
 482:.\Generated_Source\PSoC4/BLE_eventHandler.c ****     #endif /* CYBLE_LNS_SERVER */
 483:.\Generated_Source\PSoC4/BLE_eventHandler.c ****     
 484:.\Generated_Source\PSoC4/BLE_eventHandler.c ****     #ifdef CYBLE_RSCS_SERVER
 485:.\Generated_Source\PSoC4/BLE_eventHandler.c ****         if((cyBle_eventHandlerFlag & CYBLE_CALLBACK) != 0u)
 486:.\Generated_Source\PSoC4/BLE_eventHandler.c ****         {
 487:.\Generated_Source\PSoC4/BLE_eventHandler.c ****             CyBle_RscssConfirmationEventHandler(eventParam);
 488:.\Generated_Source\PSoC4/BLE_eventHandler.c ****         }
 489:.\Generated_Source\PSoC4/BLE_eventHandler.c ****     #endif /* CYBLE_RSCS_SERVER */
 490:.\Generated_Source\PSoC4/BLE_eventHandler.c ****     
 491:.\Generated_Source\PSoC4/BLE_eventHandler.c ****     #ifdef CYBLE_UDS_SERVER
 492:.\Generated_Source\PSoC4/BLE_eventHandler.c ****         if((cyBle_eventHandlerFlag & CYBLE_CALLBACK) != 0u)
 493:.\Generated_Source\PSoC4/BLE_eventHandler.c ****         {
 494:.\Generated_Source\PSoC4/BLE_eventHandler.c ****             CyBle_UdssConfirmationEventHandler(eventParam);
 495:.\Generated_Source\PSoC4/BLE_eventHandler.c ****         }
 496:.\Generated_Source\PSoC4/BLE_eventHandler.c ****     #endif /* CYBLE_UDS_SERVER */
 497:.\Generated_Source\PSoC4/BLE_eventHandler.c ****     
 498:.\Generated_Source\PSoC4/BLE_eventHandler.c ****     #ifdef CYBLE_WPTS_SERVER
 499:.\Generated_Source\PSoC4/BLE_eventHandler.c ****         if((cyBle_eventHandlerFlag & CYBLE_CALLBACK) != 0u)
 500:.\Generated_Source\PSoC4/BLE_eventHandler.c ****         {
 501:.\Generated_Source\PSoC4/BLE_eventHandler.c ****             CyBle_WptssConfirmationEventHandler(eventParam);
 502:.\Generated_Source\PSoC4/BLE_eventHandler.c ****         }
 503:.\Generated_Source\PSoC4/BLE_eventHandler.c ****     #endif /* CYBLE_WPTS_SERVER */
 504:.\Generated_Source\PSoC4/BLE_eventHandler.c ****     
 505:.\Generated_Source\PSoC4/BLE_eventHandler.c ****     #ifdef CYBLE_WSS_SERVER
 506:.\Generated_Source\PSoC4/BLE_eventHandler.c ****         if((cyBle_eventHandlerFlag & CYBLE_CALLBACK) != 0u)
 507:.\Generated_Source\PSoC4/BLE_eventHandler.c ****         {
 508:.\Generated_Source\PSoC4/BLE_eventHandler.c ****             CyBle_WsssConfirmationEventHandler(eventParam);
 509:.\Generated_Source\PSoC4/BLE_eventHandler.c ****         }
 510:.\Generated_Source\PSoC4/BLE_eventHandler.c ****     #endif /* CYBLE_WSS_SERVER */
 511:.\Generated_Source\PSoC4/BLE_eventHandler.c ****     }
 512:.\Generated_Source\PSoC4/BLE_eventHandler.c **** }
 160              		.loc 1 512 0
 161 0008 BD46     		mov	sp, r7
 162 000a 02B0     		add	sp, sp, #8
 163              		@ sp needed
 164 000c 80BD     		pop	{r7, pc}
 165              		.cfi_endproc
 166              	.LFE3:
 167              		.size	CyBle_ValueConfirmation, .-CyBle_ValueConfirmation
 168              		.section	.text.CyBle_GattcWriteResponseEventHandler,"ax",%progbits
ARM GAS  C:\Users\YBOURA~1\AppData\Local\Temp\cc3HigXd.s 			page 13


 169              		.align	2
 170              		.code	16
 171              		.thumb_func
 172              		.type	CyBle_GattcWriteResponseEventHandler, %function
 173              	CyBle_GattcWriteResponseEventHandler:
 174              	.LFB4:
 513:.\Generated_Source\PSoC4/BLE_eventHandler.c **** 
 514:.\Generated_Source\PSoC4/BLE_eventHandler.c **** #endif /* CYBLE_GATT_ROLE_SERVER */
 515:.\Generated_Source\PSoC4/BLE_eventHandler.c **** 
 516:.\Generated_Source\PSoC4/BLE_eventHandler.c **** 
 517:.\Generated_Source\PSoC4/BLE_eventHandler.c **** #if (CYBLE_GATT_ROLE_CLIENT)
 518:.\Generated_Source\PSoC4/BLE_eventHandler.c **** 
 519:.\Generated_Source\PSoC4/BLE_eventHandler.c **** /****************************************************************************** 
 520:.\Generated_Source\PSoC4/BLE_eventHandler.c **** * Function Name: CyBle_GattcWriteResponseEventHandler
 521:.\Generated_Source\PSoC4/BLE_eventHandler.c **** ***************************************************************************//**
 522:.\Generated_Source\PSoC4/BLE_eventHandler.c **** * 
 523:.\Generated_Source\PSoC4/BLE_eventHandler.c **** *  Handles the Write response event from the BLE stack.
 524:.\Generated_Source\PSoC4/BLE_eventHandler.c **** * 
 525:.\Generated_Source\PSoC4/BLE_eventHandler.c **** *  \param eventParam: Pointer to a structure of type 'CYBLE_CONN_HANDLE_T'
 526:.\Generated_Source\PSoC4/BLE_eventHandler.c **** * 
 527:.\Generated_Source\PSoC4/BLE_eventHandler.c **** * \return
 528:.\Generated_Source\PSoC4/BLE_eventHandler.c **** *  None
 529:.\Generated_Source\PSoC4/BLE_eventHandler.c **** * 
 530:.\Generated_Source\PSoC4/BLE_eventHandler.c **** ******************************************************************************/
 531:.\Generated_Source\PSoC4/BLE_eventHandler.c **** static void CyBle_GattcWriteResponseEventHandler(const CYBLE_CONN_HANDLE_T *eventParam)
 532:.\Generated_Source\PSoC4/BLE_eventHandler.c **** {
 175              		.loc 1 532 0
 176              		.cfi_startproc
 177 0000 80B5     		push	{r7, lr}
 178              		.cfi_def_cfa_offset 8
 179              		.cfi_offset 7, -8
 180              		.cfi_offset 14, -4
 181 0002 82B0     		sub	sp, sp, #8
 182              		.cfi_def_cfa_offset 16
 183 0004 00AF     		add	r7, sp, #0
 184              		.cfi_def_cfa_register 7
 185 0006 7860     		str	r0, [r7, #4]
 533:.\Generated_Source\PSoC4/BLE_eventHandler.c **** #ifdef CYBLE_ANCS_CLIENT
 534:.\Generated_Source\PSoC4/BLE_eventHandler.c ****     CyBle_AncscWriteResponseEventHandler(eventParam);
 535:.\Generated_Source\PSoC4/BLE_eventHandler.c **** #endif /* CYBLE_ANCS_CLIENT */
 536:.\Generated_Source\PSoC4/BLE_eventHandler.c **** 
 537:.\Generated_Source\PSoC4/BLE_eventHandler.c **** #ifdef CYBLE_ANS_CLIENT
 538:.\Generated_Source\PSoC4/BLE_eventHandler.c ****     if((cyBle_eventHandlerFlag & CYBLE_CALLBACK) != 0u)
 539:.\Generated_Source\PSoC4/BLE_eventHandler.c ****     {
 540:.\Generated_Source\PSoC4/BLE_eventHandler.c ****         CyBle_AnscWriteResponseEventHandler(eventParam);
 541:.\Generated_Source\PSoC4/BLE_eventHandler.c ****     }
 542:.\Generated_Source\PSoC4/BLE_eventHandler.c **** #endif /* CYBLE_ANS_CLIENT */
 543:.\Generated_Source\PSoC4/BLE_eventHandler.c **** 
 544:.\Generated_Source\PSoC4/BLE_eventHandler.c **** #ifdef CYBLE_BAS_CLIENT
 545:.\Generated_Source\PSoC4/BLE_eventHandler.c ****     if((cyBle_eventHandlerFlag & CYBLE_CALLBACK) != 0u)
 546:.\Generated_Source\PSoC4/BLE_eventHandler.c ****     {
 547:.\Generated_Source\PSoC4/BLE_eventHandler.c ****         CyBle_BascWriteResponseEventHandler(eventParam);
 548:.\Generated_Source\PSoC4/BLE_eventHandler.c ****     }
 549:.\Generated_Source\PSoC4/BLE_eventHandler.c **** #endif /* CYBLE_BAS_CLIENT */
 550:.\Generated_Source\PSoC4/BLE_eventHandler.c **** 
 551:.\Generated_Source\PSoC4/BLE_eventHandler.c **** #ifdef CYBLE_BCS_CLIENT
 552:.\Generated_Source\PSoC4/BLE_eventHandler.c ****     if((cyBle_eventHandlerFlag & CYBLE_CALLBACK) != 0u)
ARM GAS  C:\Users\YBOURA~1\AppData\Local\Temp\cc3HigXd.s 			page 14


 553:.\Generated_Source\PSoC4/BLE_eventHandler.c ****     {
 554:.\Generated_Source\PSoC4/BLE_eventHandler.c ****         CyBle_BcscWriteResponseEventHandler(eventParam);
 555:.\Generated_Source\PSoC4/BLE_eventHandler.c ****     }
 556:.\Generated_Source\PSoC4/BLE_eventHandler.c **** #endif /* CYBLE_BCS_CLIENT */
 557:.\Generated_Source\PSoC4/BLE_eventHandler.c **** 
 558:.\Generated_Source\PSoC4/BLE_eventHandler.c **** #ifdef CYBLE_BLS_CLIENT
 559:.\Generated_Source\PSoC4/BLE_eventHandler.c ****     if((cyBle_eventHandlerFlag & CYBLE_CALLBACK) != 0u)
 560:.\Generated_Source\PSoC4/BLE_eventHandler.c ****     {
 561:.\Generated_Source\PSoC4/BLE_eventHandler.c ****         CyBle_BlscWriteResponseEventHandler(eventParam);
 562:.\Generated_Source\PSoC4/BLE_eventHandler.c ****     }
 563:.\Generated_Source\PSoC4/BLE_eventHandler.c **** #endif /* CYBLE_BLS_CLIENT */
 564:.\Generated_Source\PSoC4/BLE_eventHandler.c **** 
 565:.\Generated_Source\PSoC4/BLE_eventHandler.c **** #ifdef CYBLE_BMS_CLIENT
 566:.\Generated_Source\PSoC4/BLE_eventHandler.c ****     if((cyBle_eventHandlerFlag & CYBLE_CALLBACK) != 0u)
 567:.\Generated_Source\PSoC4/BLE_eventHandler.c ****     {
 568:.\Generated_Source\PSoC4/BLE_eventHandler.c ****         CyBle_BmscWriteResponseEventHandler(eventParam);
 569:.\Generated_Source\PSoC4/BLE_eventHandler.c ****     }
 570:.\Generated_Source\PSoC4/BLE_eventHandler.c **** #endif /* CYBLE_BMS_CLIENT */
 571:.\Generated_Source\PSoC4/BLE_eventHandler.c **** 
 572:.\Generated_Source\PSoC4/BLE_eventHandler.c **** #ifdef CYBLE_CGMS_CLIENT
 573:.\Generated_Source\PSoC4/BLE_eventHandler.c ****     if((cyBle_eventHandlerFlag & CYBLE_CALLBACK) != 0u)
 574:.\Generated_Source\PSoC4/BLE_eventHandler.c ****     {
 575:.\Generated_Source\PSoC4/BLE_eventHandler.c ****         CyBle_CgmscWriteResponseEventHandler(eventParam);
 576:.\Generated_Source\PSoC4/BLE_eventHandler.c ****     }
 577:.\Generated_Source\PSoC4/BLE_eventHandler.c **** #endif /* CYBLE_CGMS_CLIENT */
 578:.\Generated_Source\PSoC4/BLE_eventHandler.c **** 
 579:.\Generated_Source\PSoC4/BLE_eventHandler.c **** #ifdef CYBLE_CPS_CLIENT
 580:.\Generated_Source\PSoC4/BLE_eventHandler.c ****     if((cyBle_eventHandlerFlag & CYBLE_CALLBACK) != 0u)
 581:.\Generated_Source\PSoC4/BLE_eventHandler.c ****     {
 582:.\Generated_Source\PSoC4/BLE_eventHandler.c ****         CyBle_CpscWriteResponseEventHandler(eventParam);
 583:.\Generated_Source\PSoC4/BLE_eventHandler.c ****     }
 584:.\Generated_Source\PSoC4/BLE_eventHandler.c **** #endif /* CYBLE_CPS_CLIENT */
 585:.\Generated_Source\PSoC4/BLE_eventHandler.c **** 
 586:.\Generated_Source\PSoC4/BLE_eventHandler.c **** #ifdef CYBLE_CSCS_CLIENT
 587:.\Generated_Source\PSoC4/BLE_eventHandler.c ****     if((cyBle_eventHandlerFlag & CYBLE_CALLBACK) != 0u)
 588:.\Generated_Source\PSoC4/BLE_eventHandler.c ****     {
 589:.\Generated_Source\PSoC4/BLE_eventHandler.c ****         CyBle_CscscWriteResponseEventHandler(eventParam);
 590:.\Generated_Source\PSoC4/BLE_eventHandler.c ****     }
 591:.\Generated_Source\PSoC4/BLE_eventHandler.c **** #endif /* CYBLE_CSCS_CLIENT */
 592:.\Generated_Source\PSoC4/BLE_eventHandler.c **** 
 593:.\Generated_Source\PSoC4/BLE_eventHandler.c **** #ifdef CYBLE_CTS_CLIENT
 594:.\Generated_Source\PSoC4/BLE_eventHandler.c ****     if((cyBle_eventHandlerFlag & CYBLE_CALLBACK) != 0u)
 595:.\Generated_Source\PSoC4/BLE_eventHandler.c ****     {
 596:.\Generated_Source\PSoC4/BLE_eventHandler.c ****         CyBle_CtscWriteResponseEventHandler(eventParam);
 597:.\Generated_Source\PSoC4/BLE_eventHandler.c ****     }
 598:.\Generated_Source\PSoC4/BLE_eventHandler.c **** #endif /* CYBLE_CTS_CLIENT */
 599:.\Generated_Source\PSoC4/BLE_eventHandler.c **** 
 600:.\Generated_Source\PSoC4/BLE_eventHandler.c **** #ifdef CYBLE_ESS_CLIENT
 601:.\Generated_Source\PSoC4/BLE_eventHandler.c ****     if((cyBle_eventHandlerFlag & CYBLE_CALLBACK) != 0u)
 602:.\Generated_Source\PSoC4/BLE_eventHandler.c ****     {
 603:.\Generated_Source\PSoC4/BLE_eventHandler.c ****         CyBle_EsscWriteResponseEventHandler(eventParam);
 604:.\Generated_Source\PSoC4/BLE_eventHandler.c ****     }
 605:.\Generated_Source\PSoC4/BLE_eventHandler.c **** #endif /* CYBLE_ESS_CLIENT */
 606:.\Generated_Source\PSoC4/BLE_eventHandler.c **** 
 607:.\Generated_Source\PSoC4/BLE_eventHandler.c **** #ifdef CYBLE_GLS_CLIENT
 608:.\Generated_Source\PSoC4/BLE_eventHandler.c ****     if((cyBle_eventHandlerFlag & CYBLE_CALLBACK) != 0u)
 609:.\Generated_Source\PSoC4/BLE_eventHandler.c ****     {
ARM GAS  C:\Users\YBOURA~1\AppData\Local\Temp\cc3HigXd.s 			page 15


 610:.\Generated_Source\PSoC4/BLE_eventHandler.c ****         CyBle_GlscWriteResponseEventHandler(eventParam);
 611:.\Generated_Source\PSoC4/BLE_eventHandler.c ****     }
 612:.\Generated_Source\PSoC4/BLE_eventHandler.c **** #endif /* CYBLE_GLS_CLIENT */
 613:.\Generated_Source\PSoC4/BLE_eventHandler.c **** 
 614:.\Generated_Source\PSoC4/BLE_eventHandler.c **** #ifdef CYBLE_HIDS_CLIENT
 615:.\Generated_Source\PSoC4/BLE_eventHandler.c ****     if((cyBle_eventHandlerFlag & CYBLE_CALLBACK) != 0u)
 616:.\Generated_Source\PSoC4/BLE_eventHandler.c ****     {
 617:.\Generated_Source\PSoC4/BLE_eventHandler.c ****         CyBle_HidscWriteResponseEventHandler(eventParam);
 618:.\Generated_Source\PSoC4/BLE_eventHandler.c ****     }
 619:.\Generated_Source\PSoC4/BLE_eventHandler.c **** #endif /* CYBLE_HIDS_CLIENT */
 620:.\Generated_Source\PSoC4/BLE_eventHandler.c **** 
 621:.\Generated_Source\PSoC4/BLE_eventHandler.c **** #ifdef CYBLE_HRS_CLIENT
 622:.\Generated_Source\PSoC4/BLE_eventHandler.c ****     if((cyBle_eventHandlerFlag & CYBLE_CALLBACK) != 0u)
 623:.\Generated_Source\PSoC4/BLE_eventHandler.c ****     {
 624:.\Generated_Source\PSoC4/BLE_eventHandler.c ****         CyBle_HrscWriteResponseEventHandler(eventParam);
 625:.\Generated_Source\PSoC4/BLE_eventHandler.c ****     }
 626:.\Generated_Source\PSoC4/BLE_eventHandler.c **** #endif /* CYBLE_HRS_CLIENT */
 627:.\Generated_Source\PSoC4/BLE_eventHandler.c **** 
 628:.\Generated_Source\PSoC4/BLE_eventHandler.c **** #ifdef CYBLE_HTS_CLIENT
 629:.\Generated_Source\PSoC4/BLE_eventHandler.c ****     if((cyBle_eventHandlerFlag & CYBLE_CALLBACK) != 0u)
 630:.\Generated_Source\PSoC4/BLE_eventHandler.c ****     {
 631:.\Generated_Source\PSoC4/BLE_eventHandler.c ****         CyBle_HtscWriteResponseEventHandler(eventParam);
 632:.\Generated_Source\PSoC4/BLE_eventHandler.c ****     }
 633:.\Generated_Source\PSoC4/BLE_eventHandler.c **** #endif /* CYBLE_HTS_CLIENT */
 634:.\Generated_Source\PSoC4/BLE_eventHandler.c **** 
 635:.\Generated_Source\PSoC4/BLE_eventHandler.c **** #ifdef CYBLE_LLS_CLIENT
 636:.\Generated_Source\PSoC4/BLE_eventHandler.c ****     if((cyBle_eventHandlerFlag & CYBLE_CALLBACK) != 0u)
 637:.\Generated_Source\PSoC4/BLE_eventHandler.c ****     {
 638:.\Generated_Source\PSoC4/BLE_eventHandler.c ****         CyBle_LlscWriteResponseEventHandler(eventParam);
 639:.\Generated_Source\PSoC4/BLE_eventHandler.c ****     }
 640:.\Generated_Source\PSoC4/BLE_eventHandler.c **** #endif /* CYBLE_LLS_CLIENT */
 641:.\Generated_Source\PSoC4/BLE_eventHandler.c **** 
 642:.\Generated_Source\PSoC4/BLE_eventHandler.c **** #ifdef CYBLE_LNS_CLIENT
 643:.\Generated_Source\PSoC4/BLE_eventHandler.c ****     if((cyBle_eventHandlerFlag & CYBLE_CALLBACK) != 0u)
 644:.\Generated_Source\PSoC4/BLE_eventHandler.c ****     {
 645:.\Generated_Source\PSoC4/BLE_eventHandler.c ****         CyBle_LnscWriteResponseEventHandler(eventParam);
 646:.\Generated_Source\PSoC4/BLE_eventHandler.c ****     }
 647:.\Generated_Source\PSoC4/BLE_eventHandler.c **** #endif /* CYBLE_LNS_CLIENT */
 648:.\Generated_Source\PSoC4/BLE_eventHandler.c **** 
 649:.\Generated_Source\PSoC4/BLE_eventHandler.c **** #ifdef CYBLE_PASS_CLIENT
 650:.\Generated_Source\PSoC4/BLE_eventHandler.c ****     if((cyBle_eventHandlerFlag & CYBLE_CALLBACK) != 0u)
 651:.\Generated_Source\PSoC4/BLE_eventHandler.c ****     {
 652:.\Generated_Source\PSoC4/BLE_eventHandler.c ****         CyBle_PasscWriteResponseEventHandler(eventParam);
 653:.\Generated_Source\PSoC4/BLE_eventHandler.c ****     }
 654:.\Generated_Source\PSoC4/BLE_eventHandler.c **** #endif /* CYBLE_PASS_CLIENT */
 655:.\Generated_Source\PSoC4/BLE_eventHandler.c **** 
 656:.\Generated_Source\PSoC4/BLE_eventHandler.c **** #ifdef CYBLE_RSCS_CLIENT
 657:.\Generated_Source\PSoC4/BLE_eventHandler.c ****     if((cyBle_eventHandlerFlag & CYBLE_CALLBACK) != 0u)
 658:.\Generated_Source\PSoC4/BLE_eventHandler.c ****     {
 659:.\Generated_Source\PSoC4/BLE_eventHandler.c ****         CyBle_RscscWriteResponseEventHandler(eventParam);
 660:.\Generated_Source\PSoC4/BLE_eventHandler.c ****     }
 661:.\Generated_Source\PSoC4/BLE_eventHandler.c **** #endif /* CYBLE_RSCS_CLIENT */
 662:.\Generated_Source\PSoC4/BLE_eventHandler.c **** 
 663:.\Generated_Source\PSoC4/BLE_eventHandler.c **** #ifdef CYBLE_SCPS_CLIENT
 664:.\Generated_Source\PSoC4/BLE_eventHandler.c ****     if((cyBle_eventHandlerFlag & CYBLE_CALLBACK) != 0u)
 665:.\Generated_Source\PSoC4/BLE_eventHandler.c ****     {
 666:.\Generated_Source\PSoC4/BLE_eventHandler.c ****         CyBle_ScpscWriteResponseEventHandler(eventParam);
ARM GAS  C:\Users\YBOURA~1\AppData\Local\Temp\cc3HigXd.s 			page 16


 667:.\Generated_Source\PSoC4/BLE_eventHandler.c ****     }
 668:.\Generated_Source\PSoC4/BLE_eventHandler.c **** #endif /* CYBLE_SCPS_CLIENT */
 669:.\Generated_Source\PSoC4/BLE_eventHandler.c **** 
 670:.\Generated_Source\PSoC4/BLE_eventHandler.c **** #ifdef CYBLE_TPS_CLIENT
 671:.\Generated_Source\PSoC4/BLE_eventHandler.c ****     if((cyBle_eventHandlerFlag & CYBLE_CALLBACK) != 0u)
 672:.\Generated_Source\PSoC4/BLE_eventHandler.c ****     {
 673:.\Generated_Source\PSoC4/BLE_eventHandler.c ****         CyBle_TpscWriteResponseEventHandler(eventParam);
 674:.\Generated_Source\PSoC4/BLE_eventHandler.c ****     }
 675:.\Generated_Source\PSoC4/BLE_eventHandler.c **** #endif /* CYBLE_TPS_CLIENT */
 676:.\Generated_Source\PSoC4/BLE_eventHandler.c **** 
 677:.\Generated_Source\PSoC4/BLE_eventHandler.c **** #ifdef CYBLE_UDS_CLIENT
 678:.\Generated_Source\PSoC4/BLE_eventHandler.c ****     if((cyBle_eventHandlerFlag & CYBLE_CALLBACK) != 0u)
 679:.\Generated_Source\PSoC4/BLE_eventHandler.c ****     {
 680:.\Generated_Source\PSoC4/BLE_eventHandler.c ****         CyBle_UdscWriteResponseEventHandler(eventParam);
 681:.\Generated_Source\PSoC4/BLE_eventHandler.c ****     }
 682:.\Generated_Source\PSoC4/BLE_eventHandler.c **** #endif /* CYBLE_UDS_CLIENT */
 683:.\Generated_Source\PSoC4/BLE_eventHandler.c **** #ifdef CYBLE_WPTS_CLIENT
 684:.\Generated_Source\PSoC4/BLE_eventHandler.c ****     if((cyBle_eventHandlerFlag & CYBLE_CALLBACK) != 0u)
 685:.\Generated_Source\PSoC4/BLE_eventHandler.c ****     {
 686:.\Generated_Source\PSoC4/BLE_eventHandler.c ****         CyBle_WptscWriteResponseEventHandler(eventParam);
 687:.\Generated_Source\PSoC4/BLE_eventHandler.c ****     }
 688:.\Generated_Source\PSoC4/BLE_eventHandler.c **** #endif /* CYBLE_WPTS_CLIENT */
 689:.\Generated_Source\PSoC4/BLE_eventHandler.c **** #ifdef CYBLE_WSS_CLIENT
 690:.\Generated_Source\PSoC4/BLE_eventHandler.c ****     if((cyBle_eventHandlerFlag & CYBLE_CALLBACK) != 0u)
 691:.\Generated_Source\PSoC4/BLE_eventHandler.c ****     {
 692:.\Generated_Source\PSoC4/BLE_eventHandler.c ****         CyBle_WsscWriteResponseEventHandler(eventParam);
 693:.\Generated_Source\PSoC4/BLE_eventHandler.c ****     }
 694:.\Generated_Source\PSoC4/BLE_eventHandler.c **** #endif /* CYBLE_WSS_CLIENT */
 695:.\Generated_Source\PSoC4/BLE_eventHandler.c **** }
 186              		.loc 1 695 0
 187 0008 BD46     		mov	sp, r7
 188 000a 02B0     		add	sp, sp, #8
 189              		@ sp needed
 190 000c 80BD     		pop	{r7, pc}
 191              		.cfi_endproc
 192              	.LFE4:
 193              		.size	CyBle_GattcWriteResponseEventHandler, .-CyBle_GattcWriteResponseEventHandler
 194              		.section	.text.CyBle_NotificationEventHandler,"ax",%progbits
 195              		.align	2
 196              		.code	16
 197              		.thumb_func
 198              		.type	CyBle_NotificationEventHandler, %function
 199              	CyBle_NotificationEventHandler:
 200              	.LFB5:
 696:.\Generated_Source\PSoC4/BLE_eventHandler.c **** 
 697:.\Generated_Source\PSoC4/BLE_eventHandler.c **** 
 698:.\Generated_Source\PSoC4/BLE_eventHandler.c **** /******************************************************************************    
 699:.\Generated_Source\PSoC4/BLE_eventHandler.c **** * Function Name: CyBle_NotificationEventHandler
 700:.\Generated_Source\PSoC4/BLE_eventHandler.c **** ***************************************************************************//**
 701:.\Generated_Source\PSoC4/BLE_eventHandler.c **** * 
 702:.\Generated_Source\PSoC4/BLE_eventHandler.c **** *  Handles the Notification event from BLE stack.
 703:.\Generated_Source\PSoC4/BLE_eventHandler.c **** * 
 704:.\Generated_Source\PSoC4/BLE_eventHandler.c **** *  \param eventParam: event parameter
 705:.\Generated_Source\PSoC4/BLE_eventHandler.c **** * 
 706:.\Generated_Source\PSoC4/BLE_eventHandler.c **** * \return
 707:.\Generated_Source\PSoC4/BLE_eventHandler.c **** *  None
 708:.\Generated_Source\PSoC4/BLE_eventHandler.c **** * 
ARM GAS  C:\Users\YBOURA~1\AppData\Local\Temp\cc3HigXd.s 			page 17


 709:.\Generated_Source\PSoC4/BLE_eventHandler.c **** ******************************************************************************/
 710:.\Generated_Source\PSoC4/BLE_eventHandler.c **** static void CyBle_NotificationEventHandler(CYBLE_GATTC_HANDLE_VALUE_NTF_PARAM_T *eventParam)
 711:.\Generated_Source\PSoC4/BLE_eventHandler.c **** {
 201              		.loc 1 711 0
 202              		.cfi_startproc
 203 0000 80B5     		push	{r7, lr}
 204              		.cfi_def_cfa_offset 8
 205              		.cfi_offset 7, -8
 206              		.cfi_offset 14, -4
 207 0002 82B0     		sub	sp, sp, #8
 208              		.cfi_def_cfa_offset 16
 209 0004 00AF     		add	r7, sp, #0
 210              		.cfi_def_cfa_register 7
 211 0006 7860     		str	r0, [r7, #4]
 712:.\Generated_Source\PSoC4/BLE_eventHandler.c **** #ifdef CYBLE_ANCS_CLIENT
 713:.\Generated_Source\PSoC4/BLE_eventHandler.c ****     CyBle_AncscNotificationEventHandler(eventParam);
 714:.\Generated_Source\PSoC4/BLE_eventHandler.c **** #endif /* CYBLE_ANCS_CLIENT */
 715:.\Generated_Source\PSoC4/BLE_eventHandler.c **** #ifdef CYBLE_ANS_CLIENT
 716:.\Generated_Source\PSoC4/BLE_eventHandler.c ****     if((cyBle_eventHandlerFlag & CYBLE_CALLBACK) != 0u)
 717:.\Generated_Source\PSoC4/BLE_eventHandler.c ****     {
 718:.\Generated_Source\PSoC4/BLE_eventHandler.c ****         CyBle_AnscNotificationEventHandler(eventParam);
 719:.\Generated_Source\PSoC4/BLE_eventHandler.c ****     }
 720:.\Generated_Source\PSoC4/BLE_eventHandler.c **** #endif /* CYBLE_ANS_CLIENT */
 721:.\Generated_Source\PSoC4/BLE_eventHandler.c **** #ifdef CYBLE_BAS_CLIENT
 722:.\Generated_Source\PSoC4/BLE_eventHandler.c ****     if((cyBle_eventHandlerFlag & CYBLE_CALLBACK) != 0u)
 723:.\Generated_Source\PSoC4/BLE_eventHandler.c ****     {
 724:.\Generated_Source\PSoC4/BLE_eventHandler.c ****         CyBle_BascNotificationEventHandler(eventParam);
 725:.\Generated_Source\PSoC4/BLE_eventHandler.c ****     }
 726:.\Generated_Source\PSoC4/BLE_eventHandler.c **** #endif /* CYBLE_BAS_CLIENT */
 727:.\Generated_Source\PSoC4/BLE_eventHandler.c **** #ifdef CYBLE_BLS_CLIENT
 728:.\Generated_Source\PSoC4/BLE_eventHandler.c ****     if((cyBle_eventHandlerFlag & CYBLE_CALLBACK) != 0u)
 729:.\Generated_Source\PSoC4/BLE_eventHandler.c ****     {
 730:.\Generated_Source\PSoC4/BLE_eventHandler.c ****         CyBle_BlscNotificationEventHandler(eventParam);
 731:.\Generated_Source\PSoC4/BLE_eventHandler.c ****     }
 732:.\Generated_Source\PSoC4/BLE_eventHandler.c **** #endif /* CYBLE_BLS_CLIENT */
 733:.\Generated_Source\PSoC4/BLE_eventHandler.c **** #ifdef CYBLE_CGMS_CLIENT
 734:.\Generated_Source\PSoC4/BLE_eventHandler.c ****     if((cyBle_eventHandlerFlag & CYBLE_CALLBACK) != 0u)
 735:.\Generated_Source\PSoC4/BLE_eventHandler.c ****     {
 736:.\Generated_Source\PSoC4/BLE_eventHandler.c ****         CyBle_CgmscNotificationEventHandler(eventParam);
 737:.\Generated_Source\PSoC4/BLE_eventHandler.c ****     }
 738:.\Generated_Source\PSoC4/BLE_eventHandler.c **** #endif /* CYBLE_CGMS_CLIENT */
 739:.\Generated_Source\PSoC4/BLE_eventHandler.c **** #ifdef CYBLE_CPS_CLIENT
 740:.\Generated_Source\PSoC4/BLE_eventHandler.c ****     if((cyBle_eventHandlerFlag & CYBLE_CALLBACK) != 0u)
 741:.\Generated_Source\PSoC4/BLE_eventHandler.c ****     {
 742:.\Generated_Source\PSoC4/BLE_eventHandler.c ****         CyBle_CpscNotificationEventHandler(eventParam);
 743:.\Generated_Source\PSoC4/BLE_eventHandler.c ****     }
 744:.\Generated_Source\PSoC4/BLE_eventHandler.c **** #endif /* CYBLE_CPS_CLIENT */
 745:.\Generated_Source\PSoC4/BLE_eventHandler.c **** #ifdef CYBLE_CSCS_CLIENT
 746:.\Generated_Source\PSoC4/BLE_eventHandler.c ****     if((cyBle_eventHandlerFlag & CYBLE_CALLBACK) != 0u)
 747:.\Generated_Source\PSoC4/BLE_eventHandler.c ****     {
 748:.\Generated_Source\PSoC4/BLE_eventHandler.c ****         CyBle_CscscNotificationEventHandler(eventParam);
 749:.\Generated_Source\PSoC4/BLE_eventHandler.c ****     }
 750:.\Generated_Source\PSoC4/BLE_eventHandler.c **** #endif /* CYBLE_CSCS_CLIENT */
 751:.\Generated_Source\PSoC4/BLE_eventHandler.c **** #ifdef CYBLE_CTS_CLIENT
 752:.\Generated_Source\PSoC4/BLE_eventHandler.c ****     if((cyBle_eventHandlerFlag & CYBLE_CALLBACK) != 0u)
 753:.\Generated_Source\PSoC4/BLE_eventHandler.c ****     {
 754:.\Generated_Source\PSoC4/BLE_eventHandler.c ****         CyBle_CtscNotificationEventHandler(eventParam);
ARM GAS  C:\Users\YBOURA~1\AppData\Local\Temp\cc3HigXd.s 			page 18


 755:.\Generated_Source\PSoC4/BLE_eventHandler.c ****     }
 756:.\Generated_Source\PSoC4/BLE_eventHandler.c **** #endif /* CYBLE_CTS_CLIENT */
 757:.\Generated_Source\PSoC4/BLE_eventHandler.c **** #ifdef CYBLE_ESS_CLIENT
 758:.\Generated_Source\PSoC4/BLE_eventHandler.c ****     if((cyBle_eventHandlerFlag & CYBLE_CALLBACK) != 0u)
 759:.\Generated_Source\PSoC4/BLE_eventHandler.c ****     {
 760:.\Generated_Source\PSoC4/BLE_eventHandler.c ****         CyBle_EsscNotificationEventHandler(eventParam);
 761:.\Generated_Source\PSoC4/BLE_eventHandler.c ****     }
 762:.\Generated_Source\PSoC4/BLE_eventHandler.c **** #endif /* CYBLE_ESS_CLIENT */
 763:.\Generated_Source\PSoC4/BLE_eventHandler.c **** #ifdef CYBLE_GLS_CLIENT
 764:.\Generated_Source\PSoC4/BLE_eventHandler.c ****     if((cyBle_eventHandlerFlag & CYBLE_CALLBACK) != 0u)
 765:.\Generated_Source\PSoC4/BLE_eventHandler.c ****     {
 766:.\Generated_Source\PSoC4/BLE_eventHandler.c ****         CyBle_GlscNotificationEventHandler(eventParam);
 767:.\Generated_Source\PSoC4/BLE_eventHandler.c ****     }
 768:.\Generated_Source\PSoC4/BLE_eventHandler.c **** #endif /* CYBLE_GLS_CLIENT */
 769:.\Generated_Source\PSoC4/BLE_eventHandler.c **** #ifdef CYBLE_HIDS_CLIENT
 770:.\Generated_Source\PSoC4/BLE_eventHandler.c ****     if((cyBle_eventHandlerFlag & CYBLE_CALLBACK) != 0u)
 771:.\Generated_Source\PSoC4/BLE_eventHandler.c ****     {
 772:.\Generated_Source\PSoC4/BLE_eventHandler.c ****         CyBle_HidscNotificationEventHandler(eventParam);
 773:.\Generated_Source\PSoC4/BLE_eventHandler.c ****     }
 774:.\Generated_Source\PSoC4/BLE_eventHandler.c **** #endif /* CYBLE_HIDS_CLIENT */
 775:.\Generated_Source\PSoC4/BLE_eventHandler.c **** #ifdef CYBLE_HRS_CLIENT
 776:.\Generated_Source\PSoC4/BLE_eventHandler.c ****     if((cyBle_eventHandlerFlag & CYBLE_CALLBACK) != 0u)
 777:.\Generated_Source\PSoC4/BLE_eventHandler.c ****     {
 778:.\Generated_Source\PSoC4/BLE_eventHandler.c ****         CyBle_HrscNotificationEventHandler(eventParam);
 779:.\Generated_Source\PSoC4/BLE_eventHandler.c ****     }
 780:.\Generated_Source\PSoC4/BLE_eventHandler.c **** #endif /* CYBLE_HRS_CLIENT */
 781:.\Generated_Source\PSoC4/BLE_eventHandler.c **** #ifdef CYBLE_HTS_CLIENT
 782:.\Generated_Source\PSoC4/BLE_eventHandler.c ****     if((cyBle_eventHandlerFlag & CYBLE_CALLBACK) != 0u)
 783:.\Generated_Source\PSoC4/BLE_eventHandler.c ****     {
 784:.\Generated_Source\PSoC4/BLE_eventHandler.c ****         CyBle_HtscNotificationEventHandler(eventParam);
 785:.\Generated_Source\PSoC4/BLE_eventHandler.c ****     }
 786:.\Generated_Source\PSoC4/BLE_eventHandler.c **** #endif /* CYBLE_HTS_CLIENT */
 787:.\Generated_Source\PSoC4/BLE_eventHandler.c **** #ifdef CYBLE_LNS_CLIENT
 788:.\Generated_Source\PSoC4/BLE_eventHandler.c ****     if((cyBle_eventHandlerFlag & CYBLE_CALLBACK) != 0u)
 789:.\Generated_Source\PSoC4/BLE_eventHandler.c ****     {
 790:.\Generated_Source\PSoC4/BLE_eventHandler.c ****         CyBle_LnscNotificationEventHandler(eventParam);
 791:.\Generated_Source\PSoC4/BLE_eventHandler.c ****     }
 792:.\Generated_Source\PSoC4/BLE_eventHandler.c **** #endif /* CYBLE_LNS_CLIENT */
 793:.\Generated_Source\PSoC4/BLE_eventHandler.c **** #ifdef CYBLE_PASS_CLIENT
 794:.\Generated_Source\PSoC4/BLE_eventHandler.c ****     if((cyBle_eventHandlerFlag & CYBLE_CALLBACK) != 0u)
 795:.\Generated_Source\PSoC4/BLE_eventHandler.c ****     {
 796:.\Generated_Source\PSoC4/BLE_eventHandler.c ****         CyBle_PasscNotificationEventHandler(eventParam);
 797:.\Generated_Source\PSoC4/BLE_eventHandler.c ****     }
 798:.\Generated_Source\PSoC4/BLE_eventHandler.c **** #endif /* CYBLE_PASS_CLIENT */
 799:.\Generated_Source\PSoC4/BLE_eventHandler.c **** #ifdef CYBLE_RSCS_CLIENT
 800:.\Generated_Source\PSoC4/BLE_eventHandler.c ****     if((cyBle_eventHandlerFlag & CYBLE_CALLBACK) != 0u)
 801:.\Generated_Source\PSoC4/BLE_eventHandler.c ****     {
 802:.\Generated_Source\PSoC4/BLE_eventHandler.c ****         CyBle_RscscNotificationEventHandler(eventParam);
 803:.\Generated_Source\PSoC4/BLE_eventHandler.c ****     }
 804:.\Generated_Source\PSoC4/BLE_eventHandler.c **** #endif /* CYBLE_RSCS_CLIENT */
 805:.\Generated_Source\PSoC4/BLE_eventHandler.c **** #ifdef CYBLE_SCPS_CLIENT
 806:.\Generated_Source\PSoC4/BLE_eventHandler.c ****     if((cyBle_eventHandlerFlag & CYBLE_CALLBACK) != 0u)
 807:.\Generated_Source\PSoC4/BLE_eventHandler.c ****     {
 808:.\Generated_Source\PSoC4/BLE_eventHandler.c ****         CyBle_ScpscNotificationEventHandler(eventParam);
 809:.\Generated_Source\PSoC4/BLE_eventHandler.c ****     }
 810:.\Generated_Source\PSoC4/BLE_eventHandler.c **** #endif /* CYBLE_SCPS_CLIENT */
 811:.\Generated_Source\PSoC4/BLE_eventHandler.c **** #ifdef CYBLE_TPS_CLIENT
ARM GAS  C:\Users\YBOURA~1\AppData\Local\Temp\cc3HigXd.s 			page 19


 812:.\Generated_Source\PSoC4/BLE_eventHandler.c ****     if((cyBle_eventHandlerFlag & CYBLE_CALLBACK) != 0u)
 813:.\Generated_Source\PSoC4/BLE_eventHandler.c ****     {
 814:.\Generated_Source\PSoC4/BLE_eventHandler.c ****         CyBle_TpscNotificationEventHandler(eventParam);
 815:.\Generated_Source\PSoC4/BLE_eventHandler.c ****     }
 816:.\Generated_Source\PSoC4/BLE_eventHandler.c **** #endif /* CYBLE_TPS_CLIENT */
 817:.\Generated_Source\PSoC4/BLE_eventHandler.c **** #ifdef CYBLE_UDS_CLIENT
 818:.\Generated_Source\PSoC4/BLE_eventHandler.c ****     if((cyBle_eventHandlerFlag & CYBLE_CALLBACK) != 0u)
 819:.\Generated_Source\PSoC4/BLE_eventHandler.c ****     {
 820:.\Generated_Source\PSoC4/BLE_eventHandler.c ****         CyBle_UdscNotificationEventHandler(eventParam);
 821:.\Generated_Source\PSoC4/BLE_eventHandler.c ****     }
 822:.\Generated_Source\PSoC4/BLE_eventHandler.c **** #endif /* CYBLE_UDS_CLIENT */
 823:.\Generated_Source\PSoC4/BLE_eventHandler.c **** #ifdef CYBLE_WPTS_CLIENT
 824:.\Generated_Source\PSoC4/BLE_eventHandler.c ****     if((cyBle_eventHandlerFlag & CYBLE_CALLBACK) != 0u)
 825:.\Generated_Source\PSoC4/BLE_eventHandler.c ****     {
 826:.\Generated_Source\PSoC4/BLE_eventHandler.c ****         CyBle_WptscNotificationEventHandler(eventParam);
 827:.\Generated_Source\PSoC4/BLE_eventHandler.c ****     }
 828:.\Generated_Source\PSoC4/BLE_eventHandler.c **** #endif /* CYBLE_WPTS_CLIENT */
 829:.\Generated_Source\PSoC4/BLE_eventHandler.c **** }
 212              		.loc 1 829 0
 213 0008 BD46     		mov	sp, r7
 214 000a 02B0     		add	sp, sp, #8
 215              		@ sp needed
 216 000c 80BD     		pop	{r7, pc}
 217              		.cfi_endproc
 218              	.LFE5:
 219              		.size	CyBle_NotificationEventHandler, .-CyBle_NotificationEventHandler
 220              		.section	.text.CyBle_IndicationEventHandler,"ax",%progbits
 221              		.align	2
 222              		.code	16
 223              		.thumb_func
 224              		.type	CyBle_IndicationEventHandler, %function
 225              	CyBle_IndicationEventHandler:
 226              	.LFB6:
 830:.\Generated_Source\PSoC4/BLE_eventHandler.c **** 
 831:.\Generated_Source\PSoC4/BLE_eventHandler.c **** 
 832:.\Generated_Source\PSoC4/BLE_eventHandler.c **** /******************************************************************************    
 833:.\Generated_Source\PSoC4/BLE_eventHandler.c **** * Function Name: CyBle_IndicationEventHandler
 834:.\Generated_Source\PSoC4/BLE_eventHandler.c **** ***************************************************************************//**
 835:.\Generated_Source\PSoC4/BLE_eventHandler.c **** * 
 836:.\Generated_Source\PSoC4/BLE_eventHandler.c **** *  Handles the Indication event from BLE stack.
 837:.\Generated_Source\PSoC4/BLE_eventHandler.c **** * 
 838:.\Generated_Source\PSoC4/BLE_eventHandler.c **** *  \param eventParam: event parameter
 839:.\Generated_Source\PSoC4/BLE_eventHandler.c **** * 
 840:.\Generated_Source\PSoC4/BLE_eventHandler.c **** * \return
 841:.\Generated_Source\PSoC4/BLE_eventHandler.c **** *  None
 842:.\Generated_Source\PSoC4/BLE_eventHandler.c **** * 
 843:.\Generated_Source\PSoC4/BLE_eventHandler.c **** ******************************************************************************/
 844:.\Generated_Source\PSoC4/BLE_eventHandler.c **** static void CyBle_IndicationEventHandler(CYBLE_GATTC_HANDLE_VALUE_IND_PARAM_T *eventParam)
 845:.\Generated_Source\PSoC4/BLE_eventHandler.c **** {
 227              		.loc 1 845 0
 228              		.cfi_startproc
 229 0000 80B5     		push	{r7, lr}
 230              		.cfi_def_cfa_offset 8
 231              		.cfi_offset 7, -8
 232              		.cfi_offset 14, -4
 233 0002 82B0     		sub	sp, sp, #8
 234              		.cfi_def_cfa_offset 16
ARM GAS  C:\Users\YBOURA~1\AppData\Local\Temp\cc3HigXd.s 			page 20


 235 0004 00AF     		add	r7, sp, #0
 236              		.cfi_def_cfa_register 7
 237 0006 7860     		str	r0, [r7, #4]
 846:.\Generated_Source\PSoC4/BLE_eventHandler.c **** #ifdef CYBLE_BCS_CLIENT
 847:.\Generated_Source\PSoC4/BLE_eventHandler.c ****     if((cyBle_eventHandlerFlag & CYBLE_CALLBACK) != 0u)
 848:.\Generated_Source\PSoC4/BLE_eventHandler.c ****     {
 849:.\Generated_Source\PSoC4/BLE_eventHandler.c ****         CyBle_BcscIndicationEventHandler(eventParam);
 850:.\Generated_Source\PSoC4/BLE_eventHandler.c ****     }
 851:.\Generated_Source\PSoC4/BLE_eventHandler.c **** #endif /* CYBLE_BCS_CLIENT */
 852:.\Generated_Source\PSoC4/BLE_eventHandler.c **** #ifdef CYBLE_BLS_CLIENT
 853:.\Generated_Source\PSoC4/BLE_eventHandler.c ****     if((cyBle_eventHandlerFlag & CYBLE_CALLBACK) != 0u)
 854:.\Generated_Source\PSoC4/BLE_eventHandler.c ****     {
 855:.\Generated_Source\PSoC4/BLE_eventHandler.c ****         CyBle_BlscIndicationEventHandler(eventParam);
 856:.\Generated_Source\PSoC4/BLE_eventHandler.c ****     }
 857:.\Generated_Source\PSoC4/BLE_eventHandler.c **** #endif /* CYBLE_BLS_CLIENT */
 858:.\Generated_Source\PSoC4/BLE_eventHandler.c **** #ifdef CYBLE_CGMS_CLIENT
 859:.\Generated_Source\PSoC4/BLE_eventHandler.c ****     if((cyBle_eventHandlerFlag & CYBLE_CALLBACK) != 0u)
 860:.\Generated_Source\PSoC4/BLE_eventHandler.c ****     {
 861:.\Generated_Source\PSoC4/BLE_eventHandler.c ****         CyBle_CgmscIndicationEventHandler(eventParam);
 862:.\Generated_Source\PSoC4/BLE_eventHandler.c ****     }
 863:.\Generated_Source\PSoC4/BLE_eventHandler.c **** #endif /* CYBLE_CGMS_CLIENT */
 864:.\Generated_Source\PSoC4/BLE_eventHandler.c **** #ifdef CYBLE_CPS_CLIENT
 865:.\Generated_Source\PSoC4/BLE_eventHandler.c ****     if((cyBle_eventHandlerFlag & CYBLE_CALLBACK) != 0u)
 866:.\Generated_Source\PSoC4/BLE_eventHandler.c ****     {
 867:.\Generated_Source\PSoC4/BLE_eventHandler.c ****         CyBle_CpscIndicationEventHandler(eventParam);
 868:.\Generated_Source\PSoC4/BLE_eventHandler.c ****     }
 869:.\Generated_Source\PSoC4/BLE_eventHandler.c **** #endif /* CYBLE_CPS_CLIENT */
 870:.\Generated_Source\PSoC4/BLE_eventHandler.c **** #ifdef CYBLE_CSCS_CLIENT
 871:.\Generated_Source\PSoC4/BLE_eventHandler.c ****     if((cyBle_eventHandlerFlag & CYBLE_CALLBACK) != 0u)
 872:.\Generated_Source\PSoC4/BLE_eventHandler.c ****     {
 873:.\Generated_Source\PSoC4/BLE_eventHandler.c ****         CyBle_CscscIndicationEventHandler(eventParam);
 874:.\Generated_Source\PSoC4/BLE_eventHandler.c ****     }
 875:.\Generated_Source\PSoC4/BLE_eventHandler.c **** #endif /* CYBLE_CSCS_CLIENT */
 876:.\Generated_Source\PSoC4/BLE_eventHandler.c **** #ifdef CYBLE_ESS_CLIENT
 877:.\Generated_Source\PSoC4/BLE_eventHandler.c ****     if((cyBle_eventHandlerFlag & CYBLE_CALLBACK) != 0u)
 878:.\Generated_Source\PSoC4/BLE_eventHandler.c ****     {
 879:.\Generated_Source\PSoC4/BLE_eventHandler.c ****         CyBle_EsscIndicationEventHandler(eventParam);
 880:.\Generated_Source\PSoC4/BLE_eventHandler.c ****     }
 881:.\Generated_Source\PSoC4/BLE_eventHandler.c **** #endif /* CYBLE_ESS_CLIENT */
 882:.\Generated_Source\PSoC4/BLE_eventHandler.c **** #ifdef CYBLE_GLS_CLIENT
 883:.\Generated_Source\PSoC4/BLE_eventHandler.c ****     if((cyBle_eventHandlerFlag & CYBLE_CALLBACK) != 0u)
 884:.\Generated_Source\PSoC4/BLE_eventHandler.c ****     {
 885:.\Generated_Source\PSoC4/BLE_eventHandler.c ****         CyBle_GlscIndicationEventHandler(eventParam);
 886:.\Generated_Source\PSoC4/BLE_eventHandler.c ****     }
 887:.\Generated_Source\PSoC4/BLE_eventHandler.c **** #endif /* CYBLE_GLS_CLIENT */
 888:.\Generated_Source\PSoC4/BLE_eventHandler.c **** #ifdef CYBLE_HTS_CLIENT
 889:.\Generated_Source\PSoC4/BLE_eventHandler.c ****     if((cyBle_eventHandlerFlag & CYBLE_CALLBACK) != 0u)
 890:.\Generated_Source\PSoC4/BLE_eventHandler.c ****     {
 891:.\Generated_Source\PSoC4/BLE_eventHandler.c ****         CyBle_HtscIndicationEventHandler(eventParam);
 892:.\Generated_Source\PSoC4/BLE_eventHandler.c ****     }
 893:.\Generated_Source\PSoC4/BLE_eventHandler.c **** #endif /* CYBLE_HTS_CLIENT */
 894:.\Generated_Source\PSoC4/BLE_eventHandler.c **** #ifdef CYBLE_LNS_CLIENT
 895:.\Generated_Source\PSoC4/BLE_eventHandler.c ****     if((cyBle_eventHandlerFlag & CYBLE_CALLBACK) != 0u)
 896:.\Generated_Source\PSoC4/BLE_eventHandler.c ****     {
 897:.\Generated_Source\PSoC4/BLE_eventHandler.c ****         CyBle_LnscIndicationEventHandler(eventParam);
 898:.\Generated_Source\PSoC4/BLE_eventHandler.c ****     }
 899:.\Generated_Source\PSoC4/BLE_eventHandler.c **** #endif /* CYBLE_LNS_CLIENT */
ARM GAS  C:\Users\YBOURA~1\AppData\Local\Temp\cc3HigXd.s 			page 21


 900:.\Generated_Source\PSoC4/BLE_eventHandler.c **** #ifdef CYBLE_RSCS_CLIENT
 901:.\Generated_Source\PSoC4/BLE_eventHandler.c ****     if((cyBle_eventHandlerFlag & CYBLE_CALLBACK) != 0u)
 902:.\Generated_Source\PSoC4/BLE_eventHandler.c ****     {
 903:.\Generated_Source\PSoC4/BLE_eventHandler.c ****         CyBle_RscscIndicationEventHandler(eventParam);
 904:.\Generated_Source\PSoC4/BLE_eventHandler.c ****     }
 905:.\Generated_Source\PSoC4/BLE_eventHandler.c **** #endif /* CYBLE_RSCS_CLIENT */
 906:.\Generated_Source\PSoC4/BLE_eventHandler.c **** #ifdef CYBLE_UDS_CLIENT
 907:.\Generated_Source\PSoC4/BLE_eventHandler.c ****     if((cyBle_eventHandlerFlag & CYBLE_CALLBACK) != 0u)
 908:.\Generated_Source\PSoC4/BLE_eventHandler.c ****     {
 909:.\Generated_Source\PSoC4/BLE_eventHandler.c ****         CyBle_UdscIndicationEventHandler(eventParam);
 910:.\Generated_Source\PSoC4/BLE_eventHandler.c ****     }
 911:.\Generated_Source\PSoC4/BLE_eventHandler.c **** #endif /* CYBLE_UDS_CLIENT */
 912:.\Generated_Source\PSoC4/BLE_eventHandler.c **** #ifdef CYBLE_WPTS_CLIENT
 913:.\Generated_Source\PSoC4/BLE_eventHandler.c ****     if((cyBle_eventHandlerFlag & CYBLE_CALLBACK) != 0u)
 914:.\Generated_Source\PSoC4/BLE_eventHandler.c ****     {
 915:.\Generated_Source\PSoC4/BLE_eventHandler.c ****         CyBle_WptscIndicationEventHandler(eventParam);
 916:.\Generated_Source\PSoC4/BLE_eventHandler.c ****     }
 917:.\Generated_Source\PSoC4/BLE_eventHandler.c **** #endif /* CYBLE_WPTS_CLIENT */
 918:.\Generated_Source\PSoC4/BLE_eventHandler.c **** #ifdef CYBLE_WSS_CLIENT
 919:.\Generated_Source\PSoC4/BLE_eventHandler.c ****     if((cyBle_eventHandlerFlag & CYBLE_CALLBACK) != 0u)
 920:.\Generated_Source\PSoC4/BLE_eventHandler.c ****     {
 921:.\Generated_Source\PSoC4/BLE_eventHandler.c ****         CyBle_WsscIndicationEventHandler(eventParam);
 922:.\Generated_Source\PSoC4/BLE_eventHandler.c ****     }
 923:.\Generated_Source\PSoC4/BLE_eventHandler.c **** #endif /* CYBLE_WSS_CLIENT */
 924:.\Generated_Source\PSoC4/BLE_eventHandler.c **** }
 238              		.loc 1 924 0
 239 0008 BD46     		mov	sp, r7
 240 000a 02B0     		add	sp, sp, #8
 241              		@ sp needed
 242 000c 80BD     		pop	{r7, pc}
 243              		.cfi_endproc
 244              	.LFE6:
 245              		.size	CyBle_IndicationEventHandler, .-CyBle_IndicationEventHandler
 246              		.section	.text.CyBle_ReadResponseEventHandler,"ax",%progbits
 247              		.align	2
 248              		.code	16
 249              		.thumb_func
 250              		.type	CyBle_ReadResponseEventHandler, %function
 251              	CyBle_ReadResponseEventHandler:
 252              	.LFB7:
 925:.\Generated_Source\PSoC4/BLE_eventHandler.c **** 
 926:.\Generated_Source\PSoC4/BLE_eventHandler.c **** 
 927:.\Generated_Source\PSoC4/BLE_eventHandler.c **** 
 928:.\Generated_Source\PSoC4/BLE_eventHandler.c **** /******************************************************************************    
 929:.\Generated_Source\PSoC4/BLE_eventHandler.c **** * Function Name: CyBle_ReadResponseEventHandler
 930:.\Generated_Source\PSoC4/BLE_eventHandler.c **** ***************************************************************************//**
 931:.\Generated_Source\PSoC4/BLE_eventHandler.c **** * 
 932:.\Generated_Source\PSoC4/BLE_eventHandler.c **** *  Handles the Read Response event from BLE stack.
 933:.\Generated_Source\PSoC4/BLE_eventHandler.c **** * 
 934:.\Generated_Source\PSoC4/BLE_eventHandler.c **** *  \param eventParam: event parameter
 935:.\Generated_Source\PSoC4/BLE_eventHandler.c **** * 
 936:.\Generated_Source\PSoC4/BLE_eventHandler.c **** * \return
 937:.\Generated_Source\PSoC4/BLE_eventHandler.c **** *  None
 938:.\Generated_Source\PSoC4/BLE_eventHandler.c **** * 
 939:.\Generated_Source\PSoC4/BLE_eventHandler.c **** ******************************************************************************/
 940:.\Generated_Source\PSoC4/BLE_eventHandler.c **** static void CyBle_ReadResponseEventHandler(CYBLE_GATTC_READ_RSP_PARAM_T *eventParam)
 941:.\Generated_Source\PSoC4/BLE_eventHandler.c **** {
ARM GAS  C:\Users\YBOURA~1\AppData\Local\Temp\cc3HigXd.s 			page 22


 253              		.loc 1 941 0
 254              		.cfi_startproc
 255 0000 90B5     		push	{r4, r7, lr}
 256              		.cfi_def_cfa_offset 12
 257              		.cfi_offset 4, -12
 258              		.cfi_offset 7, -8
 259              		.cfi_offset 14, -4
 260 0002 89B0     		sub	sp, sp, #36
 261              		.cfi_def_cfa_offset 48
 262 0004 00AF     		add	r7, sp, #0
 263              		.cfi_def_cfa_register 7
 264 0006 7860     		str	r0, [r7, #4]
 942:.\Generated_Source\PSoC4/BLE_eventHandler.c **** #ifdef CYBLE_CUSTOM_CLIENT
 943:.\Generated_Source\PSoC4/BLE_eventHandler.c ****     /* Read response with 128-bit included service uuid */
 944:.\Generated_Source\PSoC4/BLE_eventHandler.c ****     if((CYBLE_CLIENT_STATE_INCL_DISCOVERING == CyBle_GetClientState()) &&
 265              		.loc 1 944 0
 266 0008 394B     		ldr	r3, .L15
 267 000a 1B78     		ldrb	r3, [r3]
 268 000c 022B     		cmp	r3, #2
 269 000e 6BD1     		bne	.L10
 945:.\Generated_Source\PSoC4/BLE_eventHandler.c ****        (cyBle_discInclInfo.inclDefHandle != 0u))
 270              		.loc 1 945 0 discriminator 1
 271 0010 384B     		ldr	r3, .L15+4
 272 0012 1B88     		ldrh	r3, [r3]
 944:.\Generated_Source\PSoC4/BLE_eventHandler.c ****        (cyBle_discInclInfo.inclDefHandle != 0u))
 273              		.loc 1 944 0 discriminator 1
 274 0014 002B     		cmp	r3, #0
 275 0016 67D0     		beq	.L10
 276              	.LBB3:
 946:.\Generated_Source\PSoC4/BLE_eventHandler.c ****     {
 947:.\Generated_Source\PSoC4/BLE_eventHandler.c ****         CYBLE_DISC_SRVC128_INFO_T discServInfo;
 948:.\Generated_Source\PSoC4/BLE_eventHandler.c **** 
 949:.\Generated_Source\PSoC4/BLE_eventHandler.c ****         /* Store service range */
 950:.\Generated_Source\PSoC4/BLE_eventHandler.c ****         discServInfo.range = cyBle_discInclInfo.inclHandleRange;
 277              		.loc 1 950 0
 278 0018 0C23     		mov	r3, #12
 279 001a F918     		add	r1, r7, r3
 280 001c 354B     		ldr	r3, .L15+4
 281 001e 0222     		mov	r2, #2
 282 0020 9B18     		add	r3, r3, r2
 283 0022 0422     		mov	r2, #4
 284 0024 081C     		mov	r0, r1
 285 0026 191C     		mov	r1, r3
 286 0028 FFF7FEFF 		bl	memcpy
 951:.\Generated_Source\PSoC4/BLE_eventHandler.c ****         (void)memcpy((void *) discServInfo.uuid.uuid128.value, (void *)eventParam->value.val, event
 287              		.loc 1 951 0
 288 002c 7B68     		ldr	r3, [r7, #4]
 289 002e 5A68     		ldr	r2, [r3, #4]
 290 0030 7B68     		ldr	r3, [r7, #4]
 291 0032 1B89     		ldrh	r3, [r3, #8]
 292 0034 1C1C     		mov	r4, r3
 293 0036 0C23     		mov	r3, #12
 294 0038 FB18     		add	r3, r7, r3
 295 003a 0433     		add	r3, r3, #4
 296 003c 181C     		mov	r0, r3
 297 003e 111C     		mov	r1, r2
 298 0040 221C     		mov	r2, r4
ARM GAS  C:\Users\YBOURA~1\AppData\Local\Temp\cc3HigXd.s 			page 23


 299 0042 FFF7FEFF 		bl	memcpy
 952:.\Generated_Source\PSoC4/BLE_eventHandler.c ****         CyBle_CustomcDiscoverServiceEventHandler(&discServInfo);
 300              		.loc 1 952 0
 301 0046 0C23     		mov	r3, #12
 302 0048 FB18     		add	r3, r7, r3
 303 004a 181C     		mov	r0, r3
 304 004c FFF7FEFF 		bl	CyBle_CustomcDiscoverServiceEventHandler
 953:.\Generated_Source\PSoC4/BLE_eventHandler.c ****         
 954:.\Generated_Source\PSoC4/BLE_eventHandler.c ****         /* Re-initiate CyBle_GattcFindIncludedServices function, setting the start
 955:.\Generated_Source\PSoC4/BLE_eventHandler.c ****            handle to the attribute handle which is placed next to the one used in
 956:.\Generated_Source\PSoC4/BLE_eventHandler.c ****            the above step.
 957:.\Generated_Source\PSoC4/BLE_eventHandler.c ****         */
 958:.\Generated_Source\PSoC4/BLE_eventHandler.c ****         discServInfo.range.startHandle = cyBle_discInclInfo.inclDefHandle + 1;
 305              		.loc 1 958 0
 306 0050 284B     		ldr	r3, .L15+4
 307 0052 1B88     		ldrh	r3, [r3]
 308 0054 0133     		add	r3, r3, #1
 309 0056 9AB2     		uxth	r2, r3
 310 0058 0C23     		mov	r3, #12
 311 005a FB18     		add	r3, r7, r3
 312 005c 1A80     		strh	r2, [r3]
 959:.\Generated_Source\PSoC4/BLE_eventHandler.c ****         discServInfo.range.endHandle = cyBle_serverInfo[cyBle_disCount].range.endHandle;
 313              		.loc 1 959 0
 314 005e 264B     		ldr	r3, .L15+8
 315 0060 1B78     		ldrb	r3, [r3]
 316 0062 191C     		mov	r1, r3
 317 0064 254A     		ldr	r2, .L15+12
 318 0066 0B1C     		mov	r3, r1
 319 0068 5B00     		lsl	r3, r3, #1
 320 006a 5B18     		add	r3, r3, r1
 321 006c 5B00     		lsl	r3, r3, #1
 322 006e D318     		add	r3, r2, r3
 323 0070 5A88     		ldrh	r2, [r3, #2]
 324 0072 0C23     		mov	r3, #12
 325 0074 FB18     		add	r3, r7, r3
 326 0076 5A80     		strh	r2, [r3, #2]
 960:.\Generated_Source\PSoC4/BLE_eventHandler.c ****         if(discServInfo.range.startHandle <= discServInfo.range.endHandle)
 327              		.loc 1 960 0
 328 0078 0C23     		mov	r3, #12
 329 007a FB18     		add	r3, r7, r3
 330 007c 1A88     		ldrh	r2, [r3]
 331 007e 0C23     		mov	r3, #12
 332 0080 FB18     		add	r3, r7, r3
 333 0082 5B88     		ldrh	r3, [r3, #2]
 334 0084 9A42     		cmp	r2, r3
 335 0086 21D8     		bhi	.L12
 961:.\Generated_Source\PSoC4/BLE_eventHandler.c ****         {
 962:.\Generated_Source\PSoC4/BLE_eventHandler.c ****             if(CYBLE_ERROR_OK != CyBle_GattcFindIncludedServices(cyBle_connHandle, &discServInfo.ra
 336              		.loc 1 962 0
 337 0088 1D4B     		ldr	r3, .L15+16
 338 008a 0C22     		mov	r2, #12
 339 008c B918     		add	r1, r7, r2
 340 008e 1A78     		ldrb	r2, [r3]
 341 0090 5B78     		ldrb	r3, [r3, #1]
 342 0092 1B02     		lsl	r3, r3, #8
 343 0094 1A43     		orr	r2, r3
 344 0096 0023     		mov	r3, #0
ARM GAS  C:\Users\YBOURA~1\AppData\Local\Temp\cc3HigXd.s 			page 24


 345 0098 1204     		lsl	r2, r2, #16
 346 009a 120C     		lsr	r2, r2, #16
 347 009c 1B0C     		lsr	r3, r3, #16
 348 009e 1B04     		lsl	r3, r3, #16
 349 00a0 1343     		orr	r3, r2
 350 00a2 181C     		mov	r0, r3
 351 00a4 FFF7FEFF 		bl	CyBle_GattcFindIncludedServices
 352 00a8 031E     		sub	r3, r0, #0
 353 00aa 12D0     		beq	.L14
 963:.\Generated_Source\PSoC4/BLE_eventHandler.c ****             {
 964:.\Generated_Source\PSoC4/BLE_eventHandler.c ****                 CyBle_ApplCallback(CYBLE_EVT_GATTC_INCL_DISCOVERY_FAILED, NULL);
 354              		.loc 1 964 0
 355 00ac 154B     		ldr	r3, .L15+20
 356 00ae 1B68     		ldr	r3, [r3]
 357 00b0 8422     		mov	r2, #132
 358 00b2 5200     		lsl	r2, r2, #1
 359 00b4 101C     		mov	r0, r2
 360 00b6 0021     		mov	r1, #0
 361 00b8 9847     		blx	r3
 965:.\Generated_Source\PSoC4/BLE_eventHandler.c ****                 cyBle_eventHandlerFlag &= (uint8)~CYBLE_AUTO_DISCOVERY;
 362              		.loc 1 965 0
 363 00ba 134B     		ldr	r3, .L15+24
 364 00bc 1B78     		ldrb	r3, [r3]
 365 00be DBB2     		uxtb	r3, r3
 366 00c0 0222     		mov	r2, #2
 367 00c2 9343     		bic	r3, r2
 368 00c4 DAB2     		uxtb	r2, r3
 369 00c6 104B     		ldr	r3, .L15+24
 370 00c8 1A70     		strb	r2, [r3]
 371 00ca 02E0     		b	.L14
 372              	.L12:
 966:.\Generated_Source\PSoC4/BLE_eventHandler.c ****             }
 967:.\Generated_Source\PSoC4/BLE_eventHandler.c ****         }
 968:.\Generated_Source\PSoC4/BLE_eventHandler.c ****         else /* Continue discovery of the following service */
 969:.\Generated_Source\PSoC4/BLE_eventHandler.c ****         {
 970:.\Generated_Source\PSoC4/BLE_eventHandler.c ****             CyBle_NextInclDiscovery(CYBLE_DISCOVERY_CONTINUE);
 373              		.loc 1 970 0
 374 00cc 0120     		mov	r0, #1
 375 00ce FFF7FEFF 		bl	CyBle_NextInclDiscovery
 376              	.L14:
 971:.\Generated_Source\PSoC4/BLE_eventHandler.c ****         }
 972:.\Generated_Source\PSoC4/BLE_eventHandler.c ****         
 973:.\Generated_Source\PSoC4/BLE_eventHandler.c ****         cyBle_eventHandlerFlag &= (uint8)~CYBLE_CALLBACK;
 377              		.loc 1 973 0 discriminator 1
 378 00d2 0D4B     		ldr	r3, .L15+24
 379 00d4 1B78     		ldrb	r3, [r3]
 380 00d6 DBB2     		uxtb	r3, r3
 381 00d8 0122     		mov	r2, #1
 382 00da 9343     		bic	r3, r2
 383 00dc DAB2     		uxtb	r2, r3
 384 00de 0A4B     		ldr	r3, .L15+24
 385 00e0 1A70     		strb	r2, [r3]
 974:.\Generated_Source\PSoC4/BLE_eventHandler.c ****         cyBle_discInclInfo.inclDefHandle = 0u;
 386              		.loc 1 974 0 discriminator 1
 387 00e2 044B     		ldr	r3, .L15+4
 388 00e4 0022     		mov	r2, #0
 389 00e6 1A80     		strh	r2, [r3]
ARM GAS  C:\Users\YBOURA~1\AppData\Local\Temp\cc3HigXd.s 			page 25


 390              	.L10:
 391              	.LBE3:
 975:.\Generated_Source\PSoC4/BLE_eventHandler.c ****         
 976:.\Generated_Source\PSoC4/BLE_eventHandler.c ****     }
 977:.\Generated_Source\PSoC4/BLE_eventHandler.c **** #endif /* CYBLE_CUSTOM_CLIENT */
 978:.\Generated_Source\PSoC4/BLE_eventHandler.c **** #ifdef CYBLE_ANCS_CLIENT
 979:.\Generated_Source\PSoC4/BLE_eventHandler.c ****     if((cyBle_eventHandlerFlag & CYBLE_CALLBACK) != 0u)
 980:.\Generated_Source\PSoC4/BLE_eventHandler.c ****     {
 981:.\Generated_Source\PSoC4/BLE_eventHandler.c ****         CyBle_AncscReadResponseEventHandler(eventParam);
 982:.\Generated_Source\PSoC4/BLE_eventHandler.c ****     }
 983:.\Generated_Source\PSoC4/BLE_eventHandler.c **** #endif /* CYBLE_ANCS_CLIENT */
 984:.\Generated_Source\PSoC4/BLE_eventHandler.c **** #ifdef CYBLE_ANS_CLIENT
 985:.\Generated_Source\PSoC4/BLE_eventHandler.c ****     if((cyBle_eventHandlerFlag & CYBLE_CALLBACK) != 0u)
 986:.\Generated_Source\PSoC4/BLE_eventHandler.c ****     {
 987:.\Generated_Source\PSoC4/BLE_eventHandler.c ****         CyBle_AnscReadResponseEventHandler(eventParam);
 988:.\Generated_Source\PSoC4/BLE_eventHandler.c ****     }
 989:.\Generated_Source\PSoC4/BLE_eventHandler.c **** #endif /* CYBLE_ANS_CLIENT */
 990:.\Generated_Source\PSoC4/BLE_eventHandler.c **** #ifdef CYBLE_BAS_CLIENT
 991:.\Generated_Source\PSoC4/BLE_eventHandler.c ****     if((cyBle_eventHandlerFlag & CYBLE_CALLBACK) != 0u)
 992:.\Generated_Source\PSoC4/BLE_eventHandler.c ****     {
 993:.\Generated_Source\PSoC4/BLE_eventHandler.c ****         CyBle_BascReadResponseEventHandler(eventParam);
 994:.\Generated_Source\PSoC4/BLE_eventHandler.c ****     }
 995:.\Generated_Source\PSoC4/BLE_eventHandler.c **** #endif /* CYBLE_BAS_CLIENT */
 996:.\Generated_Source\PSoC4/BLE_eventHandler.c **** #ifdef CYBLE_BLS_CLIENT
 997:.\Generated_Source\PSoC4/BLE_eventHandler.c ****     if((cyBle_eventHandlerFlag & CYBLE_CALLBACK) != 0u)
 998:.\Generated_Source\PSoC4/BLE_eventHandler.c ****     {
 999:.\Generated_Source\PSoC4/BLE_eventHandler.c ****         CyBle_BlscReadResponseEventHandler(eventParam);
1000:.\Generated_Source\PSoC4/BLE_eventHandler.c ****     }
1001:.\Generated_Source\PSoC4/BLE_eventHandler.c **** #endif /* CYBLE_BLS_CLIENT */
1002:.\Generated_Source\PSoC4/BLE_eventHandler.c **** #ifdef CYBLE_BCS_CLIENT
1003:.\Generated_Source\PSoC4/BLE_eventHandler.c ****     if((cyBle_eventHandlerFlag & CYBLE_CALLBACK) != 0u)
1004:.\Generated_Source\PSoC4/BLE_eventHandler.c ****     {
1005:.\Generated_Source\PSoC4/BLE_eventHandler.c ****         CyBle_BcscReadResponseEventHandler(eventParam);
1006:.\Generated_Source\PSoC4/BLE_eventHandler.c ****     }
1007:.\Generated_Source\PSoC4/BLE_eventHandler.c **** #endif /* CYBLE_BCS_CLIENT */
1008:.\Generated_Source\PSoC4/BLE_eventHandler.c **** #ifdef CYBLE_BMS_CLIENT
1009:.\Generated_Source\PSoC4/BLE_eventHandler.c ****     if((cyBle_eventHandlerFlag & CYBLE_CALLBACK) != 0u)
1010:.\Generated_Source\PSoC4/BLE_eventHandler.c ****     {
1011:.\Generated_Source\PSoC4/BLE_eventHandler.c ****         CyBle_BmscReadResponseEventHandler(eventParam);
1012:.\Generated_Source\PSoC4/BLE_eventHandler.c ****     }
1013:.\Generated_Source\PSoC4/BLE_eventHandler.c **** #endif /* CYBLE_BMS_CLIENT */
1014:.\Generated_Source\PSoC4/BLE_eventHandler.c **** #ifdef CYBLE_CGMS_CLIENT
1015:.\Generated_Source\PSoC4/BLE_eventHandler.c ****     if((cyBle_eventHandlerFlag & CYBLE_CALLBACK) != 0u)
1016:.\Generated_Source\PSoC4/BLE_eventHandler.c ****     {
1017:.\Generated_Source\PSoC4/BLE_eventHandler.c ****         CyBle_CgmscReadResponseEventHandler(eventParam);
1018:.\Generated_Source\PSoC4/BLE_eventHandler.c ****     }
1019:.\Generated_Source\PSoC4/BLE_eventHandler.c **** #endif /* CYBLE_CGMS_CLIENT */
1020:.\Generated_Source\PSoC4/BLE_eventHandler.c **** #ifdef CYBLE_CPS_CLIENT
1021:.\Generated_Source\PSoC4/BLE_eventHandler.c ****     if((cyBle_eventHandlerFlag & CYBLE_CALLBACK) != 0u)
1022:.\Generated_Source\PSoC4/BLE_eventHandler.c ****     {
1023:.\Generated_Source\PSoC4/BLE_eventHandler.c ****         CyBle_CpscReadResponseEventHandler(eventParam);
1024:.\Generated_Source\PSoC4/BLE_eventHandler.c ****     }
1025:.\Generated_Source\PSoC4/BLE_eventHandler.c **** #endif /* CYBLE_CPS_CLIENT */
1026:.\Generated_Source\PSoC4/BLE_eventHandler.c **** #ifdef CYBLE_CSCS_CLIENT
1027:.\Generated_Source\PSoC4/BLE_eventHandler.c ****     if((cyBle_eventHandlerFlag & CYBLE_CALLBACK) != 0u)
1028:.\Generated_Source\PSoC4/BLE_eventHandler.c ****     {
1029:.\Generated_Source\PSoC4/BLE_eventHandler.c ****         CyBle_CscscReadResponseEventHandler(eventParam);
ARM GAS  C:\Users\YBOURA~1\AppData\Local\Temp\cc3HigXd.s 			page 26


1030:.\Generated_Source\PSoC4/BLE_eventHandler.c ****     }
1031:.\Generated_Source\PSoC4/BLE_eventHandler.c **** #endif /* CYBLE_CSCS_CLIENT */
1032:.\Generated_Source\PSoC4/BLE_eventHandler.c **** #ifdef CYBLE_CTS_CLIENT
1033:.\Generated_Source\PSoC4/BLE_eventHandler.c ****     if((cyBle_eventHandlerFlag & CYBLE_CALLBACK) != 0u)
1034:.\Generated_Source\PSoC4/BLE_eventHandler.c ****     {
1035:.\Generated_Source\PSoC4/BLE_eventHandler.c ****         CyBle_CtscReadResponseEventHandler(eventParam);
1036:.\Generated_Source\PSoC4/BLE_eventHandler.c ****     }
1037:.\Generated_Source\PSoC4/BLE_eventHandler.c **** #endif /* CYBLE_BAS_CLIENT */
1038:.\Generated_Source\PSoC4/BLE_eventHandler.c **** #ifdef CYBLE_DIS_CLIENT
1039:.\Generated_Source\PSoC4/BLE_eventHandler.c ****     if((cyBle_eventHandlerFlag & CYBLE_CALLBACK) != 0u)
1040:.\Generated_Source\PSoC4/BLE_eventHandler.c ****     {
1041:.\Generated_Source\PSoC4/BLE_eventHandler.c ****         CyBle_DiscReadResponseEventHandler(eventParam);
1042:.\Generated_Source\PSoC4/BLE_eventHandler.c ****     }
1043:.\Generated_Source\PSoC4/BLE_eventHandler.c **** #endif /* CYBLE_DIS_CLIENT */
1044:.\Generated_Source\PSoC4/BLE_eventHandler.c **** #ifdef CYBLE_ESS_CLIENT
1045:.\Generated_Source\PSoC4/BLE_eventHandler.c ****     if((cyBle_eventHandlerFlag & CYBLE_CALLBACK) != 0u)
1046:.\Generated_Source\PSoC4/BLE_eventHandler.c ****     {
1047:.\Generated_Source\PSoC4/BLE_eventHandler.c ****         CyBle_EsscReadResponseEventHandler(eventParam);
1048:.\Generated_Source\PSoC4/BLE_eventHandler.c ****     }
1049:.\Generated_Source\PSoC4/BLE_eventHandler.c **** #endif /* CYBLE_ESS_CLIENT */
1050:.\Generated_Source\PSoC4/BLE_eventHandler.c **** #ifdef CYBLE_GLS_CLIENT
1051:.\Generated_Source\PSoC4/BLE_eventHandler.c ****     if((cyBle_eventHandlerFlag & CYBLE_CALLBACK) != 0u)
1052:.\Generated_Source\PSoC4/BLE_eventHandler.c ****     {
1053:.\Generated_Source\PSoC4/BLE_eventHandler.c ****         CyBle_GlscReadResponseEventHandler(eventParam);
1054:.\Generated_Source\PSoC4/BLE_eventHandler.c ****     }
1055:.\Generated_Source\PSoC4/BLE_eventHandler.c **** #endif /* CYBLE_GLS_CLIENT */
1056:.\Generated_Source\PSoC4/BLE_eventHandler.c **** #ifdef CYBLE_HIDS_CLIENT
1057:.\Generated_Source\PSoC4/BLE_eventHandler.c ****     if((cyBle_eventHandlerFlag & CYBLE_CALLBACK) != 0u)
1058:.\Generated_Source\PSoC4/BLE_eventHandler.c ****     {
1059:.\Generated_Source\PSoC4/BLE_eventHandler.c ****         CyBle_HidscReadResponseEventHandler(eventParam);
1060:.\Generated_Source\PSoC4/BLE_eventHandler.c ****     }
1061:.\Generated_Source\PSoC4/BLE_eventHandler.c **** #endif /* CYBLE_HIDS_CLIENT */
1062:.\Generated_Source\PSoC4/BLE_eventHandler.c **** #ifdef CYBLE_HRS_CLIENT
1063:.\Generated_Source\PSoC4/BLE_eventHandler.c ****     if((cyBle_eventHandlerFlag & CYBLE_CALLBACK) != 0u)
1064:.\Generated_Source\PSoC4/BLE_eventHandler.c ****     {
1065:.\Generated_Source\PSoC4/BLE_eventHandler.c ****         CyBle_HrscReadResponseEventHandler(eventParam);
1066:.\Generated_Source\PSoC4/BLE_eventHandler.c ****     }
1067:.\Generated_Source\PSoC4/BLE_eventHandler.c **** #endif /* CYBLE_HRS_CLIENT */
1068:.\Generated_Source\PSoC4/BLE_eventHandler.c **** #ifdef CYBLE_HTS_CLIENT
1069:.\Generated_Source\PSoC4/BLE_eventHandler.c ****     if((cyBle_eventHandlerFlag & CYBLE_CALLBACK) != 0u)
1070:.\Generated_Source\PSoC4/BLE_eventHandler.c ****     {
1071:.\Generated_Source\PSoC4/BLE_eventHandler.c ****         CyBle_HtscReadResponseEventHandler(eventParam);
1072:.\Generated_Source\PSoC4/BLE_eventHandler.c ****     }
1073:.\Generated_Source\PSoC4/BLE_eventHandler.c **** #endif /* CYBLE_HTS_CLIENT */
1074:.\Generated_Source\PSoC4/BLE_eventHandler.c **** #ifdef CYBLE_LLS_CLIENT
1075:.\Generated_Source\PSoC4/BLE_eventHandler.c ****     if((cyBle_eventHandlerFlag & CYBLE_CALLBACK) != 0u)
1076:.\Generated_Source\PSoC4/BLE_eventHandler.c ****     {
1077:.\Generated_Source\PSoC4/BLE_eventHandler.c ****         CyBle_LlscReadResponseEventHandler(eventParam);
1078:.\Generated_Source\PSoC4/BLE_eventHandler.c ****     }
1079:.\Generated_Source\PSoC4/BLE_eventHandler.c **** #endif /* CYBLE_LLS_CLIENT */
1080:.\Generated_Source\PSoC4/BLE_eventHandler.c **** #ifdef CYBLE_LNS_CLIENT
1081:.\Generated_Source\PSoC4/BLE_eventHandler.c ****     if((cyBle_eventHandlerFlag & CYBLE_CALLBACK) != 0u)
1082:.\Generated_Source\PSoC4/BLE_eventHandler.c ****     {
1083:.\Generated_Source\PSoC4/BLE_eventHandler.c ****         CyBle_LnscReadResponseEventHandler(eventParam);
1084:.\Generated_Source\PSoC4/BLE_eventHandler.c ****     }
1085:.\Generated_Source\PSoC4/BLE_eventHandler.c **** #endif /* CYBLE_LNS_CLIENT */
1086:.\Generated_Source\PSoC4/BLE_eventHandler.c **** #ifdef CYBLE_NDCS_CLIENT
ARM GAS  C:\Users\YBOURA~1\AppData\Local\Temp\cc3HigXd.s 			page 27


1087:.\Generated_Source\PSoC4/BLE_eventHandler.c ****     if((cyBle_eventHandlerFlag & CYBLE_CALLBACK) != 0u)
1088:.\Generated_Source\PSoC4/BLE_eventHandler.c ****     {
1089:.\Generated_Source\PSoC4/BLE_eventHandler.c ****         CyBle_NdcscReadResponseEventHandler(eventParam);
1090:.\Generated_Source\PSoC4/BLE_eventHandler.c ****     }
1091:.\Generated_Source\PSoC4/BLE_eventHandler.c **** #endif /* CYBLE_NDCS_CLIENT */
1092:.\Generated_Source\PSoC4/BLE_eventHandler.c **** #ifdef CYBLE_PASS_CLIENT
1093:.\Generated_Source\PSoC4/BLE_eventHandler.c ****     if((cyBle_eventHandlerFlag & CYBLE_CALLBACK) != 0u)
1094:.\Generated_Source\PSoC4/BLE_eventHandler.c ****     {
1095:.\Generated_Source\PSoC4/BLE_eventHandler.c ****         CyBle_PasscReadResponseEventHandler(eventParam);
1096:.\Generated_Source\PSoC4/BLE_eventHandler.c ****     }
1097:.\Generated_Source\PSoC4/BLE_eventHandler.c **** #endif /* CYBLE_PASS_CLIENT */
1098:.\Generated_Source\PSoC4/BLE_eventHandler.c **** #ifdef CYBLE_RSCS_CLIENT
1099:.\Generated_Source\PSoC4/BLE_eventHandler.c ****     if((cyBle_eventHandlerFlag & CYBLE_CALLBACK) != 0u)
1100:.\Generated_Source\PSoC4/BLE_eventHandler.c ****     {
1101:.\Generated_Source\PSoC4/BLE_eventHandler.c ****         CyBle_RscscReadResponseEventHandler(eventParam);
1102:.\Generated_Source\PSoC4/BLE_eventHandler.c ****     }
1103:.\Generated_Source\PSoC4/BLE_eventHandler.c **** #endif /* CYBLE_RSCS_CLIENT */
1104:.\Generated_Source\PSoC4/BLE_eventHandler.c **** #ifdef CYBLE_RTUS_CLIENT
1105:.\Generated_Source\PSoC4/BLE_eventHandler.c ****     if((cyBle_eventHandlerFlag & CYBLE_CALLBACK) != 0u)
1106:.\Generated_Source\PSoC4/BLE_eventHandler.c ****     {
1107:.\Generated_Source\PSoC4/BLE_eventHandler.c ****         CyBle_RtuscReadResponseEventHandler(eventParam);
1108:.\Generated_Source\PSoC4/BLE_eventHandler.c ****     }
1109:.\Generated_Source\PSoC4/BLE_eventHandler.c **** #endif /* CYBLE_RTUS_CLIENT */
1110:.\Generated_Source\PSoC4/BLE_eventHandler.c **** #ifdef CYBLE_SCPS_CLIENT
1111:.\Generated_Source\PSoC4/BLE_eventHandler.c ****     if((cyBle_eventHandlerFlag & CYBLE_CALLBACK) != 0u)
1112:.\Generated_Source\PSoC4/BLE_eventHandler.c ****     {
1113:.\Generated_Source\PSoC4/BLE_eventHandler.c ****         CyBle_ScpscReadResponseEventHandler(eventParam);
1114:.\Generated_Source\PSoC4/BLE_eventHandler.c ****     }
1115:.\Generated_Source\PSoC4/BLE_eventHandler.c **** #endif /* CYBLE_SCPS_CLIENT */
1116:.\Generated_Source\PSoC4/BLE_eventHandler.c **** #ifdef CYBLE_TPS_CLIENT
1117:.\Generated_Source\PSoC4/BLE_eventHandler.c ****     if((cyBle_eventHandlerFlag & CYBLE_CALLBACK) != 0u)
1118:.\Generated_Source\PSoC4/BLE_eventHandler.c ****     {
1119:.\Generated_Source\PSoC4/BLE_eventHandler.c ****         CyBle_TpscReadResponseEventHandler(eventParam);
1120:.\Generated_Source\PSoC4/BLE_eventHandler.c ****     }
1121:.\Generated_Source\PSoC4/BLE_eventHandler.c **** #endif /* CYBLE_TPS_CLIENT */
1122:.\Generated_Source\PSoC4/BLE_eventHandler.c **** #ifdef CYBLE_UDS_CLIENT
1123:.\Generated_Source\PSoC4/BLE_eventHandler.c ****     if((cyBle_eventHandlerFlag & CYBLE_CALLBACK) != 0u)
1124:.\Generated_Source\PSoC4/BLE_eventHandler.c ****     {
1125:.\Generated_Source\PSoC4/BLE_eventHandler.c ****         CyBle_UdscReadResponseEventHandler(eventParam);
1126:.\Generated_Source\PSoC4/BLE_eventHandler.c ****     }
1127:.\Generated_Source\PSoC4/BLE_eventHandler.c **** #endif /* CYBLE_UDS_CLIENT */
1128:.\Generated_Source\PSoC4/BLE_eventHandler.c **** #ifdef CYBLE_WPTS_CLIENT
1129:.\Generated_Source\PSoC4/BLE_eventHandler.c ****     if((cyBle_eventHandlerFlag & CYBLE_CALLBACK) != 0u)
1130:.\Generated_Source\PSoC4/BLE_eventHandler.c ****     {
1131:.\Generated_Source\PSoC4/BLE_eventHandler.c ****         CyBle_WptscReadResponseEventHandler(eventParam);
1132:.\Generated_Source\PSoC4/BLE_eventHandler.c ****     }
1133:.\Generated_Source\PSoC4/BLE_eventHandler.c **** #endif /* CYBLE_WPTS_CLIENT */
1134:.\Generated_Source\PSoC4/BLE_eventHandler.c **** #ifdef CYBLE_WSS_CLIENT
1135:.\Generated_Source\PSoC4/BLE_eventHandler.c ****     if((cyBle_eventHandlerFlag & CYBLE_CALLBACK) != 0u)
1136:.\Generated_Source\PSoC4/BLE_eventHandler.c ****     {
1137:.\Generated_Source\PSoC4/BLE_eventHandler.c ****         CyBle_WsscReadResponseEventHandler(eventParam);
1138:.\Generated_Source\PSoC4/BLE_eventHandler.c ****     }
1139:.\Generated_Source\PSoC4/BLE_eventHandler.c **** #endif /* CYBLE_WSS_CLIENT */
1140:.\Generated_Source\PSoC4/BLE_eventHandler.c **** }
 392              		.loc 1 1140 0
 393 00e8 BD46     		mov	sp, r7
 394 00ea 09B0     		add	sp, sp, #36
ARM GAS  C:\Users\YBOURA~1\AppData\Local\Temp\cc3HigXd.s 			page 28


 395              		@ sp needed
 396 00ec 90BD     		pop	{r4, r7, pc}
 397              	.L16:
 398 00ee C046     		.align	2
 399              	.L15:
 400 00f0 00000000 		.word	cyBle_clientState
 401 00f4 04000000 		.word	cyBle_discInclInfo
 402 00f8 00000000 		.word	cyBle_disCount
 403 00fc 00000000 		.word	cyBle_serverInfo
 404 0100 00000000 		.word	cyBle_connHandle
 405 0104 00000000 		.word	CyBle_ApplCallback
 406 0108 00000000 		.word	cyBle_eventHandlerFlag
 407              		.cfi_endproc
 408              	.LFE7:
 409              		.size	CyBle_ReadResponseEventHandler, .-CyBle_ReadResponseEventHandler
 410              		.section	.text.CyBle_GattDisconnectEventHandler,"ax",%progbits
 411              		.align	2
 412              		.code	16
 413              		.thumb_func
 414              		.type	CyBle_GattDisconnectEventHandler, %function
 415              	CyBle_GattDisconnectEventHandler:
 416              	.LFB8:
1141:.\Generated_Source\PSoC4/BLE_eventHandler.c **** #endif /* CYBLE_GATT_ROLE_CLIENT */
1142:.\Generated_Source\PSoC4/BLE_eventHandler.c **** 
1143:.\Generated_Source\PSoC4/BLE_eventHandler.c **** 
1144:.\Generated_Source\PSoC4/BLE_eventHandler.c **** /****************************************************************************** 
1145:.\Generated_Source\PSoC4/BLE_eventHandler.c **** * Function Name: CyBle_DisconnectEventHandler
1146:.\Generated_Source\PSoC4/BLE_eventHandler.c **** ***************************************************************************//**
1147:.\Generated_Source\PSoC4/BLE_eventHandler.c **** * 
1148:.\Generated_Source\PSoC4/BLE_eventHandler.c **** *  Handles the GATT Disconnection event from the BLE stack.
1149:.\Generated_Source\PSoC4/BLE_eventHandler.c **** * 
1150:.\Generated_Source\PSoC4/BLE_eventHandler.c **** * \return
1151:.\Generated_Source\PSoC4/BLE_eventHandler.c **** *  None
1152:.\Generated_Source\PSoC4/BLE_eventHandler.c **** * 
1153:.\Generated_Source\PSoC4/BLE_eventHandler.c **** ******************************************************************************/
1154:.\Generated_Source\PSoC4/BLE_eventHandler.c **** static void CyBle_GattDisconnectEventHandler(void)
1155:.\Generated_Source\PSoC4/BLE_eventHandler.c **** {
 417              		.loc 1 1155 0
 418              		.cfi_startproc
 419 0000 80B5     		push	{r7, lr}
 420              		.cfi_def_cfa_offset 8
 421              		.cfi_offset 7, -8
 422              		.cfi_offset 14, -4
 423 0002 00AF     		add	r7, sp, #0
 424              		.cfi_def_cfa_register 7
1156:.\Generated_Source\PSoC4/BLE_eventHandler.c ****     cyBle_connHandle.attId = 0u;
 425              		.loc 1 1156 0
 426 0004 094B     		ldr	r3, .L20
 427 0006 0022     		mov	r2, #0
 428 0008 5A70     		strb	r2, [r3, #1]
1157:.\Generated_Source\PSoC4/BLE_eventHandler.c ****     cyBle_connHandle.bdHandle = 0u;
 429              		.loc 1 1157 0
 430 000a 084B     		ldr	r3, .L20
 431 000c 0022     		mov	r2, #0
 432 000e 1A70     		strb	r2, [r3]
1158:.\Generated_Source\PSoC4/BLE_eventHandler.c ****     
1159:.\Generated_Source\PSoC4/BLE_eventHandler.c ****     #if (CYBLE_GATT_ROLE_CLIENT)
ARM GAS  C:\Users\YBOURA~1\AppData\Local\Temp\cc3HigXd.s 			page 29


1160:.\Generated_Source\PSoC4/BLE_eventHandler.c ****         if(CYBLE_CLIENT_STATE_DISCOVERED == CyBle_GetClientState())
 433              		.loc 1 1160 0
 434 0010 074B     		ldr	r3, .L20+4
 435 0012 1B78     		ldrb	r3, [r3]
 436 0014 052B     		cmp	r3, #5
 437 0016 03D1     		bne	.L18
1161:.\Generated_Source\PSoC4/BLE_eventHandler.c ****         {
1162:.\Generated_Source\PSoC4/BLE_eventHandler.c ****             CyBle_SetClientState(CYBLE_CLIENT_STATE_DISCONNECTED_DISCOVERED);
 438              		.loc 1 1162 0
 439 0018 054B     		ldr	r3, .L20+4
 440 001a 0722     		mov	r2, #7
 441 001c 1A70     		strb	r2, [r3]
 442 001e 02E0     		b	.L17
 443              	.L18:
1163:.\Generated_Source\PSoC4/BLE_eventHandler.c ****         }
1164:.\Generated_Source\PSoC4/BLE_eventHandler.c ****         else
1165:.\Generated_Source\PSoC4/BLE_eventHandler.c ****         {
1166:.\Generated_Source\PSoC4/BLE_eventHandler.c ****             CyBle_SetClientState(CYBLE_CLIENT_STATE_DISCONNECTED);
 444              		.loc 1 1166 0
 445 0020 034B     		ldr	r3, .L20+4
 446 0022 0822     		mov	r2, #8
 447 0024 1A70     		strb	r2, [r3]
 448              	.L17:
1167:.\Generated_Source\PSoC4/BLE_eventHandler.c ****         }
1168:.\Generated_Source\PSoC4/BLE_eventHandler.c ****     #endif /* CYBLE_GATT_ROLE_CLIENT */
1169:.\Generated_Source\PSoC4/BLE_eventHandler.c ****         
1170:.\Generated_Source\PSoC4/BLE_eventHandler.c ****     #ifdef CYBLE_CPS_SERVER
1171:.\Generated_Source\PSoC4/BLE_eventHandler.c ****         #if CYBLE_GAP_ROLE_BROADCASTER
1172:.\Generated_Source\PSoC4/BLE_eventHandler.c ****             CyBle_CpssDisconnectEventHandler();
1173:.\Generated_Source\PSoC4/BLE_eventHandler.c ****         #endif /* CYBLE_GAP_ROLE_BROADCASTER */
1174:.\Generated_Source\PSoC4/BLE_eventHandler.c ****     #endif /* CYBLE_CPS_SERVER */
1175:.\Generated_Source\PSoC4/BLE_eventHandler.c **** 
1176:.\Generated_Source\PSoC4/BLE_eventHandler.c ****     #ifdef CYBLE_CPS_CLIENT
1177:.\Generated_Source\PSoC4/BLE_eventHandler.c ****         CyBle_CpscDisconnectEventHandler();
1178:.\Generated_Source\PSoC4/BLE_eventHandler.c ****     #endif /* CYBLE_CPS_CLIENT */
1179:.\Generated_Source\PSoC4/BLE_eventHandler.c **** 
1180:.\Generated_Source\PSoC4/BLE_eventHandler.c ****     #ifdef CYBLE_IAS_SERVER
1181:.\Generated_Source\PSoC4/BLE_eventHandler.c ****         CyBle_IassDisconnectEventHandler();
1182:.\Generated_Source\PSoC4/BLE_eventHandler.c ****     #endif /* CYBLE_IAS_SERVER */
1183:.\Generated_Source\PSoC4/BLE_eventHandler.c ****     
1184:.\Generated_Source\PSoC4/BLE_eventHandler.c ****     #ifdef CYBLE_GLS_SERVER
1185:.\Generated_Source\PSoC4/BLE_eventHandler.c ****         CyBle_GlsInit();
1186:.\Generated_Source\PSoC4/BLE_eventHandler.c ****     #endif /* CYBLE_GLS_SERVER */
1187:.\Generated_Source\PSoC4/BLE_eventHandler.c ****     
1188:.\Generated_Source\PSoC4/BLE_eventHandler.c ****     #ifdef CYBLE_LNS_SERVER
1189:.\Generated_Source\PSoC4/BLE_eventHandler.c ****         CyBle_LnsInit();
1190:.\Generated_Source\PSoC4/BLE_eventHandler.c ****     #endif /* CYBLE_LNS_SERVER */
1191:.\Generated_Source\PSoC4/BLE_eventHandler.c ****     
1192:.\Generated_Source\PSoC4/BLE_eventHandler.c ****     #ifdef CYBLE_UDS_SERVER
1193:.\Generated_Source\PSoC4/BLE_eventHandler.c ****         CyBle_UdsInit();
1194:.\Generated_Source\PSoC4/BLE_eventHandler.c ****     #endif /* CYBLE_UDS_SERVER */
1195:.\Generated_Source\PSoC4/BLE_eventHandler.c **** }
 449              		.loc 1 1195 0
 450 0026 BD46     		mov	sp, r7
 451              		@ sp needed
 452 0028 80BD     		pop	{r7, pc}
 453              	.L21:
ARM GAS  C:\Users\YBOURA~1\AppData\Local\Temp\cc3HigXd.s 			page 30


 454 002a C046     		.align	2
 455              	.L20:
 456 002c 00000000 		.word	cyBle_connHandle
 457 0030 00000000 		.word	cyBle_clientState
 458              		.cfi_endproc
 459              	.LFE8:
 460              		.size	CyBle_GattDisconnectEventHandler, .-CyBle_GattDisconnectEventHandler
 461              		.section	.text.CyBle_TimeOutEventHandler,"ax",%progbits
 462              		.align	2
 463              		.code	16
 464              		.thumb_func
 465              		.type	CyBle_TimeOutEventHandler, %function
 466              	CyBle_TimeOutEventHandler:
 467              	.LFB9:
1196:.\Generated_Source\PSoC4/BLE_eventHandler.c **** 
1197:.\Generated_Source\PSoC4/BLE_eventHandler.c **** 
1198:.\Generated_Source\PSoC4/BLE_eventHandler.c **** /****************************************************************************** 
1199:.\Generated_Source\PSoC4/BLE_eventHandler.c **** * Function Name: CyBle_TimeOutEventHandler
1200:.\Generated_Source\PSoC4/BLE_eventHandler.c **** ***************************************************************************//**
1201:.\Generated_Source\PSoC4/BLE_eventHandler.c **** * 
1202:.\Generated_Source\PSoC4/BLE_eventHandler.c **** *  Handles the CYBLE_EVT_TIMEOUT event from the BLE stack.
1203:.\Generated_Source\PSoC4/BLE_eventHandler.c **** * 
1204:.\Generated_Source\PSoC4/BLE_eventHandler.c **** *  \param eventParam: The pointer to a structure of type CYBLE_TO_REASON_CODE_T.
1205:.\Generated_Source\PSoC4/BLE_eventHandler.c **** * 
1206:.\Generated_Source\PSoC4/BLE_eventHandler.c **** * \return
1207:.\Generated_Source\PSoC4/BLE_eventHandler.c **** *  None
1208:.\Generated_Source\PSoC4/BLE_eventHandler.c **** * 
1209:.\Generated_Source\PSoC4/BLE_eventHandler.c **** ******************************************************************************/
1210:.\Generated_Source\PSoC4/BLE_eventHandler.c **** static void CyBle_TimeOutEventHandler(const CYBLE_TO_REASON_CODE_T *eventParam)
1211:.\Generated_Source\PSoC4/BLE_eventHandler.c **** {
 468              		.loc 1 1211 0
 469              		.cfi_startproc
 470 0000 80B5     		push	{r7, lr}
 471              		.cfi_def_cfa_offset 8
 472              		.cfi_offset 7, -8
 473              		.cfi_offset 14, -4
 474 0002 82B0     		sub	sp, sp, #8
 475              		.cfi_def_cfa_offset 16
 476 0004 00AF     		add	r7, sp, #0
 477              		.cfi_def_cfa_register 7
 478 0006 7860     		str	r0, [r7, #4]
1212:.\Generated_Source\PSoC4/BLE_eventHandler.c ****     if(*eventParam == CYBLE_GATT_RSP_TO)
 479              		.loc 1 1212 0
 480 0008 7B68     		ldr	r3, [r7, #4]
 481 000a 1B78     		ldrb	r3, [r3]
 482 000c 032B     		cmp	r3, #3
 483 000e 3ED1     		bne	.L23
1213:.\Generated_Source\PSoC4/BLE_eventHandler.c ****     {
1214:.\Generated_Source\PSoC4/BLE_eventHandler.c ****     #if (CYBLE_GATT_ROLE_CLIENT)
1215:.\Generated_Source\PSoC4/BLE_eventHandler.c ****         if((cyBle_eventHandlerFlag & CYBLE_AUTO_DISCOVERY) != 0u)
 484              		.loc 1 1215 0
 485 0010 204B     		ldr	r3, .L31
 486 0012 1B78     		ldrb	r3, [r3]
 487 0014 DBB2     		uxtb	r3, r3
 488 0016 1A1C     		mov	r2, r3
 489 0018 0223     		mov	r3, #2
 490 001a 1340     		and	r3, r2
ARM GAS  C:\Users\YBOURA~1\AppData\Local\Temp\cc3HigXd.s 			page 31


 491 001c 37D0     		beq	.L23
1216:.\Generated_Source\PSoC4/BLE_eventHandler.c ****         {
1217:.\Generated_Source\PSoC4/BLE_eventHandler.c ****             switch(CyBle_GetClientState())
 492              		.loc 1 1217 0
 493 001e 1E4B     		ldr	r3, .L31+4
 494 0020 1B78     		ldrb	r3, [r3]
 495 0022 022B     		cmp	r3, #2
 496 0024 10D0     		beq	.L25
 497 0026 02DC     		bgt	.L26
 498 0028 012B     		cmp	r3, #1
 499 002a 05D0     		beq	.L27
1218:.\Generated_Source\PSoC4/BLE_eventHandler.c ****             {
1219:.\Generated_Source\PSoC4/BLE_eventHandler.c ****                 case CYBLE_CLIENT_STATE_SRVC_DISCOVERING:
1220:.\Generated_Source\PSoC4/BLE_eventHandler.c ****                     CyBle_ApplCallback(CYBLE_EVT_GATTC_SRVC_DISCOVERY_FAILED, NULL);
1221:.\Generated_Source\PSoC4/BLE_eventHandler.c ****                     break;
1222:.\Generated_Source\PSoC4/BLE_eventHandler.c ****                 case CYBLE_CLIENT_STATE_INCL_DISCOVERING:
1223:.\Generated_Source\PSoC4/BLE_eventHandler.c ****                     CyBle_ApplCallback(CYBLE_EVT_GATTC_INCL_DISCOVERY_FAILED, NULL);
1224:.\Generated_Source\PSoC4/BLE_eventHandler.c ****                     break;
1225:.\Generated_Source\PSoC4/BLE_eventHandler.c ****                 case CYBLE_CLIENT_STATE_CHAR_DISCOVERING:
1226:.\Generated_Source\PSoC4/BLE_eventHandler.c ****                     CyBle_ApplCallback(CYBLE_EVT_GATTC_CHAR_DISCOVERY_FAILED, NULL);
1227:.\Generated_Source\PSoC4/BLE_eventHandler.c ****                     break;
1228:.\Generated_Source\PSoC4/BLE_eventHandler.c ****                 case CYBLE_CLIENT_STATE_DESCR_DISCOVERING:
1229:.\Generated_Source\PSoC4/BLE_eventHandler.c ****                     CyBle_ApplCallback(CYBLE_EVT_GATTC_DESCR_DISCOVERY_FAILED, NULL);
1230:.\Generated_Source\PSoC4/BLE_eventHandler.c ****                     break;
1231:.\Generated_Source\PSoC4/BLE_eventHandler.c ****                 default:        /* Other states should not be set in Auto discovery mode */
1232:.\Generated_Source\PSoC4/BLE_eventHandler.c ****                     break;
 500              		.loc 1 1232 0
 501 002c 24E0     		b	.L30
 502              	.L26:
1217:.\Generated_Source\PSoC4/BLE_eventHandler.c ****             {
 503              		.loc 1 1217 0
 504 002e 032B     		cmp	r3, #3
 505 0030 12D0     		beq	.L28
 506 0032 042B     		cmp	r3, #4
 507 0034 18D0     		beq	.L29
 508              		.loc 1 1232 0
 509 0036 1FE0     		b	.L30
 510              	.L27:
1220:.\Generated_Source\PSoC4/BLE_eventHandler.c ****                     break;
 511              		.loc 1 1220 0
 512 0038 184B     		ldr	r3, .L31+8
 513 003a 1B68     		ldr	r3, [r3]
 514 003c 0822     		mov	r2, #8
 515 003e FF32     		add	r2, r2, #255
 516 0040 101C     		mov	r0, r2
 517 0042 0021     		mov	r1, #0
 518 0044 9847     		blx	r3
1221:.\Generated_Source\PSoC4/BLE_eventHandler.c ****                 case CYBLE_CLIENT_STATE_INCL_DISCOVERING:
 519              		.loc 1 1221 0
 520 0046 17E0     		b	.L30
 521              	.L25:
1223:.\Generated_Source\PSoC4/BLE_eventHandler.c ****                     break;
 522              		.loc 1 1223 0
 523 0048 144B     		ldr	r3, .L31+8
 524 004a 1B68     		ldr	r3, [r3]
 525 004c 8422     		mov	r2, #132
 526 004e 5200     		lsl	r2, r2, #1
ARM GAS  C:\Users\YBOURA~1\AppData\Local\Temp\cc3HigXd.s 			page 32


 527 0050 101C     		mov	r0, r2
 528 0052 0021     		mov	r1, #0
 529 0054 9847     		blx	r3
1224:.\Generated_Source\PSoC4/BLE_eventHandler.c ****                 case CYBLE_CLIENT_STATE_CHAR_DISCOVERING:
 530              		.loc 1 1224 0
 531 0056 0FE0     		b	.L30
 532              	.L28:
1226:.\Generated_Source\PSoC4/BLE_eventHandler.c ****                     break;
 533              		.loc 1 1226 0
 534 0058 104B     		ldr	r3, .L31+8
 535 005a 1B68     		ldr	r3, [r3]
 536 005c 0A22     		mov	r2, #10
 537 005e FF32     		add	r2, r2, #255
 538 0060 101C     		mov	r0, r2
 539 0062 0021     		mov	r1, #0
 540 0064 9847     		blx	r3
1227:.\Generated_Source\PSoC4/BLE_eventHandler.c ****                 case CYBLE_CLIENT_STATE_DESCR_DISCOVERING:
 541              		.loc 1 1227 0
 542 0066 07E0     		b	.L30
 543              	.L29:
1229:.\Generated_Source\PSoC4/BLE_eventHandler.c ****                     break;
 544              		.loc 1 1229 0
 545 0068 0C4B     		ldr	r3, .L31+8
 546 006a 1B68     		ldr	r3, [r3]
 547 006c 8522     		mov	r2, #133
 548 006e 5200     		lsl	r2, r2, #1
 549 0070 101C     		mov	r0, r2
 550 0072 0021     		mov	r1, #0
 551 0074 9847     		blx	r3
1230:.\Generated_Source\PSoC4/BLE_eventHandler.c ****                 default:        /* Other states should not be set in Auto discovery mode */
 552              		.loc 1 1230 0
 553 0076 C046     		mov	r8, r8
 554              	.L30:
1233:.\Generated_Source\PSoC4/BLE_eventHandler.c ****             }
1234:.\Generated_Source\PSoC4/BLE_eventHandler.c ****             cyBle_eventHandlerFlag &= (uint8)~CYBLE_AUTO_DISCOVERY;
 555              		.loc 1 1234 0
 556 0078 064B     		ldr	r3, .L31
 557 007a 1B78     		ldrb	r3, [r3]
 558 007c DBB2     		uxtb	r3, r3
 559 007e 0222     		mov	r2, #2
 560 0080 9343     		bic	r3, r2
 561 0082 DAB2     		uxtb	r2, r3
 562 0084 034B     		ldr	r3, .L31
 563 0086 1A70     		strb	r2, [r3]
1235:.\Generated_Source\PSoC4/BLE_eventHandler.c ****             CyBle_SetClientState(CYBLE_CLIENT_STATE_CONNECTED);
 564              		.loc 1 1235 0
 565 0088 034B     		ldr	r3, .L31+4
 566 008a 0022     		mov	r2, #0
 567 008c 1A70     		strb	r2, [r3]
 568              	.L23:
1236:.\Generated_Source\PSoC4/BLE_eventHandler.c ****         }
1237:.\Generated_Source\PSoC4/BLE_eventHandler.c ****     #endif /* CYBLE_GATT_ROLE_CLIENT */
1238:.\Generated_Source\PSoC4/BLE_eventHandler.c ****     #ifdef CYBLE_CPS_SERVER
1239:.\Generated_Source\PSoC4/BLE_eventHandler.c ****         CyBle_CpssTimeOutEventHandler();
1240:.\Generated_Source\PSoC4/BLE_eventHandler.c ****     #endif /* CYBLE_CPS_SERVER */
1241:.\Generated_Source\PSoC4/BLE_eventHandler.c ****     }
1242:.\Generated_Source\PSoC4/BLE_eventHandler.c ****     
ARM GAS  C:\Users\YBOURA~1\AppData\Local\Temp\cc3HigXd.s 			page 33


1243:.\Generated_Source\PSoC4/BLE_eventHandler.c ****     /* Connection procedure timeout */
1244:.\Generated_Source\PSoC4/BLE_eventHandler.c ****     if(*eventParam == CYBLE_GENERIC_TO)
1245:.\Generated_Source\PSoC4/BLE_eventHandler.c ****     {
1246:.\Generated_Source\PSoC4/BLE_eventHandler.c ****     #if(CYBLE_GAP_ROLE_CENTRAL)
1247:.\Generated_Source\PSoC4/BLE_eventHandler.c ****         if(CYBLE_STATE_CONNECTING == CyBle_GetState())
1248:.\Generated_Source\PSoC4/BLE_eventHandler.c ****         {
1249:.\Generated_Source\PSoC4/BLE_eventHandler.c ****             (void)CyBle_GapcCancelDeviceConnection();
1250:.\Generated_Source\PSoC4/BLE_eventHandler.c ****         }
1251:.\Generated_Source\PSoC4/BLE_eventHandler.c ****     #endif /* CYBLE_GAP_ROLE_CENTRAL */
1252:.\Generated_Source\PSoC4/BLE_eventHandler.c ****     }
1253:.\Generated_Source\PSoC4/BLE_eventHandler.c **** }
 569              		.loc 1 1253 0
 570 008e BD46     		mov	sp, r7
 571 0090 02B0     		add	sp, sp, #8
 572              		@ sp needed
 573 0092 80BD     		pop	{r7, pc}
 574              	.L32:
 575              		.align	2
 576              	.L31:
 577 0094 00000000 		.word	cyBle_eventHandlerFlag
 578 0098 00000000 		.word	cyBle_clientState
 579 009c 00000000 		.word	CyBle_ApplCallback
 580              		.cfi_endproc
 581              	.LFE9:
 582              		.size	CyBle_TimeOutEventHandler, .-CyBle_TimeOutEventHandler
 583              		.section	.text.CyBle_GattConnectReqHandler,"ax",%progbits
 584              		.align	2
 585              		.code	16
 586              		.thumb_func
 587              		.type	CyBle_GattConnectReqHandler, %function
 588              	CyBle_GattConnectReqHandler:
 589              	.LFB10:
1254:.\Generated_Source\PSoC4/BLE_eventHandler.c **** 
1255:.\Generated_Source\PSoC4/BLE_eventHandler.c **** 
1256:.\Generated_Source\PSoC4/BLE_eventHandler.c **** /****************************************************************************** 
1257:.\Generated_Source\PSoC4/BLE_eventHandler.c **** * Function Name: CyBle_GattConnectReqHandler
1258:.\Generated_Source\PSoC4/BLE_eventHandler.c **** ***************************************************************************//**
1259:.\Generated_Source\PSoC4/BLE_eventHandler.c **** * 
1260:.\Generated_Source\PSoC4/BLE_eventHandler.c **** *  Handles the GATT connect event from the BLE stack.
1261:.\Generated_Source\PSoC4/BLE_eventHandler.c **** * 
1262:.\Generated_Source\PSoC4/BLE_eventHandler.c **** * \return
1263:.\Generated_Source\PSoC4/BLE_eventHandler.c **** *  None
1264:.\Generated_Source\PSoC4/BLE_eventHandler.c **** * 
1265:.\Generated_Source\PSoC4/BLE_eventHandler.c **** ******************************************************************************/
1266:.\Generated_Source\PSoC4/BLE_eventHandler.c **** static void CyBle_GattConnectReqHandler(void)
1267:.\Generated_Source\PSoC4/BLE_eventHandler.c **** {
 590              		.loc 1 1267 0
 591              		.cfi_startproc
 592 0000 80B5     		push	{r7, lr}
 593              		.cfi_def_cfa_offset 8
 594              		.cfi_offset 7, -8
 595              		.cfi_offset 14, -4
 596 0002 00AF     		add	r7, sp, #0
 597              		.cfi_def_cfa_register 7
1268:.\Generated_Source\PSoC4/BLE_eventHandler.c ****     #ifdef CYBLE_CGMS_SERVER
1269:.\Generated_Source\PSoC4/BLE_eventHandler.c ****         CyBle_CgmsInit();
1270:.\Generated_Source\PSoC4/BLE_eventHandler.c ****     #endif /* CYBLE_CGMS_SERVER */
ARM GAS  C:\Users\YBOURA~1\AppData\Local\Temp\cc3HigXd.s 			page 34


1271:.\Generated_Source\PSoC4/BLE_eventHandler.c ****     
1272:.\Generated_Source\PSoC4/BLE_eventHandler.c ****     #ifdef CYBLE_CPS_SERVER
1273:.\Generated_Source\PSoC4/BLE_eventHandler.c ****         CyBle_CpssConnectEventHandler();
1274:.\Generated_Source\PSoC4/BLE_eventHandler.c ****     #endif /* CYBLE_CPS_SERVER */
1275:.\Generated_Source\PSoC4/BLE_eventHandler.c ****     
1276:.\Generated_Source\PSoC4/BLE_eventHandler.c ****     #ifdef CYBLE_CSCS_SERVER
1277:.\Generated_Source\PSoC4/BLE_eventHandler.c ****             CyBle_CscsInit();
1278:.\Generated_Source\PSoC4/BLE_eventHandler.c ****     #endif /* CYBLE_CSCS_SERVER */
1279:.\Generated_Source\PSoC4/BLE_eventHandler.c ****     
1280:.\Generated_Source\PSoC4/BLE_eventHandler.c ****     #ifdef CYBLE_LLS_SERVER
1281:.\Generated_Source\PSoC4/BLE_eventHandler.c ****         CyBle_LlssConnectEventHandler();
1282:.\Generated_Source\PSoC4/BLE_eventHandler.c ****     #endif /* CYBLE_LLS_SERVER */
1283:.\Generated_Source\PSoC4/BLE_eventHandler.c ****     
1284:.\Generated_Source\PSoC4/BLE_eventHandler.c ****     #ifdef CYBLE_HIDS_SERVER
1285:.\Generated_Source\PSoC4/BLE_eventHandler.c ****         CyBle_HidssOnDeviceConnected();
1286:.\Generated_Source\PSoC4/BLE_eventHandler.c ****     #endif /* CYBLE_HIDS_SERVER */
1287:.\Generated_Source\PSoC4/BLE_eventHandler.c **** 
1288:.\Generated_Source\PSoC4/BLE_eventHandler.c ****     #ifdef CYBLE_RSCS_SERVER
1289:.\Generated_Source\PSoC4/BLE_eventHandler.c ****         CyBle_RscsInit();
1290:.\Generated_Source\PSoC4/BLE_eventHandler.c ****     #endif /* CYBLE_RSCS_SERVER */
1291:.\Generated_Source\PSoC4/BLE_eventHandler.c **** }
 598              		.loc 1 1291 0
 599 0004 BD46     		mov	sp, r7
 600              		@ sp needed
 601 0006 80BD     		pop	{r7, pc}
 602              		.cfi_endproc
 603              	.LFE10:
 604              		.size	CyBle_GattConnectReqHandler, .-CyBle_GattConnectReqHandler
 605              		.section	.text.CyBle_IsDeviceAddressValid,"ax",%progbits
 606              		.align	2
 607              		.code	16
 608              		.thumb_func
 609              		.type	CyBle_IsDeviceAddressValid, %function
 610              	CyBle_IsDeviceAddressValid:
 611              	.LFB11:
1292:.\Generated_Source\PSoC4/BLE_eventHandler.c **** 
1293:.\Generated_Source\PSoC4/BLE_eventHandler.c **** 
1294:.\Generated_Source\PSoC4/BLE_eventHandler.c **** #if (CYBLE_GATT_ROLE_SERVER || CYBLE_GATT_ROLE_CLIENT)
1295:.\Generated_Source\PSoC4/BLE_eventHandler.c **** 
1296:.\Generated_Source\PSoC4/BLE_eventHandler.c **** /****************************************************************************** 
1297:.\Generated_Source\PSoC4/BLE_eventHandler.c **** * Function Name: CyBle_IsDeviceAddressValid
1298:.\Generated_Source\PSoC4/BLE_eventHandler.c **** ***************************************************************************//**
1299:.\Generated_Source\PSoC4/BLE_eventHandler.c **** * 
1300:.\Generated_Source\PSoC4/BLE_eventHandler.c **** *  This function verifies that BLE public address has been programmed to SFLASH 
1301:.\Generated_Source\PSoC4/BLE_eventHandler.c **** *  during manufacture.
1302:.\Generated_Source\PSoC4/BLE_eventHandler.c **** * 
1303:.\Generated_Source\PSoC4/BLE_eventHandler.c **** *  \param CYBLE_GAP_BD_ADDR_T *sflashDeviceAddress: the pointer to the BD address of 
1304:.\Generated_Source\PSoC4/BLE_eventHandler.c **** *                                            type CYBLE_GAP_BD_ADDR_T. 
1305:.\Generated_Source\PSoC4/BLE_eventHandler.c **** * 
1306:.\Generated_Source\PSoC4/BLE_eventHandler.c **** * \return
1307:.\Generated_Source\PSoC4/BLE_eventHandler.c **** *  Non zero value when a device address differs from the default SFLASH content.
1308:.\Generated_Source\PSoC4/BLE_eventHandler.c **** * 
1309:.\Generated_Source\PSoC4/BLE_eventHandler.c **** ******************************************************************************/
1310:.\Generated_Source\PSoC4/BLE_eventHandler.c **** static uint8 CyBle_IsDeviceAddressValid(const CYBLE_GAP_BD_ADDR_T *sflashDeviceAddress)
1311:.\Generated_Source\PSoC4/BLE_eventHandler.c **** {
 612              		.loc 1 1311 0
 613              		.cfi_startproc
ARM GAS  C:\Users\YBOURA~1\AppData\Local\Temp\cc3HigXd.s 			page 35


 614 0000 80B5     		push	{r7, lr}
 615              		.cfi_def_cfa_offset 8
 616              		.cfi_offset 7, -8
 617              		.cfi_offset 14, -4
 618 0002 84B0     		sub	sp, sp, #16
 619              		.cfi_def_cfa_offset 24
 620 0004 00AF     		add	r7, sp, #0
 621              		.cfi_def_cfa_register 7
 622 0006 7860     		str	r0, [r7, #4]
1312:.\Generated_Source\PSoC4/BLE_eventHandler.c ****     uint8 i;
1313:.\Generated_Source\PSoC4/BLE_eventHandler.c ****     uint8 sflashAddressValid = 0u;
 623              		.loc 1 1313 0
 624 0008 0E23     		mov	r3, #14
 625 000a FB18     		add	r3, r7, r3
 626 000c 0022     		mov	r2, #0
 627 000e 1A70     		strb	r2, [r3]
1314:.\Generated_Source\PSoC4/BLE_eventHandler.c ****     
1315:.\Generated_Source\PSoC4/BLE_eventHandler.c ****     if(sflashDeviceAddress -> type == CYBLE_GAP_ADDR_TYPE_PUBLIC)  
 628              		.loc 1 1315 0
 629 0010 7B68     		ldr	r3, [r7, #4]
 630 0012 9B79     		ldrb	r3, [r3, #6]
 631 0014 002B     		cmp	r3, #0
 632 0016 1CD1     		bne	.L35
1316:.\Generated_Source\PSoC4/BLE_eventHandler.c ****     {
1317:.\Generated_Source\PSoC4/BLE_eventHandler.c ****         for(i = 0u; i < CYBLE_GAP_BD_ADDR_SIZE; i++)
 633              		.loc 1 1317 0
 634 0018 0F23     		mov	r3, #15
 635 001a FB18     		add	r3, r7, r3
 636 001c 0022     		mov	r2, #0
 637 001e 1A70     		strb	r2, [r3]
 638 0020 12E0     		b	.L36
 639              	.L38:
1318:.\Generated_Source\PSoC4/BLE_eventHandler.c ****         {
1319:.\Generated_Source\PSoC4/BLE_eventHandler.c ****             if(sflashDeviceAddress->bdAddr[i] != 0u)
 640              		.loc 1 1319 0
 641 0022 0F23     		mov	r3, #15
 642 0024 FB18     		add	r3, r7, r3
 643 0026 1B78     		ldrb	r3, [r3]
 644 0028 7A68     		ldr	r2, [r7, #4]
 645 002a D35C     		ldrb	r3, [r2, r3]
 646 002c 002B     		cmp	r3, #0
 647 002e 04D0     		beq	.L37
1320:.\Generated_Source\PSoC4/BLE_eventHandler.c ****             {
1321:.\Generated_Source\PSoC4/BLE_eventHandler.c ****                 sflashAddressValid = 1u;
 648              		.loc 1 1321 0
 649 0030 0E23     		mov	r3, #14
 650 0032 FB18     		add	r3, r7, r3
 651 0034 0122     		mov	r2, #1
 652 0036 1A70     		strb	r2, [r3]
1322:.\Generated_Source\PSoC4/BLE_eventHandler.c ****                 break;
 653              		.loc 1 1322 0
 654 0038 0BE0     		b	.L35
 655              	.L37:
1317:.\Generated_Source\PSoC4/BLE_eventHandler.c ****         {
 656              		.loc 1 1317 0 discriminator 2
 657 003a 0F23     		mov	r3, #15
 658 003c FB18     		add	r3, r7, r3
ARM GAS  C:\Users\YBOURA~1\AppData\Local\Temp\cc3HigXd.s 			page 36


 659 003e 1A78     		ldrb	r2, [r3]
 660 0040 0F23     		mov	r3, #15
 661 0042 FB18     		add	r3, r7, r3
 662 0044 0132     		add	r2, r2, #1
 663 0046 1A70     		strb	r2, [r3]
 664              	.L36:
1317:.\Generated_Source\PSoC4/BLE_eventHandler.c ****         {
 665              		.loc 1 1317 0 is_stmt 0 discriminator 1
 666 0048 0F23     		mov	r3, #15
 667 004a FB18     		add	r3, r7, r3
 668 004c 1B78     		ldrb	r3, [r3]
 669 004e 052B     		cmp	r3, #5
 670 0050 E7D9     		bls	.L38
 671              	.L35:
1323:.\Generated_Source\PSoC4/BLE_eventHandler.c ****             }
1324:.\Generated_Source\PSoC4/BLE_eventHandler.c ****         }
1325:.\Generated_Source\PSoC4/BLE_eventHandler.c ****     }
1326:.\Generated_Source\PSoC4/BLE_eventHandler.c **** #if (CYBLE_M0S8BLESS_VERSION != 1)
1327:.\Generated_Source\PSoC4/BLE_eventHandler.c ****     sflashAddressValid = 0u;
1328:.\Generated_Source\PSoC4/BLE_eventHandler.c **** #endif
1329:.\Generated_Source\PSoC4/BLE_eventHandler.c ****     
1330:.\Generated_Source\PSoC4/BLE_eventHandler.c ****     return (sflashAddressValid);
 672              		.loc 1 1330 0 is_stmt 1
 673 0052 0E23     		mov	r3, #14
 674 0054 FB18     		add	r3, r7, r3
 675 0056 1B78     		ldrb	r3, [r3]
1331:.\Generated_Source\PSoC4/BLE_eventHandler.c **** }
 676              		.loc 1 1331 0
 677 0058 181C     		mov	r0, r3
 678 005a BD46     		mov	sp, r7
 679 005c 04B0     		add	sp, sp, #16
 680              		@ sp needed
 681 005e 80BD     		pop	{r7, pc}
 682              		.cfi_endproc
 683              	.LFE11:
 684              		.size	CyBle_IsDeviceAddressValid, .-CyBle_IsDeviceAddressValid
 685              		.section	.text.CyBle_L2Cap_ConnParamUpdateRspEventHandler,"ax",%progbits
 686              		.align	2
 687              		.code	16
 688              		.thumb_func
 689              		.type	CyBle_L2Cap_ConnParamUpdateRspEventHandler, %function
 690              	CyBle_L2Cap_ConnParamUpdateRspEventHandler:
 691              	.LFB12:
1332:.\Generated_Source\PSoC4/BLE_eventHandler.c **** #endif /* CYBLE_GATT_ROLE_SERVER || CYBLE_GATT_ROLE_CLIENT */
1333:.\Generated_Source\PSoC4/BLE_eventHandler.c **** 
1334:.\Generated_Source\PSoC4/BLE_eventHandler.c **** 
1335:.\Generated_Source\PSoC4/BLE_eventHandler.c **** /****************************************************************************** 
1336:.\Generated_Source\PSoC4/BLE_eventHandler.c **** * Function Name: CyBle_L2Cap_ConnParamUpdateRspHandler
1337:.\Generated_Source\PSoC4/BLE_eventHandler.c **** ***************************************************************************//**
1338:.\Generated_Source\PSoC4/BLE_eventHandler.c **** * 
1339:.\Generated_Source\PSoC4/BLE_eventHandler.c **** *  Handles the L2CAP connection parameter response event from
1340:.\Generated_Source\PSoC4/BLE_eventHandler.c **** *  the BLE stack.
1341:.\Generated_Source\PSoC4/BLE_eventHandler.c **** * 
1342:.\Generated_Source\PSoC4/BLE_eventHandler.c **** *  \param response:
1343:.\Generated_Source\PSoC4/BLE_eventHandler.c **** *      * Accepted = 0x0000
1344:.\Generated_Source\PSoC4/BLE_eventHandler.c **** *      * Rejected = 0x0001
1345:.\Generated_Source\PSoC4/BLE_eventHandler.c **** * 
ARM GAS  C:\Users\YBOURA~1\AppData\Local\Temp\cc3HigXd.s 			page 37


1346:.\Generated_Source\PSoC4/BLE_eventHandler.c **** * \return
1347:.\Generated_Source\PSoC4/BLE_eventHandler.c **** *  None
1348:.\Generated_Source\PSoC4/BLE_eventHandler.c **** * 
1349:.\Generated_Source\PSoC4/BLE_eventHandler.c **** ******************************************************************************/
1350:.\Generated_Source\PSoC4/BLE_eventHandler.c **** static void CyBle_L2Cap_ConnParamUpdateRspEventHandler(uint16 response)
1351:.\Generated_Source\PSoC4/BLE_eventHandler.c **** {
 692              		.loc 1 1351 0
 693              		.cfi_startproc
 694 0000 80B5     		push	{r7, lr}
 695              		.cfi_def_cfa_offset 8
 696              		.cfi_offset 7, -8
 697              		.cfi_offset 14, -4
 698 0002 82B0     		sub	sp, sp, #8
 699              		.cfi_def_cfa_offset 16
 700 0004 00AF     		add	r7, sp, #0
 701              		.cfi_def_cfa_register 7
 702 0006 021C     		mov	r2, r0
 703 0008 BB1D     		add	r3, r7, #6
 704 000a 1A80     		strh	r2, [r3]
1352:.\Generated_Source\PSoC4/BLE_eventHandler.c ****     #ifdef CYBLE_CPS_SERVER
1353:.\Generated_Source\PSoC4/BLE_eventHandler.c ****         CyBle_CpssConnParamUpdateRspEventHandler(response);
1354:.\Generated_Source\PSoC4/BLE_eventHandler.c ****     #endif /* CYBLE_CPS_SERVER */
1355:.\Generated_Source\PSoC4/BLE_eventHandler.c ****     
1356:.\Generated_Source\PSoC4/BLE_eventHandler.c ****     /* Unreferenced variable warning workaround */
1357:.\Generated_Source\PSoC4/BLE_eventHandler.c ****     if(response != 0u)
1358:.\Generated_Source\PSoC4/BLE_eventHandler.c ****     {
1359:.\Generated_Source\PSoC4/BLE_eventHandler.c ****     }
1360:.\Generated_Source\PSoC4/BLE_eventHandler.c **** }
 705              		.loc 1 1360 0
 706 000c BD46     		mov	sp, r7
 707 000e 02B0     		add	sp, sp, #8
 708              		@ sp needed
 709 0010 80BD     		pop	{r7, pc}
 710              		.cfi_endproc
 711              	.LFE12:
 712              		.size	CyBle_L2Cap_ConnParamUpdateRspEventHandler, .-CyBle_L2Cap_ConnParamUpdateRspEventHandler
 713 0012 C046     		.section	.text.CyBle_GapConnUpdateCompleteEventHandler,"ax",%progbits
 714              		.align	2
 715              		.code	16
 716              		.thumb_func
 717              		.type	CyBle_GapConnUpdateCompleteEventHandler, %function
 718              	CyBle_GapConnUpdateCompleteEventHandler:
 719              	.LFB13:
1361:.\Generated_Source\PSoC4/BLE_eventHandler.c **** 
1362:.\Generated_Source\PSoC4/BLE_eventHandler.c **** 
1363:.\Generated_Source\PSoC4/BLE_eventHandler.c **** /****************************************************************************** 
1364:.\Generated_Source\PSoC4/BLE_eventHandler.c **** * Function Name: CyBle_GapConnUpdateCompleteEventHandler
1365:.\Generated_Source\PSoC4/BLE_eventHandler.c **** ***************************************************************************//**
1366:.\Generated_Source\PSoC4/BLE_eventHandler.c **** * 
1367:.\Generated_Source\PSoC4/BLE_eventHandler.c **** *  Handles the CYBLE_EVT_GAP_CONNECTION_UPDATE_COMPLETE event from
1368:.\Generated_Source\PSoC4/BLE_eventHandler.c **** *  the BLE stack.
1369:.\Generated_Source\PSoC4/BLE_eventHandler.c **** * 
1370:.\Generated_Source\PSoC4/BLE_eventHandler.c **** *  \param eventParam: The pointer to the data structure specified by the event.
1371:.\Generated_Source\PSoC4/BLE_eventHandler.c **** * 
1372:.\Generated_Source\PSoC4/BLE_eventHandler.c **** * \return
1373:.\Generated_Source\PSoC4/BLE_eventHandler.c **** *  None
1374:.\Generated_Source\PSoC4/BLE_eventHandler.c **** * 
ARM GAS  C:\Users\YBOURA~1\AppData\Local\Temp\cc3HigXd.s 			page 38


1375:.\Generated_Source\PSoC4/BLE_eventHandler.c **** ******************************************************************************/
1376:.\Generated_Source\PSoC4/BLE_eventHandler.c **** static void CyBle_GapConnUpdateCompleteEventHandler(const CYBLE_GAP_CONN_PARAM_UPDATED_IN_CONTROLLE
1377:.\Generated_Source\PSoC4/BLE_eventHandler.c **** {
 720              		.loc 1 1377 0
 721              		.cfi_startproc
 722 0000 80B5     		push	{r7, lr}
 723              		.cfi_def_cfa_offset 8
 724              		.cfi_offset 7, -8
 725              		.cfi_offset 14, -4
 726 0002 82B0     		sub	sp, sp, #8
 727              		.cfi_def_cfa_offset 16
 728 0004 00AF     		add	r7, sp, #0
 729              		.cfi_def_cfa_register 7
 730 0006 7860     		str	r0, [r7, #4]
1378:.\Generated_Source\PSoC4/BLE_eventHandler.c ****     #ifdef CYBLE_CPS_SERVER
1379:.\Generated_Source\PSoC4/BLE_eventHandler.c ****         CyBle_CpssConnUpdateCompleteEventHandler(eventParam);
1380:.\Generated_Source\PSoC4/BLE_eventHandler.c ****     #endif /* CYBLE_CPS_SERVER */
1381:.\Generated_Source\PSoC4/BLE_eventHandler.c ****     
1382:.\Generated_Source\PSoC4/BLE_eventHandler.c ****     /* Unreferenced variable warning workaround */
1383:.\Generated_Source\PSoC4/BLE_eventHandler.c ****     if(eventParam != 0u)
1384:.\Generated_Source\PSoC4/BLE_eventHandler.c ****     {
1385:.\Generated_Source\PSoC4/BLE_eventHandler.c ****     }
1386:.\Generated_Source\PSoC4/BLE_eventHandler.c **** }
 731              		.loc 1 1386 0
 732 0008 BD46     		mov	sp, r7
 733 000a 02B0     		add	sp, sp, #8
 734              		@ sp needed
 735 000c 80BD     		pop	{r7, pc}
 736              		.cfi_endproc
 737              	.LFE13:
 738              		.size	CyBle_GapConnUpdateCompleteEventHandler, .-CyBle_GapConnUpdateCompleteEventHandler
 739              		.section	.text.CyBle_EventHandler,"ax",%progbits
 740              		.align	2
 741              		.global	CyBle_EventHandler
 742              		.code	16
 743              		.thumb_func
 744              		.type	CyBle_EventHandler, %function
 745              	CyBle_EventHandler:
 746              	.LFB14:
1387:.\Generated_Source\PSoC4/BLE_eventHandler.c **** 
1388:.\Generated_Source\PSoC4/BLE_eventHandler.c **** 
1389:.\Generated_Source\PSoC4/BLE_eventHandler.c **** /****************************************************************************** 
1390:.\Generated_Source\PSoC4/BLE_eventHandler.c **** * Function Name: CyBle_EventHandler
1391:.\Generated_Source\PSoC4/BLE_eventHandler.c **** ***************************************************************************//**
1392:.\Generated_Source\PSoC4/BLE_eventHandler.c **** * 
1393:.\Generated_Source\PSoC4/BLE_eventHandler.c **** *  Handles the events from the BLE stack
1394:.\Generated_Source\PSoC4/BLE_eventHandler.c **** * 
1395:.\Generated_Source\PSoC4/BLE_eventHandler.c **** *  \param eventCode:    the event code
1396:.\Generated_Source\PSoC4/BLE_eventHandler.c **** *  \param eventParam:  the event parameters
1397:.\Generated_Source\PSoC4/BLE_eventHandler.c **** * 
1398:.\Generated_Source\PSoC4/BLE_eventHandler.c **** * \return
1399:.\Generated_Source\PSoC4/BLE_eventHandler.c **** *  None.
1400:.\Generated_Source\PSoC4/BLE_eventHandler.c **** * 
1401:.\Generated_Source\PSoC4/BLE_eventHandler.c **** ******************************************************************************/
1402:.\Generated_Source\PSoC4/BLE_eventHandler.c **** void CyBle_EventHandler(uint8 eventCode, void *eventParam)
1403:.\Generated_Source\PSoC4/BLE_eventHandler.c **** {
 747              		.loc 1 1403 0
ARM GAS  C:\Users\YBOURA~1\AppData\Local\Temp\cc3HigXd.s 			page 39


 748              		.cfi_startproc
 749 0000 80B5     		push	{r7, lr}
 750              		.cfi_def_cfa_offset 8
 751              		.cfi_offset 7, -8
 752              		.cfi_offset 14, -4
 753 0002 84B0     		sub	sp, sp, #16
 754              		.cfi_def_cfa_offset 24
 755 0004 00AF     		add	r7, sp, #0
 756              		.cfi_def_cfa_register 7
 757 0006 021C     		mov	r2, r0
 758 0008 3960     		str	r1, [r7]
 759 000a FB1D     		add	r3, r7, #7
 760 000c 1A70     		strb	r2, [r3]
1404:.\Generated_Source\PSoC4/BLE_eventHandler.c ****     cyBle_eventHandlerFlag |= CYBLE_CALLBACK;
 761              		.loc 1 1404 0
 762 000e AC4B     		ldr	r3, .L87
 763 0010 1B78     		ldrb	r3, [r3]
 764 0012 DBB2     		uxtb	r3, r3
 765 0014 0122     		mov	r2, #1
 766 0016 1343     		orr	r3, r2
 767 0018 DAB2     		uxtb	r2, r3
 768 001a A94B     		ldr	r3, .L87
 769 001c 1A70     		strb	r2, [r3]
1405:.\Generated_Source\PSoC4/BLE_eventHandler.c **** 
1406:.\Generated_Source\PSoC4/BLE_eventHandler.c ****     /* Common Profile event handling */
1407:.\Generated_Source\PSoC4/BLE_eventHandler.c ****     switch(eventCode)
 770              		.loc 1 1407 0
 771 001e FB1D     		add	r3, r7, #7
 772 0020 1B78     		ldrb	r3, [r3]
 773 0022 712B     		cmp	r3, #113
 774 0024 00D9     		bls	.LCB659
 775 0026 2FE1     		b	.L86	@long jump
 776              	.LCB659:
 777 0028 9A00     		lsl	r2, r3, #2
 778 002a A64B     		ldr	r3, .L87+4
 779 002c D318     		add	r3, r2, r3
 780 002e 1B68     		ldr	r3, [r3]
 781 0030 9F46     		mov	pc, r3
 782              		.section	.rodata
 783              		.align	2
 784              	.L45:
 785 0000 88020000 		.word	.L86
 786 0004 32000000 		.word	.L44
 787 0008 AE000000 		.word	.L46
 788 000c 88020000 		.word	.L86
 789 0010 88020000 		.word	.L86
 790 0014 B8000000 		.word	.L47
 791 0018 88020000 		.word	.L86
 792 001c 88020000 		.word	.L86
 793 0020 88020000 		.word	.L86
 794 0024 88020000 		.word	.L86
 795 0028 88020000 		.word	.L86
 796 002c 88020000 		.word	.L86
 797 0030 88020000 		.word	.L86
 798 0034 88020000 		.word	.L86
 799 0038 88020000 		.word	.L86
 800 003c 88020000 		.word	.L86
ARM GAS  C:\Users\YBOURA~1\AppData\Local\Temp\cc3HigXd.s 			page 40


 801 0040 88020000 		.word	.L86
 802 0044 88020000 		.word	.L86
 803 0048 88020000 		.word	.L86
 804 004c 88020000 		.word	.L86
 805 0050 88020000 		.word	.L86
 806 0054 88020000 		.word	.L86
 807 0058 88020000 		.word	.L86
 808 005c 88020000 		.word	.L86
 809 0060 88020000 		.word	.L86
 810 0064 88020000 		.word	.L86
 811 0068 88020000 		.word	.L86
 812 006c 88020000 		.word	.L86
 813 0070 88020000 		.word	.L86
 814 0074 88020000 		.word	.L86
 815 0078 88020000 		.word	.L86
 816 007c 88020000 		.word	.L86
 817 0080 88020000 		.word	.L86
 818 0084 C2000000 		.word	.L49
 819 0088 88020000 		.word	.L86
 820 008c 88020000 		.word	.L86
 821 0090 88020000 		.word	.L86
 822 0094 88020000 		.word	.L86
 823 0098 88020000 		.word	.L86
 824 009c EC000000 		.word	.L51
 825 00a0 FC000000 		.word	.L52
 826 00a4 88020000 		.word	.L86
 827 00a8 E2000000 		.word	.L53
 828 00ac 04010000 		.word	.L54
 829 00b0 88020000 		.word	.L86
 830 00b4 88020000 		.word	.L86
 831 00b8 88020000 		.word	.L86
 832 00bc 88020000 		.word	.L86
 833 00c0 88020000 		.word	.L86
 834 00c4 88020000 		.word	.L86
 835 00c8 88020000 		.word	.L86
 836 00cc 88020000 		.word	.L86
 837 00d0 88020000 		.word	.L86
 838 00d4 88020000 		.word	.L86
 839 00d8 88020000 		.word	.L86
 840 00dc 88020000 		.word	.L86
 841 00e0 88020000 		.word	.L86
 842 00e4 88020000 		.word	.L86
 843 00e8 88020000 		.word	.L86
 844 00ec 88020000 		.word	.L86
 845 00f0 88020000 		.word	.L86
 846 00f4 88020000 		.word	.L86
 847 00f8 88020000 		.word	.L86
 848 00fc 88020000 		.word	.L86
 849 0100 36020000 		.word	.L55
 850 0104 84010000 		.word	.L56
 851 0108 C4010000 		.word	.L57
 852 010c CA010000 		.word	.L58
 853 0110 88020000 		.word	.L86
 854 0114 18020000 		.word	.L59
 855 0118 22020000 		.word	.L60
 856 011c 2C020000 		.word	.L61
 857 0120 88020000 		.word	.L86
ARM GAS  C:\Users\YBOURA~1\AppData\Local\Temp\cc3HigXd.s 			page 41


 858 0124 74020000 		.word	.L62
 859 0128 88020000 		.word	.L86
 860 012c 88020000 		.word	.L86
 861 0130 04020000 		.word	.L64
 862 0134 7E020000 		.word	.L65
 863 0138 88020000 		.word	.L86
 864 013c 88020000 		.word	.L86
 865 0140 88020000 		.word	.L86
 866 0144 88020000 		.word	.L86
 867 0148 40020000 		.word	.L70
 868 014c 4A020000 		.word	.L71
 869 0150 0E020000 		.word	.L72
 870 0154 88020000 		.word	.L86
 871 0158 88020000 		.word	.L86
 872 015c 88020000 		.word	.L86
 873 0160 88020000 		.word	.L86
 874 0164 88020000 		.word	.L86
 875 0168 88020000 		.word	.L86
 876 016c 88020000 		.word	.L86
 877 0170 88020000 		.word	.L86
 878 0174 88020000 		.word	.L86
 879 0178 88020000 		.word	.L86
 880 017c 88020000 		.word	.L86
 881 0180 88020000 		.word	.L86
 882 0184 88020000 		.word	.L86
 883 0188 88020000 		.word	.L86
 884 018c 88020000 		.word	.L86
 885 0190 88020000 		.word	.L86
 886 0194 88020000 		.word	.L86
 887 0198 88020000 		.word	.L86
 888 019c 88020000 		.word	.L86
 889 01a0 88020000 		.word	.L86
 890 01a4 88020000 		.word	.L86
 891 01a8 88020000 		.word	.L86
 892 01ac 88020000 		.word	.L86
 893 01b0 88020000 		.word	.L86
 894 01b4 88020000 		.word	.L86
 895 01b8 88020000 		.word	.L86
 896 01bc 88020000 		.word	.L86
 897 01c0 88020000 		.word	.L86
 898 01c4 78010000 		.word	.L74
 899              		.section	.text.CyBle_EventHandler
 900              	.L44:
 901              	.LBB4:
1408:.\Generated_Source\PSoC4/BLE_eventHandler.c ****     {
1409:.\Generated_Source\PSoC4/BLE_eventHandler.c ****         /**********************************************************
1410:.\Generated_Source\PSoC4/BLE_eventHandler.c ****         * General events
1411:.\Generated_Source\PSoC4/BLE_eventHandler.c ****         ************************************************************/
1412:.\Generated_Source\PSoC4/BLE_eventHandler.c ****         case CYBLE_EVT_STACK_ON:
1413:.\Generated_Source\PSoC4/BLE_eventHandler.c ****         #if(CYBLE_MODE_PROFILE)
1414:.\Generated_Source\PSoC4/BLE_eventHandler.c ****         {
1415:.\Generated_Source\PSoC4/BLE_eventHandler.c ****             CYBLE_BLESS_PWR_IN_DB_T bleSsPowerLevel;
1416:.\Generated_Source\PSoC4/BLE_eventHandler.c ****             
1417:.\Generated_Source\PSoC4/BLE_eventHandler.c ****             /* Set Tx Power Level for advertising and connection channels */
1418:.\Generated_Source\PSoC4/BLE_eventHandler.c ****             bleSsPowerLevel.blePwrLevelInDbm = CYBLE_TX_POWER_LEVEL_ADV;
 902              		.loc 1 1418 0
 903 0032 0C23     		mov	r3, #12
ARM GAS  C:\Users\YBOURA~1\AppData\Local\Temp\cc3HigXd.s 			page 42


 904 0034 FB18     		add	r3, r7, r3
 905 0036 0822     		mov	r2, #8
 906 0038 1A70     		strb	r2, [r3]
1419:.\Generated_Source\PSoC4/BLE_eventHandler.c ****             bleSsPowerLevel.bleSsChId = CYBLE_LL_ADV_CH_TYPE;
 907              		.loc 1 1419 0
 908 003a 0C23     		mov	r3, #12
 909 003c FB18     		add	r3, r7, r3
 910 003e 0022     		mov	r2, #0
 911 0040 5A70     		strb	r2, [r3, #1]
1420:.\Generated_Source\PSoC4/BLE_eventHandler.c ****             (void) CyBle_SetTxPowerLevel (&bleSsPowerLevel);
 912              		.loc 1 1420 0
 913 0042 0C23     		mov	r3, #12
 914 0044 FB18     		add	r3, r7, r3
 915 0046 181C     		mov	r0, r3
 916 0048 FFF7FEFF 		bl	CyBle_SetTxPowerLevel
1421:.\Generated_Source\PSoC4/BLE_eventHandler.c ****             bleSsPowerLevel.blePwrLevelInDbm = CYBLE_TX_POWER_LEVEL_CONN;
 917              		.loc 1 1421 0
 918 004c 0C23     		mov	r3, #12
 919 004e FB18     		add	r3, r7, r3
 920 0050 0822     		mov	r2, #8
 921 0052 1A70     		strb	r2, [r3]
1422:.\Generated_Source\PSoC4/BLE_eventHandler.c ****             bleSsPowerLevel.bleSsChId = CYBLE_LL_CONN_CH_TYPE;
 922              		.loc 1 1422 0
 923 0054 0C23     		mov	r3, #12
 924 0056 FB18     		add	r3, r7, r3
 925 0058 0122     		mov	r2, #1
 926 005a 5A70     		strb	r2, [r3, #1]
1423:.\Generated_Source\PSoC4/BLE_eventHandler.c ****             (void) CyBle_SetTxPowerLevel (&bleSsPowerLevel);
 927              		.loc 1 1423 0
 928 005c 0C23     		mov	r3, #12
 929 005e FB18     		add	r3, r7, r3
 930 0060 181C     		mov	r0, r3
 931 0062 FFF7FEFF 		bl	CyBle_SetTxPowerLevel
 932              	.LBE4:
1424:.\Generated_Source\PSoC4/BLE_eventHandler.c ****         }
1425:.\Generated_Source\PSoC4/BLE_eventHandler.c ****         #endif /* CYBLE_MODE_PROFILE */
1426:.\Generated_Source\PSoC4/BLE_eventHandler.c ****         #if (CYBLE_GATT_ROLE_SERVER || CYBLE_GATT_ROLE_CLIENT)
1427:.\Generated_Source\PSoC4/BLE_eventHandler.c ****             /* Set device Address  */
1428:.\Generated_Source\PSoC4/BLE_eventHandler.c ****             if(CyBle_IsDeviceAddressValid(cyBle_sflashDeviceAddress) != 0u)
 933              		.loc 1 1428 0
 934 0066 984B     		ldr	r3, .L87+8
 935 0068 1B68     		ldr	r3, [r3]
 936 006a 181C     		mov	r0, r3
 937 006c FFF7FEFF 		bl	CyBle_IsDeviceAddressValid
 938 0070 031E     		sub	r3, r0, #0
 939 0072 05D0     		beq	.L75
1429:.\Generated_Source\PSoC4/BLE_eventHandler.c ****             {
1430:.\Generated_Source\PSoC4/BLE_eventHandler.c ****                 (void) CyBle_SetDeviceAddress(cyBle_sflashDeviceAddress);
 940              		.loc 1 1430 0
 941 0074 944B     		ldr	r3, .L87+8
 942 0076 1B68     		ldr	r3, [r3]
 943 0078 181C     		mov	r0, r3
 944 007a FFF7FEFF 		bl	CyBle_SetDeviceAddress
 945 007e 0FE0     		b	.L76
 946              	.L75:
1431:.\Generated_Source\PSoC4/BLE_eventHandler.c ****                 #if(CYBLE_GAP_ROLE_PERIPHERAL || CYBLE_GAP_ROLE_BROADCASTER)
1432:.\Generated_Source\PSoC4/BLE_eventHandler.c ****                     CyBle_ChangeAdDeviceAddress(cyBle_sflashDeviceAddress, 0u);
ARM GAS  C:\Users\YBOURA~1\AppData\Local\Temp\cc3HigXd.s 			page 43


1433:.\Generated_Source\PSoC4/BLE_eventHandler.c ****                     CyBle_ChangeAdDeviceAddress(cyBle_sflashDeviceAddress, 1u);
1434:.\Generated_Source\PSoC4/BLE_eventHandler.c ****                 #endif /* CYBLE_GAP_ROLE_PERIPHERAL || CYBLE_GAP_ROLE_BROADCASTER */    
1435:.\Generated_Source\PSoC4/BLE_eventHandler.c ****             }
1436:.\Generated_Source\PSoC4/BLE_eventHandler.c ****             else
1437:.\Generated_Source\PSoC4/BLE_eventHandler.c ****             {
1438:.\Generated_Source\PSoC4/BLE_eventHandler.c ****             #if (SILICON_GENERATED_DEVICE_ADDRESS != 0u)
1439:.\Generated_Source\PSoC4/BLE_eventHandler.c ****                 cyBle_deviceAddress.bdAddr[0] = CYBLE_SFLASH_DIE_X_REG;
 947              		.loc 1 1439 0
 948 0080 924B     		ldr	r3, .L87+12
 949 0082 1A78     		ldrb	r2, [r3]
 950 0084 924B     		ldr	r3, .L87+16
 951 0086 1A70     		strb	r2, [r3]
1440:.\Generated_Source\PSoC4/BLE_eventHandler.c ****                 cyBle_deviceAddress.bdAddr[1] = CYBLE_SFLASH_DIE_Y_REG;
 952              		.loc 1 1440 0
 953 0088 924B     		ldr	r3, .L87+20
 954 008a 1A78     		ldrb	r2, [r3]
 955 008c 904B     		ldr	r3, .L87+16
 956 008e 5A70     		strb	r2, [r3, #1]
1441:.\Generated_Source\PSoC4/BLE_eventHandler.c ****                 cyBle_deviceAddress.bdAddr[2] = CYBLE_SFLASH_DIE_WAFER_REG;
 957              		.loc 1 1441 0
 958 0090 914B     		ldr	r3, .L87+24
 959 0092 1A78     		ldrb	r2, [r3]
 960 0094 8E4B     		ldr	r3, .L87+16
 961 0096 9A70     		strb	r2, [r3, #2]
1442:.\Generated_Source\PSoC4/BLE_eventHandler.c ****             #endif /* SILICON_GENERATED_DEVICE_ADDRESS != 0u */
1443:.\Generated_Source\PSoC4/BLE_eventHandler.c ****                 (void) CyBle_SetDeviceAddress(&cyBle_deviceAddress);
 962              		.loc 1 1443 0
 963 0098 8D4B     		ldr	r3, .L87+16
 964 009a 181C     		mov	r0, r3
 965 009c FFF7FEFF 		bl	CyBle_SetDeviceAddress
 966              	.L76:
1444:.\Generated_Source\PSoC4/BLE_eventHandler.c ****                 #if(CYBLE_GAP_ROLE_PERIPHERAL || CYBLE_GAP_ROLE_BROADCASTER)
1445:.\Generated_Source\PSoC4/BLE_eventHandler.c ****                     CyBle_ChangeAdDeviceAddress(&cyBle_deviceAddress, 0u);
1446:.\Generated_Source\PSoC4/BLE_eventHandler.c ****                     CyBle_ChangeAdDeviceAddress(&cyBle_deviceAddress, 1u);
1447:.\Generated_Source\PSoC4/BLE_eventHandler.c ****                 #endif /* CYBLE_GAP_ROLE_PERIPHERAL || CYBLE_GAP_ROLE_BROADCASTER */    
1448:.\Generated_Source\PSoC4/BLE_eventHandler.c ****             }
1449:.\Generated_Source\PSoC4/BLE_eventHandler.c ****             /* Set device IO Capability  */
1450:.\Generated_Source\PSoC4/BLE_eventHandler.c ****             (void) CyBle_GapSetIoCap(CYBLE_IO_CAPABILITY);    
 967              		.loc 1 1450 0
 968 00a0 0020     		mov	r0, #0
 969 00a2 FFF7FEFF 		bl	CyBle_GapSetIoCap
1451:.\Generated_Source\PSoC4/BLE_eventHandler.c ****         #endif /* CYBLE_GATT_ROLE_SERVER || CYBLE_GATT_ROLE_CLIENT */
1452:.\Generated_Source\PSoC4/BLE_eventHandler.c ****             CyBle_SetState(CYBLE_STATE_DISCONNECTED);
 970              		.loc 1 1452 0
 971 00a6 8D4B     		ldr	r3, .L87+28
 972 00a8 0422     		mov	r2, #4
 973 00aa 1A70     		strb	r2, [r3]
1453:.\Generated_Source\PSoC4/BLE_eventHandler.c ****             break;
 974              		.loc 1 1453 0
 975 00ac EDE0     		b	.L77
 976              	.L46:
1454:.\Generated_Source\PSoC4/BLE_eventHandler.c ****         case CYBLE_EVT_TIMEOUT:
1455:.\Generated_Source\PSoC4/BLE_eventHandler.c ****             CyBle_TimeOutEventHandler((CYBLE_TO_REASON_CODE_T *)eventParam);
 977              		.loc 1 1455 0
 978 00ae 3B68     		ldr	r3, [r7]
 979 00b0 181C     		mov	r0, r3
 980 00b2 FFF7FEFF 		bl	CyBle_TimeOutEventHandler
ARM GAS  C:\Users\YBOURA~1\AppData\Local\Temp\cc3HigXd.s 			page 44


1456:.\Generated_Source\PSoC4/BLE_eventHandler.c ****             break;
 981              		.loc 1 1456 0
 982 00b6 E8E0     		b	.L77
 983              	.L47:
1457:.\Generated_Source\PSoC4/BLE_eventHandler.c ****     	case CYBLE_EVT_STACK_BUSY_STATUS:
1458:.\Generated_Source\PSoC4/BLE_eventHandler.c ****             cyBle_busyStatus = *(uint8 *)eventParam;
 984              		.loc 1 1458 0
 985 00b8 3B68     		ldr	r3, [r7]
 986 00ba 1A78     		ldrb	r2, [r3]
 987 00bc 884B     		ldr	r3, .L87+32
 988 00be 1A70     		strb	r2, [r3]
1459:.\Generated_Source\PSoC4/BLE_eventHandler.c ****             break;
 989              		.loc 1 1459 0
 990 00c0 E3E0     		b	.L77
 991              	.L49:
1460:.\Generated_Source\PSoC4/BLE_eventHandler.c **** 
1461:.\Generated_Source\PSoC4/BLE_eventHandler.c ****         /**********************************************************
1462:.\Generated_Source\PSoC4/BLE_eventHandler.c ****         * GAP events
1463:.\Generated_Source\PSoC4/BLE_eventHandler.c ****         ************************************************************/
1464:.\Generated_Source\PSoC4/BLE_eventHandler.c ****         case CYBLE_EVT_GAP_AUTH_REQ:
1465:.\Generated_Source\PSoC4/BLE_eventHandler.c ****         #if(CYBLE_MODE_PROFILE)
1466:.\Generated_Source\PSoC4/BLE_eventHandler.c ****             if(0u == (cyBle_eventHandlerFlag & CYBLE_DISABLE_AUTOMATIC_AUTH))
 992              		.loc 1 1466 0
 993 00c2 7F4B     		ldr	r3, .L87
 994 00c4 1B78     		ldrb	r3, [r3]
 995 00c6 DBB2     		uxtb	r3, r3
 996 00c8 1A1C     		mov	r2, r3
 997 00ca 2023     		mov	r3, #32
 998 00cc 1340     		and	r3, r2
 999 00ce 07D1     		bne	.L78
1467:.\Generated_Source\PSoC4/BLE_eventHandler.c ****             {
1468:.\Generated_Source\PSoC4/BLE_eventHandler.c ****                 /* If the responding device does not support pairing then the responding 
1469:.\Generated_Source\PSoC4/BLE_eventHandler.c ****                    device shall respond using the Pairing Failed message with the error 
1470:.\Generated_Source\PSoC4/BLE_eventHandler.c ****                    code "Pairing Not Supported" otherwise it responds with a Pairing 
1471:.\Generated_Source\PSoC4/BLE_eventHandler.c ****                    Response message.
1472:.\Generated_Source\PSoC4/BLE_eventHandler.c ****                 */
1473:.\Generated_Source\PSoC4/BLE_eventHandler.c ****                 if(cyBle_authInfo.security == (CYBLE_GAP_SEC_MODE_1 | CYBLE_GAP_SEC_LEVEL_1))
 1000              		.loc 1 1473 0
 1001 00d0 844B     		ldr	r3, .L87+36
 1002 00d2 1B78     		ldrb	r3, [r3]
 1003 00d4 102B     		cmp	r3, #16
 1004 00d6 03D1     		bne	.L78
1474:.\Generated_Source\PSoC4/BLE_eventHandler.c ****                 {
1475:.\Generated_Source\PSoC4/BLE_eventHandler.c ****                     cyBle_authInfo.authErr = CYBLE_GAP_AUTH_ERROR_PAIRING_NOT_SUPPORTED;
 1005              		.loc 1 1475 0
 1006 00d8 824B     		ldr	r3, .L87+36
 1007 00da 0522     		mov	r2, #5
 1008 00dc DA70     		strb	r2, [r3, #3]
1476:.\Generated_Source\PSoC4/BLE_eventHandler.c ****                 }    
1477:.\Generated_Source\PSoC4/BLE_eventHandler.c ****             #if(CYBLE_GAP_ROLE_PERIPHERAL)
1478:.\Generated_Source\PSoC4/BLE_eventHandler.c ****                 (void)CyBle_GappAuthReqReply(cyBle_connHandle.bdHandle, &cyBle_authInfo);
1479:.\Generated_Source\PSoC4/BLE_eventHandler.c ****             #endif /* CYBLE_GAP_ROLE_PERIPHERAL */
1480:.\Generated_Source\PSoC4/BLE_eventHandler.c ****             #if (CYBLE_GAP_ROLE_CENTRAL)
1481:.\Generated_Source\PSoC4/BLE_eventHandler.c ****                 (void)CyBle_GapAuthReq(cyBle_connHandle.bdHandle, &cyBle_authInfo);
1482:.\Generated_Source\PSoC4/BLE_eventHandler.c ****             #endif /* CYBLE_GAP_ROLE_CENTRAL */
1483:.\Generated_Source\PSoC4/BLE_eventHandler.c ****             }
1484:.\Generated_Source\PSoC4/BLE_eventHandler.c ****         #endif /* CYBLE_MODE_PROFILE */
ARM GAS  C:\Users\YBOURA~1\AppData\Local\Temp\cc3HigXd.s 			page 45


1485:.\Generated_Source\PSoC4/BLE_eventHandler.c ****             break;
 1009              		.loc 1 1485 0
 1010 00de D4E0     		b	.L77
 1011              	.L78:
 1012 00e0 D3E0     		b	.L77
 1013              	.L53:
1486:.\Generated_Source\PSoC4/BLE_eventHandler.c ****         
1487:.\Generated_Source\PSoC4/BLE_eventHandler.c ****         case CYBLE_EVT_GAP_AUTH_COMPLETE:
1488:.\Generated_Source\PSoC4/BLE_eventHandler.c ****         #if((CYBLE_GAP_ROLE_PERIPHERAL || CYBLE_GAP_ROLE_CENTRAL) && (CYBLE_BONDING_REQUIREMENT == 
1489:.\Generated_Source\PSoC4/BLE_eventHandler.c ****             cyBle_peerBonding = ((CYBLE_GAP_AUTH_INFO_T *)eventParam)->bonding;
1490:.\Generated_Source\PSoC4/BLE_eventHandler.c ****         #endif  /* CYBLE_BONDING_REQUIREMENT == CYBLE_BONDING_YES */
1491:.\Generated_Source\PSoC4/BLE_eventHandler.c ****             break;
1492:.\Generated_Source\PSoC4/BLE_eventHandler.c ****         
1493:.\Generated_Source\PSoC4/BLE_eventHandler.c ****         case CYBLE_EVT_GAP_CONNECTION_UPDATE_COMPLETE:
1494:.\Generated_Source\PSoC4/BLE_eventHandler.c ****             CyBle_GapConnUpdateCompleteEventHandler((const CYBLE_GAP_CONN_PARAM_UPDATED_IN_CONTROLL
 1014              		.loc 1 1494 0
 1015 00e2 3B68     		ldr	r3, [r7]
 1016 00e4 181C     		mov	r0, r3
 1017 00e6 FFF7FEFF 		bl	CyBle_GapConnUpdateCompleteEventHandler
1495:.\Generated_Source\PSoC4/BLE_eventHandler.c ****             break;
 1018              		.loc 1 1495 0
 1019 00ea CEE0     		b	.L77
 1020              	.L51:
1496:.\Generated_Source\PSoC4/BLE_eventHandler.c ****             
1497:.\Generated_Source\PSoC4/BLE_eventHandler.c ****         case CYBLE_EVT_GAP_DEVICE_CONNECTED:
1498:.\Generated_Source\PSoC4/BLE_eventHandler.c ****             CyBle_GapConnUpdateCompleteEventHandler((const CYBLE_GAP_CONN_PARAM_UPDATED_IN_CONTROLL
 1021              		.loc 1 1498 0
 1022 00ec 3B68     		ldr	r3, [r7]
 1023 00ee 181C     		mov	r0, r3
 1024 00f0 FFF7FEFF 		bl	CyBle_GapConnUpdateCompleteEventHandler
1499:.\Generated_Source\PSoC4/BLE_eventHandler.c ****             #if(CYBLE_GAP_ROLE_CENTRAL)
1500:.\Generated_Source\PSoC4/BLE_eventHandler.c ****                 if(cyBle_connectingTimeout != 0u)
1501:.\Generated_Source\PSoC4/BLE_eventHandler.c ****                 {
1502:.\Generated_Source\PSoC4/BLE_eventHandler.c ****                    (void)CyBle_StopTimer();
1503:.\Generated_Source\PSoC4/BLE_eventHandler.c ****                 }
1504:.\Generated_Source\PSoC4/BLE_eventHandler.c ****             #endif /* CYBLE_GAP_ROLE_CENTRAL */
1505:.\Generated_Source\PSoC4/BLE_eventHandler.c ****             CyBle_SetState(CYBLE_STATE_CONNECTED);
 1025              		.loc 1 1505 0
 1026 00f4 794B     		ldr	r3, .L87+28
 1027 00f6 0222     		mov	r2, #2
 1028 00f8 1A70     		strb	r2, [r3]
1506:.\Generated_Source\PSoC4/BLE_eventHandler.c ****             break;
 1029              		.loc 1 1506 0
 1030 00fa C6E0     		b	.L77
 1031              	.L52:
1507:.\Generated_Source\PSoC4/BLE_eventHandler.c **** 
1508:.\Generated_Source\PSoC4/BLE_eventHandler.c ****         case CYBLE_EVT_GAP_DEVICE_DISCONNECTED:
1509:.\Generated_Source\PSoC4/BLE_eventHandler.c ****             CyBle_SetState(CYBLE_STATE_DISCONNECTED);
 1032              		.loc 1 1509 0
 1033 00fc 774B     		ldr	r3, .L87+28
 1034 00fe 0422     		mov	r2, #4
 1035 0100 1A70     		strb	r2, [r3]
1510:.\Generated_Source\PSoC4/BLE_eventHandler.c ****             break;
 1036              		.loc 1 1510 0
 1037 0102 C2E0     		b	.L77
 1038              	.L54:
1511:.\Generated_Source\PSoC4/BLE_eventHandler.c ****         #if(CYBLE_GAP_ROLE_PERIPHERAL || CYBLE_GAP_ROLE_BROADCASTER)
ARM GAS  C:\Users\YBOURA~1\AppData\Local\Temp\cc3HigXd.s 			page 46


1512:.\Generated_Source\PSoC4/BLE_eventHandler.c ****             
1513:.\Generated_Source\PSoC4/BLE_eventHandler.c ****         case CYBLE_EVT_GAPP_ADVERTISEMENT_START_STOP:
1514:.\Generated_Source\PSoC4/BLE_eventHandler.c ****             #ifdef CYBLE_CPS_SERVER
1515:.\Generated_Source\PSoC4/BLE_eventHandler.c ****                 #if(CYBLE_GAP_ROLE_BROADCASTER)
1516:.\Generated_Source\PSoC4/BLE_eventHandler.c ****                     CyBle_CpssAdvertisementStartStopEventHandler();
1517:.\Generated_Source\PSoC4/BLE_eventHandler.c ****                 #endif /* CYBLE_GAP_ROLE_BROADCASTER */
1518:.\Generated_Source\PSoC4/BLE_eventHandler.c ****             #endif /* CYBLE_CPS_SERVER */
1519:.\Generated_Source\PSoC4/BLE_eventHandler.c ****             
1520:.\Generated_Source\PSoC4/BLE_eventHandler.c ****             if((CYBLE_STATE_CONNECTED != CyBle_GetState()) && ((cyBle_eventHandlerFlag & CYBLE_CALL
1521:.\Generated_Source\PSoC4/BLE_eventHandler.c ****             {
1522:.\Generated_Source\PSoC4/BLE_eventHandler.c ****                 /* After CyBle_GappStartAdvertisement first event indicates that advertising has be
1523:.\Generated_Source\PSoC4/BLE_eventHandler.c ****                 if(0u != (cyBle_eventHandlerFlag & CYBLE_START_FLAG))
1524:.\Generated_Source\PSoC4/BLE_eventHandler.c ****                 {
1525:.\Generated_Source\PSoC4/BLE_eventHandler.c ****                     CyBle_SetState(CYBLE_STATE_ADVERTISING);
1526:.\Generated_Source\PSoC4/BLE_eventHandler.c ****                     cyBle_eventHandlerFlag &= (uint8)~CYBLE_START_FLAG;
1527:.\Generated_Source\PSoC4/BLE_eventHandler.c ****                 }
1528:.\Generated_Source\PSoC4/BLE_eventHandler.c ****                 /* When application initiated stop advertisement */
1529:.\Generated_Source\PSoC4/BLE_eventHandler.c ****                 else if(0u != (cyBle_eventHandlerFlag & CYBLE_STOP_FLAG))
1530:.\Generated_Source\PSoC4/BLE_eventHandler.c ****                 {
1531:.\Generated_Source\PSoC4/BLE_eventHandler.c ****                     CyBle_SetState(CYBLE_STATE_DISCONNECTED);  
1532:.\Generated_Source\PSoC4/BLE_eventHandler.c ****                     cyBle_eventHandlerFlag &= (uint8)~CYBLE_STOP_FLAG;
1533:.\Generated_Source\PSoC4/BLE_eventHandler.c ****                 }
1534:.\Generated_Source\PSoC4/BLE_eventHandler.c ****                 else /* Following event indicates that advertising has been stopped */
1535:.\Generated_Source\PSoC4/BLE_eventHandler.c ****                 {
1536:.\Generated_Source\PSoC4/BLE_eventHandler.c ****                     if(CYBLE_STATE_ADVERTISING == CyBle_GetState())
1537:.\Generated_Source\PSoC4/BLE_eventHandler.c ****                     {
1538:.\Generated_Source\PSoC4/BLE_eventHandler.c ****                         CyBle_SetState(CYBLE_STATE_DISCONNECTED);
1539:.\Generated_Source\PSoC4/BLE_eventHandler.c ****                     #if ((CYBLE_SLOW_ADV_ENABLED != 0u) && (CYBLE_FAST_ADV_TIMEOUT != 0u))
1540:.\Generated_Source\PSoC4/BLE_eventHandler.c ****                         if(cyBle_advertisingIntervalType == CYBLE_ADVERTISING_FAST)
1541:.\Generated_Source\PSoC4/BLE_eventHandler.c ****                         {
1542:.\Generated_Source\PSoC4/BLE_eventHandler.c ****                             /* When fast advertising time out occur: Start slow advertising */
1543:.\Generated_Source\PSoC4/BLE_eventHandler.c ****                             if(CYBLE_ERROR_OK == CyBle_GappStartAdvertisement(CYBLE_ADVERTISING_SLO
1544:.\Generated_Source\PSoC4/BLE_eventHandler.c ****                             {
1545:.\Generated_Source\PSoC4/BLE_eventHandler.c ****                                 CyBle_SetState(CYBLE_STATE_ADVERTISING);
1546:.\Generated_Source\PSoC4/BLE_eventHandler.c ****                             }
1547:.\Generated_Source\PSoC4/BLE_eventHandler.c ****                         }
1548:.\Generated_Source\PSoC4/BLE_eventHandler.c ****                     #endif /* CYBLE_SLOW_ADV_ENABLED */
1549:.\Generated_Source\PSoC4/BLE_eventHandler.c ****                     }
1550:.\Generated_Source\PSoC4/BLE_eventHandler.c ****                 }
1551:.\Generated_Source\PSoC4/BLE_eventHandler.c ****             }
1552:.\Generated_Source\PSoC4/BLE_eventHandler.c ****             break;
1553:.\Generated_Source\PSoC4/BLE_eventHandler.c ****         #endif /* CYBLE_GAP_ROLE_PERIPHERAL || CYBLE_GAP_ROLE_BROADCASTER */
1554:.\Generated_Source\PSoC4/BLE_eventHandler.c ****         
1555:.\Generated_Source\PSoC4/BLE_eventHandler.c ****         #if(CYBLE_GAP_ROLE_CENTRAL || CYBLE_GAP_ROLE_OBSERVER)    
1556:.\Generated_Source\PSoC4/BLE_eventHandler.c ****         case CYBLE_EVT_GAPC_SCAN_START_STOP:
1557:.\Generated_Source\PSoC4/BLE_eventHandler.c ****             #ifdef CYBLE_CPS_CLIENT
1558:.\Generated_Source\PSoC4/BLE_eventHandler.c ****                 CyBle_CpscScanStartStopEventHandler();
1559:.\Generated_Source\PSoC4/BLE_eventHandler.c ****             #endif /* CYBLE_CPS_CLIENT */
1560:.\Generated_Source\PSoC4/BLE_eventHandler.c ****             
1561:.\Generated_Source\PSoC4/BLE_eventHandler.c ****             if((CYBLE_STATE_CONNECTED != CyBle_GetState()) && ((cyBle_eventHandlerFlag & CYBLE_CALL
 1039              		.loc 1 1561 0
 1040 0104 754B     		ldr	r3, .L87+28
 1041 0106 1B78     		ldrb	r3, [r3]
 1042 0108 022B     		cmp	r3, #2
 1043 010a 34D0     		beq	.L79
 1044              		.loc 1 1561 0 is_stmt 0 discriminator 1
 1045 010c 6C4B     		ldr	r3, .L87
ARM GAS  C:\Users\YBOURA~1\AppData\Local\Temp\cc3HigXd.s 			page 47


 1046 010e 1B78     		ldrb	r3, [r3]
 1047 0110 DBB2     		uxtb	r3, r3
 1048 0112 1A1C     		mov	r2, r3
 1049 0114 0123     		mov	r3, #1
 1050 0116 1340     		and	r3, r2
 1051 0118 2DD0     		beq	.L79
1562:.\Generated_Source\PSoC4/BLE_eventHandler.c ****             {
1563:.\Generated_Source\PSoC4/BLE_eventHandler.c ****                 /* After CyBle_GapcStartScan first event indicates that scanning has been started *
1564:.\Generated_Source\PSoC4/BLE_eventHandler.c ****                 if(0u != (cyBle_eventHandlerFlag & CYBLE_START_FLAG))
 1052              		.loc 1 1564 0 is_stmt 1
 1053 011a 694B     		ldr	r3, .L87
 1054 011c 1B78     		ldrb	r3, [r3]
 1055 011e DBB2     		uxtb	r3, r3
 1056 0120 1A1C     		mov	r2, r3
 1057 0122 0423     		mov	r3, #4
 1058 0124 1340     		and	r3, r2
 1059 0126 0BD0     		beq	.L80
1565:.\Generated_Source\PSoC4/BLE_eventHandler.c ****                 {
1566:.\Generated_Source\PSoC4/BLE_eventHandler.c ****                     CyBle_SetState(CYBLE_STATE_SCANNING);
 1060              		.loc 1 1566 0
 1061 0128 6C4B     		ldr	r3, .L87+28
 1062 012a 0322     		mov	r2, #3
 1063 012c 1A70     		strb	r2, [r3]
1567:.\Generated_Source\PSoC4/BLE_eventHandler.c ****                     cyBle_eventHandlerFlag &= (uint8)~CYBLE_START_FLAG;
 1064              		.loc 1 1567 0
 1065 012e 644B     		ldr	r3, .L87
 1066 0130 1B78     		ldrb	r3, [r3]
 1067 0132 DBB2     		uxtb	r3, r3
 1068 0134 0422     		mov	r2, #4
 1069 0136 9343     		bic	r3, r2
 1070 0138 DAB2     		uxtb	r2, r3
 1071 013a 614B     		ldr	r3, .L87
 1072 013c 1A70     		strb	r2, [r3]
 1073 013e 1AE0     		b	.L79
 1074              	.L80:
1568:.\Generated_Source\PSoC4/BLE_eventHandler.c ****                 }
1569:.\Generated_Source\PSoC4/BLE_eventHandler.c ****                 /* When application initiated stop scanning */
1570:.\Generated_Source\PSoC4/BLE_eventHandler.c ****                 else if(0u != (cyBle_eventHandlerFlag & CYBLE_STOP_FLAG))
 1075              		.loc 1 1570 0
 1076 0140 5F4B     		ldr	r3, .L87
 1077 0142 1B78     		ldrb	r3, [r3]
 1078 0144 DBB2     		uxtb	r3, r3
 1079 0146 1A1C     		mov	r2, r3
 1080 0148 0823     		mov	r3, #8
 1081 014a 1340     		and	r3, r2
 1082 014c 0BD0     		beq	.L81
1571:.\Generated_Source\PSoC4/BLE_eventHandler.c ****                 {
1572:.\Generated_Source\PSoC4/BLE_eventHandler.c ****                     CyBle_SetState(CYBLE_STATE_DISCONNECTED);  
 1083              		.loc 1 1572 0
 1084 014e 634B     		ldr	r3, .L87+28
 1085 0150 0422     		mov	r2, #4
 1086 0152 1A70     		strb	r2, [r3]
1573:.\Generated_Source\PSoC4/BLE_eventHandler.c ****                     cyBle_eventHandlerFlag &= (uint8)~CYBLE_STOP_FLAG;
 1087              		.loc 1 1573 0
 1088 0154 5A4B     		ldr	r3, .L87
 1089 0156 1B78     		ldrb	r3, [r3]
 1090 0158 DBB2     		uxtb	r3, r3
ARM GAS  C:\Users\YBOURA~1\AppData\Local\Temp\cc3HigXd.s 			page 48


 1091 015a 0822     		mov	r2, #8
 1092 015c 9343     		bic	r3, r2
 1093 015e DAB2     		uxtb	r2, r3
 1094 0160 574B     		ldr	r3, .L87
 1095 0162 1A70     		strb	r2, [r3]
 1096 0164 07E0     		b	.L79
 1097              	.L81:
1574:.\Generated_Source\PSoC4/BLE_eventHandler.c ****                 }
1575:.\Generated_Source\PSoC4/BLE_eventHandler.c ****                 else /* Following event indicates that scanning has been stopped by stack */
1576:.\Generated_Source\PSoC4/BLE_eventHandler.c ****                 {
1577:.\Generated_Source\PSoC4/BLE_eventHandler.c ****                     if(CYBLE_STATE_SCANNING == CyBle_GetState())
 1098              		.loc 1 1577 0
 1099 0166 5D4B     		ldr	r3, .L87+28
 1100 0168 1B78     		ldrb	r3, [r3]
 1101 016a 032B     		cmp	r3, #3
 1102 016c 03D1     		bne	.L79
1578:.\Generated_Source\PSoC4/BLE_eventHandler.c ****                     {
1579:.\Generated_Source\PSoC4/BLE_eventHandler.c ****                         CyBle_SetState(CYBLE_STATE_DISCONNECTED);  
 1103              		.loc 1 1579 0
 1104 016e 5B4B     		ldr	r3, .L87+28
 1105 0170 0422     		mov	r2, #4
 1106 0172 1A70     		strb	r2, [r3]
1580:.\Generated_Source\PSoC4/BLE_eventHandler.c ****                     #if ((CYBLE_SLOW_SCAN_ENABLED != 0u) && (CYBLE_FAST_SCAN_TIMEOUT != 0u))
1581:.\Generated_Source\PSoC4/BLE_eventHandler.c ****                         if(cyBle_scanningIntervalType == CYBLE_SCANNING_FAST)
1582:.\Generated_Source\PSoC4/BLE_eventHandler.c ****                         {
1583:.\Generated_Source\PSoC4/BLE_eventHandler.c ****                             /* When fast scanning time out occur: Start slow scanning */
1584:.\Generated_Source\PSoC4/BLE_eventHandler.c ****                             if(CYBLE_ERROR_OK == CyBle_GapcStartScan(CYBLE_SCANNING_SLOW))
1585:.\Generated_Source\PSoC4/BLE_eventHandler.c ****                             {
1586:.\Generated_Source\PSoC4/BLE_eventHandler.c ****                                 CyBle_SetState(CYBLE_STATE_SCANNING);
1587:.\Generated_Source\PSoC4/BLE_eventHandler.c ****                             }
1588:.\Generated_Source\PSoC4/BLE_eventHandler.c ****                         }
1589:.\Generated_Source\PSoC4/BLE_eventHandler.c ****                     #endif /* CYBLE_SLOW_SCAN_ENABLED */
1590:.\Generated_Source\PSoC4/BLE_eventHandler.c ****                     }
1591:.\Generated_Source\PSoC4/BLE_eventHandler.c ****                 }
1592:.\Generated_Source\PSoC4/BLE_eventHandler.c ****             }
1593:.\Generated_Source\PSoC4/BLE_eventHandler.c ****             break;
 1107              		.loc 1 1593 0
 1108 0174 89E0     		b	.L77
 1109              	.L79:
 1110 0176 88E0     		b	.L77
 1111              	.L74:
1594:.\Generated_Source\PSoC4/BLE_eventHandler.c ****         #endif /* CYBLE_GAP_ROLE_CENTRAL || CYBLE_GAP_ROLE_OBSERVER */
1595:.\Generated_Source\PSoC4/BLE_eventHandler.c **** 
1596:.\Generated_Source\PSoC4/BLE_eventHandler.c ****         /**********************************************************
1597:.\Generated_Source\PSoC4/BLE_eventHandler.c ****         * L2AP events 
1598:.\Generated_Source\PSoC4/BLE_eventHandler.c ****         ************************************************************/
1599:.\Generated_Source\PSoC4/BLE_eventHandler.c ****         case CYBLE_EVT_L2CAP_CONN_PARAM_UPDATE_RSP:
1600:.\Generated_Source\PSoC4/BLE_eventHandler.c ****             CyBle_L2Cap_ConnParamUpdateRspEventHandler(*(uint16 *)eventParam);
 1112              		.loc 1 1600 0
 1113 0178 3B68     		ldr	r3, [r7]
 1114 017a 1B88     		ldrh	r3, [r3]
 1115 017c 181C     		mov	r0, r3
 1116 017e FFF7FEFF 		bl	CyBle_L2Cap_ConnParamUpdateRspEventHandler
1601:.\Generated_Source\PSoC4/BLE_eventHandler.c ****             break;
 1117              		.loc 1 1601 0
 1118 0182 82E0     		b	.L77
 1119              	.L56:
ARM GAS  C:\Users\YBOURA~1\AppData\Local\Temp\cc3HigXd.s 			page 49


1602:.\Generated_Source\PSoC4/BLE_eventHandler.c ****         
1603:.\Generated_Source\PSoC4/BLE_eventHandler.c ****         /**********************************************************
1604:.\Generated_Source\PSoC4/BLE_eventHandler.c ****         * GATT events
1605:.\Generated_Source\PSoC4/BLE_eventHandler.c ****         ************************************************************/        
1606:.\Generated_Source\PSoC4/BLE_eventHandler.c ****         case CYBLE_EVT_GATT_CONNECT_IND:
1607:.\Generated_Source\PSoC4/BLE_eventHandler.c ****             cyBle_connHandle = *(CYBLE_CONN_HANDLE_T *)eventParam;
 1120              		.loc 1 1607 0
 1121 0184 584A     		ldr	r2, .L87+40
 1122 0186 3B68     		ldr	r3, [r7]
 1123 0188 111C     		mov	r1, r2
 1124 018a 1A1C     		mov	r2, r3
 1125 018c 0223     		mov	r3, #2
 1126 018e 081C     		mov	r0, r1
 1127 0190 111C     		mov	r1, r2
 1128 0192 1A1C     		mov	r2, r3
 1129 0194 FFF7FEFF 		bl	memcpy
1608:.\Generated_Source\PSoC4/BLE_eventHandler.c ****             
1609:.\Generated_Source\PSoC4/BLE_eventHandler.c ****         #if((CYBLE_GATT_ROLE_SERVER) && (CYBLE_GATT_DB_CCCD_COUNT != 0u))
1610:.\Generated_Source\PSoC4/BLE_eventHandler.c ****             /* Init CCCD values in RAM */
1611:.\Generated_Source\PSoC4/BLE_eventHandler.c ****         	(void) memcpy (cyBle_attValuesCCCD, cyBle_flashStorage.attValuesCCCDFlashMemory[cyBle_conn
 1130              		.loc 1 1611 0
 1131 0198 534B     		ldr	r3, .L87+40
 1132 019a 1B78     		ldrb	r3, [r3]
 1133 019c B433     		add	r3, r3, #180
 1134 019e 5A00     		lsl	r2, r3, #1
 1135 01a0 524B     		ldr	r3, .L87+44
 1136 01a2 D318     		add	r3, r2, r3
 1137 01a4 0533     		add	r3, r3, #5
 1138 01a6 524A     		ldr	r2, .L87+48
 1139 01a8 111C     		mov	r1, r2
 1140 01aa 1A1C     		mov	r2, r3
 1141 01ac 0223     		mov	r3, #2
 1142 01ae 081C     		mov	r0, r1
 1143 01b0 111C     		mov	r1, r2
 1144 01b2 1A1C     		mov	r2, r3
 1145 01b4 FFF7FEFF 		bl	memcpy
1612:.\Generated_Source\PSoC4/BLE_eventHandler.c ****                             CYBLE_GATT_DB_CCCD_COUNT);
1613:.\Generated_Source\PSoC4/BLE_eventHandler.c ****         #endif /* CYBLE_GATT_ROLE_SERVER */
1614:.\Generated_Source\PSoC4/BLE_eventHandler.c ****         
1615:.\Generated_Source\PSoC4/BLE_eventHandler.c ****         #if (CYBLE_GATT_ROLE_CLIENT)
1616:.\Generated_Source\PSoC4/BLE_eventHandler.c ****             CyBle_SetClientState(CYBLE_CLIENT_STATE_CONNECTED);
 1146              		.loc 1 1616 0
 1147 01b8 4E4B     		ldr	r3, .L87+52
 1148 01ba 0022     		mov	r2, #0
 1149 01bc 1A70     		strb	r2, [r3]
1617:.\Generated_Source\PSoC4/BLE_eventHandler.c ****         #endif /* CYBLE_GATT_ROLE_CLIENT */
1618:.\Generated_Source\PSoC4/BLE_eventHandler.c ****         
1619:.\Generated_Source\PSoC4/BLE_eventHandler.c ****             CyBle_GattConnectReqHandler();
 1150              		.loc 1 1619 0
 1151 01be FFF7FEFF 		bl	CyBle_GattConnectReqHandler
1620:.\Generated_Source\PSoC4/BLE_eventHandler.c ****             break;
 1152              		.loc 1 1620 0
 1153 01c2 62E0     		b	.L77
 1154              	.L57:
1621:.\Generated_Source\PSoC4/BLE_eventHandler.c **** 
1622:.\Generated_Source\PSoC4/BLE_eventHandler.c ****         case CYBLE_EVT_GATT_DISCONNECT_IND:
1623:.\Generated_Source\PSoC4/BLE_eventHandler.c ****             CyBle_GattDisconnectEventHandler();
ARM GAS  C:\Users\YBOURA~1\AppData\Local\Temp\cc3HigXd.s 			page 50


 1155              		.loc 1 1623 0
 1156 01c4 FFF7FEFF 		bl	CyBle_GattDisconnectEventHandler
1624:.\Generated_Source\PSoC4/BLE_eventHandler.c ****             break;
 1157              		.loc 1 1624 0
 1158 01c8 5FE0     		b	.L77
 1159              	.L58:
 1160              	.LBB5:
1625:.\Generated_Source\PSoC4/BLE_eventHandler.c **** 
1626:.\Generated_Source\PSoC4/BLE_eventHandler.c ****     #if((CYBLE_GATT_ROLE_SERVER) || (CYBLE_GATT_ROLE_CLIENT))
1627:.\Generated_Source\PSoC4/BLE_eventHandler.c ****         case CYBLE_EVT_GATTS_XCNHG_MTU_REQ:
1628:.\Generated_Source\PSoC4/BLE_eventHandler.c ****             {
1629:.\Generated_Source\PSoC4/BLE_eventHandler.c ****                 uint16 cyBle_mtuSize;
1630:.\Generated_Source\PSoC4/BLE_eventHandler.c ****                 if(CYBLE_GATT_MTU > ((CYBLE_GATT_XCHG_MTU_PARAM_T *)eventParam)->mtu)
 1161              		.loc 1 1630 0
 1162 01ca 3B68     		ldr	r3, [r7]
 1163 01cc 5B88     		ldrh	r3, [r3, #2]
 1164 01ce 162B     		cmp	r3, #22
 1165 01d0 05D8     		bhi	.L82
1631:.\Generated_Source\PSoC4/BLE_eventHandler.c ****                 {
1632:.\Generated_Source\PSoC4/BLE_eventHandler.c ****                     cyBle_mtuSize = ((CYBLE_GATT_XCHG_MTU_PARAM_T *)eventParam)->mtu;
 1166              		.loc 1 1632 0
 1167 01d2 0E23     		mov	r3, #14
 1168 01d4 FB18     		add	r3, r7, r3
 1169 01d6 3A68     		ldr	r2, [r7]
 1170 01d8 5288     		ldrh	r2, [r2, #2]
 1171 01da 1A80     		strh	r2, [r3]
 1172 01dc 03E0     		b	.L83
 1173              	.L82:
1633:.\Generated_Source\PSoC4/BLE_eventHandler.c ****                 }
1634:.\Generated_Source\PSoC4/BLE_eventHandler.c ****                 else
1635:.\Generated_Source\PSoC4/BLE_eventHandler.c ****                 {
1636:.\Generated_Source\PSoC4/BLE_eventHandler.c ****                     cyBle_mtuSize = CYBLE_GATT_MTU;
 1174              		.loc 1 1636 0
 1175 01de 0E23     		mov	r3, #14
 1176 01e0 FB18     		add	r3, r7, r3
 1177 01e2 1722     		mov	r2, #23
 1178 01e4 1A80     		strh	r2, [r3]
 1179              	.L83:
1637:.\Generated_Source\PSoC4/BLE_eventHandler.c ****                 }
1638:.\Generated_Source\PSoC4/BLE_eventHandler.c ****                 (void)CyBle_GattsExchangeMtuRsp(((CYBLE_GATT_XCHG_MTU_PARAM_T *)eventParam)->connHa
 1180              		.loc 1 1638 0
 1181 01e6 3B68     		ldr	r3, [r7]
 1182 01e8 0E22     		mov	r2, #14
 1183 01ea BA18     		add	r2, r7, r2
 1184 01ec 1188     		ldrh	r1, [r2]
 1185 01ee 1A88     		ldrh	r2, [r3]
 1186 01f0 0023     		mov	r3, #0
 1187 01f2 1204     		lsl	r2, r2, #16
 1188 01f4 120C     		lsr	r2, r2, #16
 1189 01f6 1B0C     		lsr	r3, r3, #16
 1190 01f8 1B04     		lsl	r3, r3, #16
 1191 01fa 1343     		orr	r3, r2
 1192 01fc 181C     		mov	r0, r3
 1193 01fe FFF7FEFF 		bl	CyBle_GattsExchangeMtuRsp
 1194              	.LBE5:
1639:.\Generated_Source\PSoC4/BLE_eventHandler.c ****             }
1640:.\Generated_Source\PSoC4/BLE_eventHandler.c ****             break;
ARM GAS  C:\Users\YBOURA~1\AppData\Local\Temp\cc3HigXd.s 			page 51


 1195              		.loc 1 1640 0
 1196 0202 42E0     		b	.L77
 1197              	.L64:
1641:.\Generated_Source\PSoC4/BLE_eventHandler.c ****     #endif /* CYBLE_GATT_ROLE_SERVER || CYBLE_GATT_ROLE_CLIENT */
1642:.\Generated_Source\PSoC4/BLE_eventHandler.c ****     
1643:.\Generated_Source\PSoC4/BLE_eventHandler.c ****     #if (CYBLE_GATT_ROLE_CLIENT)
1644:.\Generated_Source\PSoC4/BLE_eventHandler.c ****         case CYBLE_EVT_GAPC_SCAN_PROGRESS_RESULT:
1645:.\Generated_Source\PSoC4/BLE_eventHandler.c ****         #ifdef CYBLE_CPS_CLIENT
1646:.\Generated_Source\PSoC4/BLE_eventHandler.c ****                 CyBle_CpscScanProcessEventHandler((CYBLE_GAPC_ADV_REPORT_T *)eventParam);
1647:.\Generated_Source\PSoC4/BLE_eventHandler.c ****         #endif /* CYBLE_CPS_CLIENT */
1648:.\Generated_Source\PSoC4/BLE_eventHandler.c ****             break;
1649:.\Generated_Source\PSoC4/BLE_eventHandler.c ****     #endif /* CYBLE_GATT_ROLE_CLIENT */
1650:.\Generated_Source\PSoC4/BLE_eventHandler.c **** 
1651:.\Generated_Source\PSoC4/BLE_eventHandler.c ****     #if(CYBLE_GATT_ROLE_SERVER)
1652:.\Generated_Source\PSoC4/BLE_eventHandler.c ****         case CYBLE_EVT_GATTS_WRITE_REQ:
1653:.\Generated_Source\PSoC4/BLE_eventHandler.c ****             CyBle_WriteReqHandler((CYBLE_GATTS_WRITE_REQ_PARAM_T *)eventParam);
 1198              		.loc 1 1653 0
 1199 0204 3B68     		ldr	r3, [r7]
 1200 0206 181C     		mov	r0, r3
 1201 0208 FFF7FEFF 		bl	CyBle_WriteReqHandler
1654:.\Generated_Source\PSoC4/BLE_eventHandler.c ****             break;
 1202              		.loc 1 1654 0
 1203 020c 3DE0     		b	.L77
 1204              	.L72:
1655:.\Generated_Source\PSoC4/BLE_eventHandler.c **** 
1656:.\Generated_Source\PSoC4/BLE_eventHandler.c ****         case CYBLE_EVT_GATTS_WRITE_CMD_REQ:
1657:.\Generated_Source\PSoC4/BLE_eventHandler.c ****         #ifdef CYBLE_IAS_SERVER
1658:.\Generated_Source\PSoC4/BLE_eventHandler.c ****             if((cyBle_eventHandlerFlag & CYBLE_CALLBACK) != 0u)
1659:.\Generated_Source\PSoC4/BLE_eventHandler.c ****             {
1660:.\Generated_Source\PSoC4/BLE_eventHandler.c ****                 (void)CyBle_IassWriteCmdEventHandler((CYBLE_GATTS_WRITE_REQ_PARAM_T *)eventParam);
1661:.\Generated_Source\PSoC4/BLE_eventHandler.c ****             }
1662:.\Generated_Source\PSoC4/BLE_eventHandler.c ****         #endif /* CYBLE_IAS_SERVER */
1663:.\Generated_Source\PSoC4/BLE_eventHandler.c ****         #ifdef CYBLE_HIDS_SERVER
1664:.\Generated_Source\PSoC4/BLE_eventHandler.c ****             if((cyBle_eventHandlerFlag & CYBLE_CALLBACK) != 0u)
1665:.\Generated_Source\PSoC4/BLE_eventHandler.c ****             {
1666:.\Generated_Source\PSoC4/BLE_eventHandler.c ****                 (void)CyBle_HidssWriteEventHandler((CYBLE_GATTS_WRITE_REQ_PARAM_T *)eventParam);
1667:.\Generated_Source\PSoC4/BLE_eventHandler.c ****             }
1668:.\Generated_Source\PSoC4/BLE_eventHandler.c ****         #endif /* CYBLE_HIDS_SERVER */
1669:.\Generated_Source\PSoC4/BLE_eventHandler.c ****         #ifdef CYBLE_PASS_SERVER
1670:.\Generated_Source\PSoC4/BLE_eventHandler.c ****             if((cyBle_eventHandlerFlag & CYBLE_CALLBACK) != 0u)
1671:.\Generated_Source\PSoC4/BLE_eventHandler.c ****             {
1672:.\Generated_Source\PSoC4/BLE_eventHandler.c ****                 (void)CyBle_PasssWriteCmdEventHandler((CYBLE_GATTS_WRITE_REQ_PARAM_T *)eventParam);
1673:.\Generated_Source\PSoC4/BLE_eventHandler.c ****             }
1674:.\Generated_Source\PSoC4/BLE_eventHandler.c ****         #endif /* CYBLE_PASS_SERVER */
1675:.\Generated_Source\PSoC4/BLE_eventHandler.c ****         #ifdef CYBLE_RTUS_SERVER
1676:.\Generated_Source\PSoC4/BLE_eventHandler.c ****             if((cyBle_eventHandlerFlag & CYBLE_CALLBACK) != 0u)
1677:.\Generated_Source\PSoC4/BLE_eventHandler.c ****             {
1678:.\Generated_Source\PSoC4/BLE_eventHandler.c ****                 (void)CyBle_RtussWriteCmdEventHandler((CYBLE_GATTS_WRITE_REQ_PARAM_T *)eventParam);
1679:.\Generated_Source\PSoC4/BLE_eventHandler.c ****             }
1680:.\Generated_Source\PSoC4/BLE_eventHandler.c ****         #endif /* CYBLE_RTUS_SERVER */
1681:.\Generated_Source\PSoC4/BLE_eventHandler.c ****         #ifdef CYBLE_SCPS_SERVER
1682:.\Generated_Source\PSoC4/BLE_eventHandler.c ****             if((cyBle_eventHandlerFlag & CYBLE_CALLBACK) != 0u)
1683:.\Generated_Source\PSoC4/BLE_eventHandler.c ****             {
1684:.\Generated_Source\PSoC4/BLE_eventHandler.c ****                 (void)CyBle_ScpssWriteEventHandler((CYBLE_GATTS_WRITE_REQ_PARAM_T *)eventParam);
1685:.\Generated_Source\PSoC4/BLE_eventHandler.c ****             }
1686:.\Generated_Source\PSoC4/BLE_eventHandler.c ****         #endif /* CYBLE_SCPS_SERVER */
1687:.\Generated_Source\PSoC4/BLE_eventHandler.c ****             break;
ARM GAS  C:\Users\YBOURA~1\AppData\Local\Temp\cc3HigXd.s 			page 52


1688:.\Generated_Source\PSoC4/BLE_eventHandler.c ****         
1689:.\Generated_Source\PSoC4/BLE_eventHandler.c ****         case CYBLE_EVT_GATTS_PREP_WRITE_REQ:
1690:.\Generated_Source\PSoC4/BLE_eventHandler.c ****         #ifdef CYBLE_BMS_SERVER
1691:.\Generated_Source\PSoC4/BLE_eventHandler.c ****             CyBle_BmssPrepareWriteRequestEventHandler((CYBLE_GATTS_PREP_WRITE_REQ_PARAM_T *)eventPa
1692:.\Generated_Source\PSoC4/BLE_eventHandler.c ****         #endif /* CYBLE_BMS_SERVER */
1693:.\Generated_Source\PSoC4/BLE_eventHandler.c ****         #ifdef CYBLE_BTS_SERVER
1694:.\Generated_Source\PSoC4/BLE_eventHandler.c ****             if((cyBle_eventHandlerFlag & CYBLE_CALLBACK) != 0u)
1695:.\Generated_Source\PSoC4/BLE_eventHandler.c ****             {
1696:.\Generated_Source\PSoC4/BLE_eventHandler.c ****                 CyBle_BtssPrepareWriteRequestEventHandler((CYBLE_GATTS_PREP_WRITE_REQ_PARAM_T *)eve
1697:.\Generated_Source\PSoC4/BLE_eventHandler.c ****             }
1698:.\Generated_Source\PSoC4/BLE_eventHandler.c ****         #endif /* CYBLE_BTS_SERVER */
1699:.\Generated_Source\PSoC4/BLE_eventHandler.c ****         #ifdef CYBLE_ESS_SERVER
1700:.\Generated_Source\PSoC4/BLE_eventHandler.c ****             if((cyBle_eventHandlerFlag & CYBLE_CALLBACK) != 0u)
1701:.\Generated_Source\PSoC4/BLE_eventHandler.c ****             {
1702:.\Generated_Source\PSoC4/BLE_eventHandler.c ****                 CyBle_EsssPrepareWriteRequestEventHandler((CYBLE_GATTS_PREP_WRITE_REQ_PARAM_T *)eve
1703:.\Generated_Source\PSoC4/BLE_eventHandler.c ****             }
1704:.\Generated_Source\PSoC4/BLE_eventHandler.c ****         #endif /* CYBLE_ESS_SERVER */
1705:.\Generated_Source\PSoC4/BLE_eventHandler.c **** 		#ifdef CYBLE_UDS_SERVER
1706:.\Generated_Source\PSoC4/BLE_eventHandler.c ****             if((cyBle_eventHandlerFlag & CYBLE_CALLBACK) != 0u)
1707:.\Generated_Source\PSoC4/BLE_eventHandler.c ****             {
1708:.\Generated_Source\PSoC4/BLE_eventHandler.c ****                 CyBle_UdssPrepareWriteRequestEventHandler((CYBLE_GATTS_PREP_WRITE_REQ_PARAM_T *)eve
1709:.\Generated_Source\PSoC4/BLE_eventHandler.c ****             }
1710:.\Generated_Source\PSoC4/BLE_eventHandler.c ****         #endif /* CYBLE_UDS_SERVER */
1711:.\Generated_Source\PSoC4/BLE_eventHandler.c ****             break;
1712:.\Generated_Source\PSoC4/BLE_eventHandler.c **** 
1713:.\Generated_Source\PSoC4/BLE_eventHandler.c ****         case CYBLE_EVT_GATTS_EXEC_WRITE_REQ:
1714:.\Generated_Source\PSoC4/BLE_eventHandler.c ****         #ifdef CYBLE_BMS_SERVER
1715:.\Generated_Source\PSoC4/BLE_eventHandler.c ****             CyBle_BmssExecuteWriteRequestEventHandler((CYBLE_GATTS_EXEC_WRITE_REQ_T *)eventParam);
1716:.\Generated_Source\PSoC4/BLE_eventHandler.c ****         #endif /* CYBLE_BMS_SERVER */
1717:.\Generated_Source\PSoC4/BLE_eventHandler.c ****         #ifdef CYBLE_BTS_SERVER
1718:.\Generated_Source\PSoC4/BLE_eventHandler.c ****             CyBle_BtssExecuteWriteRequestEventHandler((CYBLE_GATTS_EXEC_WRITE_REQ_T *)eventParam);
1719:.\Generated_Source\PSoC4/BLE_eventHandler.c ****         #endif /* CYBLE_BTS_SERVER */
1720:.\Generated_Source\PSoC4/BLE_eventHandler.c ****         #ifdef CYBLE_ESS_SERVER
1721:.\Generated_Source\PSoC4/BLE_eventHandler.c ****             CyBle_EsssExecuteWriteRequestEventHandler((CYBLE_GATTS_EXEC_WRITE_REQ_T *)eventParam);
1722:.\Generated_Source\PSoC4/BLE_eventHandler.c ****         #endif /* CYBLE_ESS_SERVER */
1723:.\Generated_Source\PSoC4/BLE_eventHandler.c **** 		#ifdef CYBLE_UDS_SERVER
1724:.\Generated_Source\PSoC4/BLE_eventHandler.c ****             CyBle_UdssExecuteWriteRequestEventHandler((CYBLE_GATTS_EXEC_WRITE_REQ_T *)eventParam);
1725:.\Generated_Source\PSoC4/BLE_eventHandler.c ****         #endif /* CYBLE_UDS_SERVER */
1726:.\Generated_Source\PSoC4/BLE_eventHandler.c ****             break;
1727:.\Generated_Source\PSoC4/BLE_eventHandler.c ****         
1728:.\Generated_Source\PSoC4/BLE_eventHandler.c ****         case CYBLE_EVT_GATTS_HANDLE_VALUE_CNF:
1729:.\Generated_Source\PSoC4/BLE_eventHandler.c ****             CyBle_ValueConfirmation((CYBLE_CONN_HANDLE_T *)eventParam);
 1205              		.loc 1 1729 0
 1206 020e 3B68     		ldr	r3, [r7]
 1207 0210 181C     		mov	r0, r3
 1208 0212 FFF7FEFF 		bl	CyBle_ValueConfirmation
1730:.\Generated_Source\PSoC4/BLE_eventHandler.c ****             break;
 1209              		.loc 1 1730 0
 1210 0216 38E0     		b	.L77
 1211              	.L59:
1731:.\Generated_Source\PSoC4/BLE_eventHandler.c ****             
1732:.\Generated_Source\PSoC4/BLE_eventHandler.c ****         case CYBLE_EVT_GATTS_READ_CHAR_VAL_ACCESS_REQ:
1733:.\Generated_Source\PSoC4/BLE_eventHandler.c ****         #ifdef CYBLE_UDS_SERVER
1734:.\Generated_Source\PSoC4/BLE_eventHandler.c ****             CyBle_UdssReadRequestEventHandler((CYBLE_GATTS_CHAR_VAL_READ_REQ_T *)eventParam);
1735:.\Generated_Source\PSoC4/BLE_eventHandler.c ****         #endif /* CYBLE_UDS_SERVER */
1736:.\Generated_Source\PSoC4/BLE_eventHandler.c ****             break;
1737:.\Generated_Source\PSoC4/BLE_eventHandler.c ****             
ARM GAS  C:\Users\YBOURA~1\AppData\Local\Temp\cc3HigXd.s 			page 53


1738:.\Generated_Source\PSoC4/BLE_eventHandler.c ****     #endif /* CYBLE_GATT_ROLE_SERVER */
1739:.\Generated_Source\PSoC4/BLE_eventHandler.c **** 
1740:.\Generated_Source\PSoC4/BLE_eventHandler.c ****     #if (CYBLE_GATT_ROLE_CLIENT)
1741:.\Generated_Source\PSoC4/BLE_eventHandler.c ****         
1742:.\Generated_Source\PSoC4/BLE_eventHandler.c ****         case CYBLE_EVT_GATTC_READ_BY_GROUP_TYPE_RSP:
1743:.\Generated_Source\PSoC4/BLE_eventHandler.c ****             CyBle_ReadByGroupEventHandler((CYBLE_GATTC_READ_BY_GRP_RSP_PARAM_T *)eventParam);
 1212              		.loc 1 1743 0
 1213 0218 3B68     		ldr	r3, [r7]
 1214 021a 181C     		mov	r0, r3
 1215 021c FFF7FEFF 		bl	CyBle_ReadByGroupEventHandler
1744:.\Generated_Source\PSoC4/BLE_eventHandler.c ****             break;
 1216              		.loc 1 1744 0
 1217 0220 33E0     		b	.L77
 1218              	.L60:
1745:.\Generated_Source\PSoC4/BLE_eventHandler.c **** 
1746:.\Generated_Source\PSoC4/BLE_eventHandler.c ****         case CYBLE_EVT_GATTC_READ_BY_TYPE_RSP:
1747:.\Generated_Source\PSoC4/BLE_eventHandler.c ****             CyBle_ReadByTypeEventHandler((CYBLE_GATTC_READ_BY_TYPE_RSP_PARAM_T *)eventParam);
 1219              		.loc 1 1747 0
 1220 0222 3B68     		ldr	r3, [r7]
 1221 0224 181C     		mov	r0, r3
 1222 0226 FFF7FEFF 		bl	CyBle_ReadByTypeEventHandler
1748:.\Generated_Source\PSoC4/BLE_eventHandler.c ****             break;
 1223              		.loc 1 1748 0
 1224 022a 2EE0     		b	.L77
 1225              	.L61:
1749:.\Generated_Source\PSoC4/BLE_eventHandler.c **** 
1750:.\Generated_Source\PSoC4/BLE_eventHandler.c ****         case CYBLE_EVT_GATTC_READ_BLOB_RSP:
1751:.\Generated_Source\PSoC4/BLE_eventHandler.c ****         #ifdef CYBLE_ESS_CLIENT
1752:.\Generated_Source\PSoC4/BLE_eventHandler.c ****             CyBle_EsscReadLongRespEventHandler((CYBLE_GATTC_READ_RSP_PARAM_T *)eventParam);
1753:.\Generated_Source\PSoC4/BLE_eventHandler.c ****         #endif /* CYBLE_ESS_CLIENT */
1754:.\Generated_Source\PSoC4/BLE_eventHandler.c ****         #ifdef CYBLE_UDS_CLIENT
1755:.\Generated_Source\PSoC4/BLE_eventHandler.c ****             if((cyBle_eventHandlerFlag & CYBLE_CALLBACK) != 0u)
1756:.\Generated_Source\PSoC4/BLE_eventHandler.c ****             {
1757:.\Generated_Source\PSoC4/BLE_eventHandler.c ****                 CyBle_UdscReadLongRespEventHandler((CYBLE_GATTC_READ_RSP_PARAM_T *)eventParam);
1758:.\Generated_Source\PSoC4/BLE_eventHandler.c ****             }
1759:.\Generated_Source\PSoC4/BLE_eventHandler.c ****         #endif /* CYBLE_UDS_CLIENT */
1760:.\Generated_Source\PSoC4/BLE_eventHandler.c ****             break;
1761:.\Generated_Source\PSoC4/BLE_eventHandler.c ****         
1762:.\Generated_Source\PSoC4/BLE_eventHandler.c ****         case CYBLE_EVT_GATTC_FIND_INFO_RSP:
1763:.\Generated_Source\PSoC4/BLE_eventHandler.c ****             CyBle_FindInfoEventHandler((CYBLE_GATTC_FIND_INFO_RSP_PARAM_T *)eventParam);
 1226              		.loc 1 1763 0
 1227 022c 3B68     		ldr	r3, [r7]
 1228 022e 181C     		mov	r0, r3
 1229 0230 FFF7FEFF 		bl	CyBle_FindInfoEventHandler
1764:.\Generated_Source\PSoC4/BLE_eventHandler.c ****             break;
 1230              		.loc 1 1764 0
 1231 0234 29E0     		b	.L77
 1232              	.L55:
1765:.\Generated_Source\PSoC4/BLE_eventHandler.c **** 
1766:.\Generated_Source\PSoC4/BLE_eventHandler.c ****         case CYBLE_EVT_GATTC_ERROR_RSP:
1767:.\Generated_Source\PSoC4/BLE_eventHandler.c ****             CyBle_ErrorResponseEventHandler((CYBLE_GATTC_ERR_RSP_PARAM_T *)eventParam);
 1233              		.loc 1 1767 0
 1234 0236 3B68     		ldr	r3, [r7]
 1235 0238 181C     		mov	r0, r3
 1236 023a FFF7FEFF 		bl	CyBle_ErrorResponseEventHandler
1768:.\Generated_Source\PSoC4/BLE_eventHandler.c ****             break;
 1237              		.loc 1 1768 0
ARM GAS  C:\Users\YBOURA~1\AppData\Local\Temp\cc3HigXd.s 			page 54


 1238 023e 24E0     		b	.L77
 1239              	.L70:
1769:.\Generated_Source\PSoC4/BLE_eventHandler.c **** 
1770:.\Generated_Source\PSoC4/BLE_eventHandler.c ****         case CYBLE_EVT_GATTC_HANDLE_VALUE_NTF:
1771:.\Generated_Source\PSoC4/BLE_eventHandler.c ****             CyBle_NotificationEventHandler((CYBLE_GATTC_HANDLE_VALUE_NTF_PARAM_T *)eventParam);
 1240              		.loc 1 1771 0
 1241 0240 3B68     		ldr	r3, [r7]
 1242 0242 181C     		mov	r0, r3
 1243 0244 FFF7FEFF 		bl	CyBle_NotificationEventHandler
1772:.\Generated_Source\PSoC4/BLE_eventHandler.c ****             break;
 1244              		.loc 1 1772 0
 1245 0248 1FE0     		b	.L77
 1246              	.L71:
1773:.\Generated_Source\PSoC4/BLE_eventHandler.c **** 
1774:.\Generated_Source\PSoC4/BLE_eventHandler.c ****         case CYBLE_EVT_GATTC_HANDLE_VALUE_IND:
1775:.\Generated_Source\PSoC4/BLE_eventHandler.c ****             CyBle_GattcIndicationEventHandler((CYBLE_GATTC_HANDLE_VALUE_IND_PARAM_T *)eventParam);
 1247              		.loc 1 1775 0
 1248 024a 3B68     		ldr	r3, [r7]
 1249 024c 181C     		mov	r0, r3
 1250 024e FFF7FEFF 		bl	CyBle_GattcIndicationEventHandler
1776:.\Generated_Source\PSoC4/BLE_eventHandler.c ****             CyBle_IndicationEventHandler((CYBLE_GATTC_HANDLE_VALUE_IND_PARAM_T *)eventParam);
 1251              		.loc 1 1776 0
 1252 0252 3B68     		ldr	r3, [r7]
 1253 0254 181C     		mov	r0, r3
 1254 0256 FFF7FEFF 		bl	CyBle_IndicationEventHandler
1777:.\Generated_Source\PSoC4/BLE_eventHandler.c ****         
1778:.\Generated_Source\PSoC4/BLE_eventHandler.c ****             /* Respond with a Handle Value Confirmation when request handled */
1779:.\Generated_Source\PSoC4/BLE_eventHandler.c ****             if((cyBle_eventHandlerFlag & CYBLE_CALLBACK) == 0u)
 1255              		.loc 1 1779 0
 1256 025a 194B     		ldr	r3, .L87
 1257 025c 1B78     		ldrb	r3, [r3]
 1258 025e DBB2     		uxtb	r3, r3
 1259 0260 1A1C     		mov	r2, r3
 1260 0262 0123     		mov	r3, #1
 1261 0264 1340     		and	r3, r2
 1262 0266 04D1     		bne	.L84
1780:.\Generated_Source\PSoC4/BLE_eventHandler.c ****             {
1781:.\Generated_Source\PSoC4/BLE_eventHandler.c ****                 (void)CyBle_GattcConfirmation(((CYBLE_GATTC_HANDLE_VALUE_IND_PARAM_T *)eventParam)-
 1263              		.loc 1 1781 0
 1264 0268 3B68     		ldr	r3, [r7]
 1265 026a 1868     		ldr	r0, [r3]
 1266 026c FFF7FEFF 		bl	CyBle_GattcConfirmation
1782:.\Generated_Source\PSoC4/BLE_eventHandler.c ****             }
1783:.\Generated_Source\PSoC4/BLE_eventHandler.c ****             break;
 1267              		.loc 1 1783 0
 1268 0270 0BE0     		b	.L77
 1269              	.L84:
 1270 0272 0AE0     		b	.L77
 1271              	.L62:
1784:.\Generated_Source\PSoC4/BLE_eventHandler.c ****         
1785:.\Generated_Source\PSoC4/BLE_eventHandler.c ****         case CYBLE_EVT_GATTC_READ_RSP:
1786:.\Generated_Source\PSoC4/BLE_eventHandler.c ****             CyBle_ReadResponseEventHandler((CYBLE_GATTC_READ_RSP_PARAM_T *)eventParam);
 1272              		.loc 1 1786 0
 1273 0274 3B68     		ldr	r3, [r7]
 1274 0276 181C     		mov	r0, r3
 1275 0278 FFF7FEFF 		bl	CyBle_ReadResponseEventHandler
1787:.\Generated_Source\PSoC4/BLE_eventHandler.c ****             break;
ARM GAS  C:\Users\YBOURA~1\AppData\Local\Temp\cc3HigXd.s 			page 55


 1276              		.loc 1 1787 0
 1277 027c 05E0     		b	.L77
 1278              	.L65:
1788:.\Generated_Source\PSoC4/BLE_eventHandler.c **** 
1789:.\Generated_Source\PSoC4/BLE_eventHandler.c ****         case CYBLE_EVT_GATTC_WRITE_RSP:
1790:.\Generated_Source\PSoC4/BLE_eventHandler.c ****             CyBle_GattcWriteResponseEventHandler((CYBLE_CONN_HANDLE_T *)eventParam);
 1279              		.loc 1 1790 0
 1280 027e 3B68     		ldr	r3, [r7]
 1281 0280 181C     		mov	r0, r3
 1282 0282 FFF7FEFF 		bl	CyBle_GattcWriteResponseEventHandler
1791:.\Generated_Source\PSoC4/BLE_eventHandler.c ****             break;
 1283              		.loc 1 1791 0
 1284 0286 00E0     		b	.L77
 1285              	.L86:
1792:.\Generated_Source\PSoC4/BLE_eventHandler.c ****             
1793:.\Generated_Source\PSoC4/BLE_eventHandler.c ****         case CYBLE_EVT_GATTC_EXEC_WRITE_RSP:
1794:.\Generated_Source\PSoC4/BLE_eventHandler.c ****         #ifdef CYBLE_BMS_CLIENT
1795:.\Generated_Source\PSoC4/BLE_eventHandler.c ****             CyBle_BmscExecuteWriteResponseEventHandler((CYBLE_GATTC_EXEC_WRITE_RSP_T *)eventParam);
1796:.\Generated_Source\PSoC4/BLE_eventHandler.c ****         #endif /* CYBLE_BMS_CLIENT */
1797:.\Generated_Source\PSoC4/BLE_eventHandler.c ****         #ifdef CYBLE_ESS_CLIENT
1798:.\Generated_Source\PSoC4/BLE_eventHandler.c ****             if((cyBle_eventHandlerFlag & CYBLE_CALLBACK) != 0u)
1799:.\Generated_Source\PSoC4/BLE_eventHandler.c ****             {
1800:.\Generated_Source\PSoC4/BLE_eventHandler.c ****                 CyBle_EsscExecuteWriteResponseEventHandler((CYBLE_GATTC_EXEC_WRITE_RSP_T *)eventPar
1801:.\Generated_Source\PSoC4/BLE_eventHandler.c ****             }
1802:.\Generated_Source\PSoC4/BLE_eventHandler.c ****         #endif /* CYBLE_ESS_CLIENT */
1803:.\Generated_Source\PSoC4/BLE_eventHandler.c ****         #ifdef CYBLE_UDS_CLIENT
1804:.\Generated_Source\PSoC4/BLE_eventHandler.c ****             if((cyBle_eventHandlerFlag & CYBLE_CALLBACK) != 0u)
1805:.\Generated_Source\PSoC4/BLE_eventHandler.c ****             {
1806:.\Generated_Source\PSoC4/BLE_eventHandler.c ****                 CyBle_UdscExecuteWriteResponseEventHandler((CYBLE_GATTC_EXEC_WRITE_RSP_T *)eventPar
1807:.\Generated_Source\PSoC4/BLE_eventHandler.c ****             }
1808:.\Generated_Source\PSoC4/BLE_eventHandler.c ****         #endif /* CYBLE_UDS_CLIENT */
1809:.\Generated_Source\PSoC4/BLE_eventHandler.c ****             break;
1810:.\Generated_Source\PSoC4/BLE_eventHandler.c ****             
1811:.\Generated_Source\PSoC4/BLE_eventHandler.c ****     #endif /* CYBLE_GATT_ROLE_CLIENT */
1812:.\Generated_Source\PSoC4/BLE_eventHandler.c **** 
1813:.\Generated_Source\PSoC4/BLE_eventHandler.c ****     #if((CYBLE_GAP_ROLE_PERIPHERAL || CYBLE_GAP_ROLE_CENTRAL) && (CYBLE_BONDING_REQUIREMENT == CYBL
1814:.\Generated_Source\PSoC4/BLE_eventHandler.c **** 
1815:.\Generated_Source\PSoC4/BLE_eventHandler.c ****         case CYBLE_EVT_PENDING_FLASH_WRITE:
1816:.\Generated_Source\PSoC4/BLE_eventHandler.c ****             cyBle_pendingFlashWrite |= CYBLE_PENDING_STACK_FLASH_WRITE_BIT;
1817:.\Generated_Source\PSoC4/BLE_eventHandler.c ****             break;
1818:.\Generated_Source\PSoC4/BLE_eventHandler.c ****         
1819:.\Generated_Source\PSoC4/BLE_eventHandler.c ****     #endif  /* (CYBLE_BONDING_REQUIREMENT == CYBLE_BONDING_YES) */
1820:.\Generated_Source\PSoC4/BLE_eventHandler.c ****     
1821:.\Generated_Source\PSoC4/BLE_eventHandler.c ****         default:
1822:.\Generated_Source\PSoC4/BLE_eventHandler.c ****             break;
 1286              		.loc 1 1822 0
 1287 0288 C046     		mov	r8, r8
 1288              	.L77:
1823:.\Generated_Source\PSoC4/BLE_eventHandler.c ****     }
1824:.\Generated_Source\PSoC4/BLE_eventHandler.c **** 
1825:.\Generated_Source\PSoC4/BLE_eventHandler.c ****     if(0u != (cyBle_eventHandlerFlag & (CYBLE_CALLBACK | CYBLE_ENABLE_ALL_EVENTS))) 
 1289              		.loc 1 1825 0
 1290 028a 0D4B     		ldr	r3, .L87
 1291 028c 1B78     		ldrb	r3, [r3]
 1292 028e DBB2     		uxtb	r3, r3
 1293 0290 1A1C     		mov	r2, r3
 1294 0292 1123     		mov	r3, #17
ARM GAS  C:\Users\YBOURA~1\AppData\Local\Temp\cc3HigXd.s 			page 56


 1295 0294 1340     		and	r3, r2
 1296 0296 0FD0     		beq	.L42
1826:.\Generated_Source\PSoC4/BLE_eventHandler.c ****     {
1827:.\Generated_Source\PSoC4/BLE_eventHandler.c ****         cyBle_eventHandlerFlag &= (uint8)~CYBLE_CALLBACK;
 1297              		.loc 1 1827 0
 1298 0298 094B     		ldr	r3, .L87
 1299 029a 1B78     		ldrb	r3, [r3]
 1300 029c DBB2     		uxtb	r3, r3
 1301 029e 0122     		mov	r2, #1
 1302 02a0 9343     		bic	r3, r2
 1303 02a2 DAB2     		uxtb	r2, r3
 1304 02a4 064B     		ldr	r3, .L87
 1305 02a6 1A70     		strb	r2, [r3]
1828:.\Generated_Source\PSoC4/BLE_eventHandler.c ****         CyBle_ApplCallback((uint32)eventCode, eventParam);
 1306              		.loc 1 1828 0
 1307 02a8 134B     		ldr	r3, .L87+56
 1308 02aa 1B68     		ldr	r3, [r3]
 1309 02ac FA1D     		add	r2, r7, #7
 1310 02ae 1178     		ldrb	r1, [r2]
 1311 02b0 3A68     		ldr	r2, [r7]
 1312 02b2 081C     		mov	r0, r1
 1313 02b4 111C     		mov	r1, r2
 1314 02b6 9847     		blx	r3
 1315              	.L42:
1829:.\Generated_Source\PSoC4/BLE_eventHandler.c ****     }
1830:.\Generated_Source\PSoC4/BLE_eventHandler.c **** }
 1316              		.loc 1 1830 0
 1317 02b8 BD46     		mov	sp, r7
 1318 02ba 04B0     		add	sp, sp, #16
 1319              		@ sp needed
 1320 02bc 80BD     		pop	{r7, pc}
 1321              	.L88:
 1322 02be C046     		.align	2
 1323              	.L87:
 1324 02c0 00000000 		.word	cyBle_eventHandlerFlag
 1325 02c4 00000000 		.word	.L45
 1326 02c8 00000000 		.word	cyBle_sflashDeviceAddress
 1327 02cc 7CF1FF0F 		.word	268431740
 1328 02d0 00000000 		.word	cyBle_deviceAddress
 1329 02d4 7DF1FF0F 		.word	268431741
 1330 02d8 7BF1FF0F 		.word	268431739
 1331 02dc 00000000 		.word	cyBle_state
 1332 02e0 00000000 		.word	cyBle_busyStatus
 1333 02e4 00000000 		.word	cyBle_authInfo
 1334 02e8 00000000 		.word	cyBle_connHandle
 1335 02ec 00000000 		.word	cyBle_flashStorage
 1336 02f0 00000000 		.word	cyBle_attValuesCCCD
 1337 02f4 00000000 		.word	cyBle_clientState
 1338 02f8 00000000 		.word	CyBle_ApplCallback
 1339              		.cfi_endproc
 1340              	.LFE14:
 1341              		.size	CyBle_EventHandler, .-CyBle_EventHandler
 1342              		.section	.text.CyBle_ReadByGroupEventHandler,"ax",%progbits
 1343              		.align	2
 1344              		.global	CyBle_ReadByGroupEventHandler
 1345              		.code	16
 1346              		.thumb_func
ARM GAS  C:\Users\YBOURA~1\AppData\Local\Temp\cc3HigXd.s 			page 57


 1347              		.type	CyBle_ReadByGroupEventHandler, %function
 1348              	CyBle_ReadByGroupEventHandler:
 1349              	.LFB15:
1831:.\Generated_Source\PSoC4/BLE_eventHandler.c **** 
1832:.\Generated_Source\PSoC4/BLE_eventHandler.c **** 
1833:.\Generated_Source\PSoC4/BLE_eventHandler.c **** #if (CYBLE_GATT_ROLE_CLIENT)
1834:.\Generated_Source\PSoC4/BLE_eventHandler.c **** 
1835:.\Generated_Source\PSoC4/BLE_eventHandler.c **** 
1836:.\Generated_Source\PSoC4/BLE_eventHandler.c **** /****************************************************************************** 
1837:.\Generated_Source\PSoC4/BLE_eventHandler.c **** * Function Name: CyBle_ReadByGroupEventHandler
1838:.\Generated_Source\PSoC4/BLE_eventHandler.c **** ***************************************************************************//**
1839:.\Generated_Source\PSoC4/BLE_eventHandler.c **** * 
1840:.\Generated_Source\PSoC4/BLE_eventHandler.c **** *  Handles the Read By Group Response Event during an automatic server discovery
1841:.\Generated_Source\PSoC4/BLE_eventHandler.c **** *  process.
1842:.\Generated_Source\PSoC4/BLE_eventHandler.c **** * 
1843:.\Generated_Source\PSoC4/BLE_eventHandler.c **** *  \param eventParam:  the event parameters for a Read By Group Response
1844:.\Generated_Source\PSoC4/BLE_eventHandler.c **** * 
1845:.\Generated_Source\PSoC4/BLE_eventHandler.c **** * \return
1846:.\Generated_Source\PSoC4/BLE_eventHandler.c **** *  None
1847:.\Generated_Source\PSoC4/BLE_eventHandler.c **** * 
1848:.\Generated_Source\PSoC4/BLE_eventHandler.c **** ******************************************************************************/
1849:.\Generated_Source\PSoC4/BLE_eventHandler.c **** void CyBle_ReadByGroupEventHandler(CYBLE_GATTC_READ_BY_GRP_RSP_PARAM_T *eventParam)
1850:.\Generated_Source\PSoC4/BLE_eventHandler.c **** {
 1350              		.loc 1 1850 0
 1351              		.cfi_startproc
 1352 0000 80B5     		push	{r7, lr}
 1353              		.cfi_def_cfa_offset 8
 1354              		.cfi_offset 7, -8
 1355              		.cfi_offset 14, -4
 1356 0002 86B0     		sub	sp, sp, #24
 1357              		.cfi_def_cfa_offset 32
 1358 0004 00AF     		add	r7, sp, #0
 1359              		.cfi_def_cfa_register 7
 1360 0006 7860     		str	r0, [r7, #4]
1851:.\Generated_Source\PSoC4/BLE_eventHandler.c ****     uint16 j;
1852:.\Generated_Source\PSoC4/BLE_eventHandler.c ****     uint16 dataLength;
1853:.\Generated_Source\PSoC4/BLE_eventHandler.c ****     uint16 attrLength;
1854:.\Generated_Source\PSoC4/BLE_eventHandler.c ****     uint16 i;
1855:.\Generated_Source\PSoC4/BLE_eventHandler.c ****     CYBLE_DISC_SRVC128_INFO_T* discServInfo = NULL;
 1361              		.loc 1 1855 0
 1362 0008 0023     		mov	r3, #0
 1363 000a 3B61     		str	r3, [r7, #16]
1856:.\Generated_Source\PSoC4/BLE_eventHandler.c ****     uint8 flag;
1857:.\Generated_Source\PSoC4/BLE_eventHandler.c ****     if((CYBLE_CLIENT_STATE_SRVC_DISCOVERING == CyBle_GetClientState()) &&
 1364              		.loc 1 1857 0
 1365 000c 694B     		ldr	r3, .L103
 1366 000e 1B78     		ldrb	r3, [r3]
 1367 0010 012B     		cmp	r3, #1
 1368 0012 00D0     		beq	.LCB1120
 1369 0014 CAE0     		b	.L89	@long jump
 1370              	.LCB1120:
1858:.\Generated_Source\PSoC4/BLE_eventHandler.c ****         ((cyBle_eventHandlerFlag & CYBLE_AUTO_DISCOVERY) != 0u))
 1371              		.loc 1 1858 0 discriminator 1
 1372 0016 684B     		ldr	r3, .L103+4
 1373 0018 1B78     		ldrb	r3, [r3]
 1374 001a DBB2     		uxtb	r3, r3
 1375 001c 1A1C     		mov	r2, r3
ARM GAS  C:\Users\YBOURA~1\AppData\Local\Temp\cc3HigXd.s 			page 58


 1376 001e 0223     		mov	r3, #2
 1377 0020 1340     		and	r3, r2
1857:.\Generated_Source\PSoC4/BLE_eventHandler.c ****         ((cyBle_eventHandlerFlag & CYBLE_AUTO_DISCOVERY) != 0u))
 1378              		.loc 1 1857 0 discriminator 1
 1379 0022 00D1     		bne	.LCB1128
 1380 0024 C2E0     		b	.L89	@long jump
 1381              	.LCB1128:
1859:.\Generated_Source\PSoC4/BLE_eventHandler.c ****     {
1860:.\Generated_Source\PSoC4/BLE_eventHandler.c ****         dataLength = eventParam->attrData.length;
 1382              		.loc 1 1860 0
 1383 0026 0C23     		mov	r3, #12
 1384 0028 FB18     		add	r3, r7, r3
 1385 002a 7A68     		ldr	r2, [r7, #4]
 1386 002c 1289     		ldrh	r2, [r2, #8]
 1387 002e 1A80     		strh	r2, [r3]
1861:.\Generated_Source\PSoC4/BLE_eventHandler.c **** 
1862:.\Generated_Source\PSoC4/BLE_eventHandler.c ****         if((dataLength == CYBLE_DISC_SRVC_INFO_LEN) || (dataLength == CYBLE_DISC_SRVC_INFO_128_LEN)
 1388              		.loc 1 1862 0
 1389 0030 0C23     		mov	r3, #12
 1390 0032 FB18     		add	r3, r7, r3
 1391 0034 1B88     		ldrh	r3, [r3]
 1392 0036 062B     		cmp	r3, #6
 1393 0038 05D0     		beq	.L91
 1394              		.loc 1 1862 0 is_stmt 0 discriminator 1
 1395 003a 0C23     		mov	r3, #12
 1396 003c FB18     		add	r3, r7, r3
 1397 003e 1B88     		ldrh	r3, [r3]
 1398 0040 142B     		cmp	r3, #20
 1399 0042 00D0     		beq	.LCB1143
 1400 0044 ABE0     		b	.L92	@long jump
 1401              	.LCB1143:
 1402              	.L91:
1863:.\Generated_Source\PSoC4/BLE_eventHandler.c ****         {
1864:.\Generated_Source\PSoC4/BLE_eventHandler.c ****             attrLength = eventParam->attrData.attrLen;
 1403              		.loc 1 1864 0 is_stmt 1
 1404 0046 0A23     		mov	r3, #10
 1405 0048 FB18     		add	r3, r7, r3
 1406 004a 7A68     		ldr	r2, [r7, #4]
 1407 004c 5289     		ldrh	r2, [r2, #10]
 1408 004e 1A80     		strh	r2, [r3]
1865:.\Generated_Source\PSoC4/BLE_eventHandler.c **** 
1866:.\Generated_Source\PSoC4/BLE_eventHandler.c ****             for(i = 0u; i < attrLength; i += dataLength)
 1409              		.loc 1 1866 0
 1410 0050 1423     		mov	r3, #20
 1411 0052 FB18     		add	r3, r7, r3
 1412 0054 0022     		mov	r2, #0
 1413 0056 1A80     		strh	r2, [r3]
 1414 0058 81E0     		b	.L93
 1415              	.L101:
1867:.\Generated_Source\PSoC4/BLE_eventHandler.c ****             {
1868:.\Generated_Source\PSoC4/BLE_eventHandler.c ****                 discServInfo = (CYBLE_DISC_SRVC128_INFO_T *)(eventParam->attrData.attrValue + i);
 1416              		.loc 1 1868 0
 1417 005a 7B68     		ldr	r3, [r7, #4]
 1418 005c 5A68     		ldr	r2, [r3, #4]
 1419 005e 1423     		mov	r3, #20
 1420 0060 FB18     		add	r3, r7, r3
 1421 0062 1B88     		ldrh	r3, [r3]
ARM GAS  C:\Users\YBOURA~1\AppData\Local\Temp\cc3HigXd.s 			page 59


 1422 0064 D318     		add	r3, r2, r3
 1423 0066 3B61     		str	r3, [r7, #16]
1869:.\Generated_Source\PSoC4/BLE_eventHandler.c ****                 flag = 0u;
 1424              		.loc 1 1869 0
 1425 0068 0F23     		mov	r3, #15
 1426 006a FB18     		add	r3, r7, r3
 1427 006c 0022     		mov	r2, #0
 1428 006e 1A70     		strb	r2, [r3]
1870:.\Generated_Source\PSoC4/BLE_eventHandler.c **** 
1871:.\Generated_Source\PSoC4/BLE_eventHandler.c ****                 if(dataLength == CYBLE_DISC_SRVC_INFO_LEN)
 1429              		.loc 1 1871 0
 1430 0070 0C23     		mov	r3, #12
 1431 0072 FB18     		add	r3, r7, r3
 1432 0074 1B88     		ldrh	r3, [r3]
 1433 0076 062B     		cmp	r3, #6
 1434 0078 63D1     		bne	.L94
1872:.\Generated_Source\PSoC4/BLE_eventHandler.c ****                 {
1873:.\Generated_Source\PSoC4/BLE_eventHandler.c **** 					for(j = 0u; (j < (uint16)CYBLE_SRVI_COUNT) && (flag == 0u); j++)
 1435              		.loc 1 1873 0
 1436 007a 1623     		mov	r3, #22
 1437 007c FB18     		add	r3, r7, r3
 1438 007e 0022     		mov	r2, #0
 1439 0080 1A80     		strh	r2, [r3]
 1440 0082 53E0     		b	.L95
 1441              	.L100:
1874:.\Generated_Source\PSoC4/BLE_eventHandler.c ****                     {
1875:.\Generated_Source\PSoC4/BLE_eventHandler.c ****                         if(cyBle_serverInfo[j].uuid == discServInfo->uuid.uuid16)
 1442              		.loc 1 1875 0
 1443 0084 1623     		mov	r3, #22
 1444 0086 FB18     		add	r3, r7, r3
 1445 0088 1A88     		ldrh	r2, [r3]
 1446 008a 4C49     		ldr	r1, .L103+8
 1447 008c 131C     		mov	r3, r2
 1448 008e 5B00     		lsl	r3, r3, #1
 1449 0090 9B18     		add	r3, r3, r2
 1450 0092 5B00     		lsl	r3, r3, #1
 1451 0094 CB18     		add	r3, r1, r3
 1452 0096 9A88     		ldrh	r2, [r3, #4]
 1453 0098 3B69     		ldr	r3, [r7, #16]
 1454 009a 9B88     		ldrh	r3, [r3, #4]
 1455 009c 9A42     		cmp	r2, r3
 1456 009e 3ED1     		bne	.L96
1876:.\Generated_Source\PSoC4/BLE_eventHandler.c ****                         {
1877:.\Generated_Source\PSoC4/BLE_eventHandler.c ****                             if(cyBle_serverInfo[j].range.startHandle == CYBLE_GATT_INVALID_ATTR_HAN
 1457              		.loc 1 1877 0
 1458 00a0 1623     		mov	r3, #22
 1459 00a2 FB18     		add	r3, r7, r3
 1460 00a4 1A88     		ldrh	r2, [r3]
 1461 00a6 4549     		ldr	r1, .L103+8
 1462 00a8 131C     		mov	r3, r2
 1463 00aa 5B00     		lsl	r3, r3, #1
 1464 00ac 9B18     		add	r3, r3, r2
 1465 00ae 5B00     		lsl	r3, r3, #1
 1466 00b0 5B5A     		ldrh	r3, [r3, r1]
 1467 00b2 002B     		cmp	r3, #0
 1468 00b4 13D1     		bne	.L97
1878:.\Generated_Source\PSoC4/BLE_eventHandler.c ****                             {
ARM GAS  C:\Users\YBOURA~1\AppData\Local\Temp\cc3HigXd.s 			page 60


1879:.\Generated_Source\PSoC4/BLE_eventHandler.c ****                                 cyBle_serverInfo[j].range = discServInfo->range;
 1469              		.loc 1 1879 0
 1470 00b6 1623     		mov	r3, #22
 1471 00b8 FB18     		add	r3, r7, r3
 1472 00ba 1A88     		ldrh	r2, [r3]
 1473 00bc 3F49     		ldr	r1, .L103+8
 1474 00be 131C     		mov	r3, r2
 1475 00c0 5B00     		lsl	r3, r3, #1
 1476 00c2 9B18     		add	r3, r3, r2
 1477 00c4 5B00     		lsl	r3, r3, #1
 1478 00c6 3A69     		ldr	r2, [r7, #16]
 1479 00c8 CB18     		add	r3, r1, r3
 1480 00ca 111C     		mov	r1, r2
 1481 00cc 0422     		mov	r2, #4
 1482 00ce 181C     		mov	r0, r3
 1483 00d0 FFF7FEFF 		bl	memcpy
1880:.\Generated_Source\PSoC4/BLE_eventHandler.c ****                                 flag = 1u;
 1484              		.loc 1 1880 0
 1485 00d4 0F23     		mov	r3, #15
 1486 00d6 FB18     		add	r3, r7, r3
 1487 00d8 0122     		mov	r2, #1
 1488 00da 1A70     		strb	r2, [r3]
 1489 00dc 1FE0     		b	.L96
 1490              	.L97:
1881:.\Generated_Source\PSoC4/BLE_eventHandler.c ****                             }
1882:.\Generated_Source\PSoC4/BLE_eventHandler.c ****                             else    /* Duplication of service */
1883:.\Generated_Source\PSoC4/BLE_eventHandler.c ****                             {
1884:.\Generated_Source\PSoC4/BLE_eventHandler.c ****                                 /* For multiple service support next service has the same uuid */
1885:.\Generated_Source\PSoC4/BLE_eventHandler.c ****                                 if((j >= (CYBLE_SRVI_COUNT - 1u)) || 
 1491              		.loc 1 1885 0
 1492 00de 1623     		mov	r3, #22
 1493 00e0 FB18     		add	r3, r7, r3
 1494 00e2 1B88     		ldrh	r3, [r3]
 1495 00e4 012B     		cmp	r3, #1
 1496 00e6 0ED8     		bhi	.L98
1886:.\Generated_Source\PSoC4/BLE_eventHandler.c ****                                    (cyBle_serverInfo[j + 1u].uuid != discServInfo->uuid.uuid16))
 1497              		.loc 1 1886 0 discriminator 1
 1498 00e8 1623     		mov	r3, #22
 1499 00ea FB18     		add	r3, r7, r3
 1500 00ec 1B88     		ldrh	r3, [r3]
 1501 00ee 5A1C     		add	r2, r3, #1
 1502 00f0 3249     		ldr	r1, .L103+8
 1503 00f2 131C     		mov	r3, r2
 1504 00f4 5B00     		lsl	r3, r3, #1
 1505 00f6 9B18     		add	r3, r3, r2
 1506 00f8 5B00     		lsl	r3, r3, #1
 1507 00fa CB18     		add	r3, r1, r3
 1508 00fc 9A88     		ldrh	r2, [r3, #4]
 1509 00fe 3B69     		ldr	r3, [r7, #16]
 1510 0100 9B88     		ldrh	r3, [r3, #4]
1885:.\Generated_Source\PSoC4/BLE_eventHandler.c ****                                    (cyBle_serverInfo[j + 1u].uuid != discServInfo->uuid.uuid16))
 1511              		.loc 1 1885 0 discriminator 1
 1512 0102 9A42     		cmp	r2, r3
 1513 0104 0BD0     		beq	.L96
 1514              	.L98:
1887:.\Generated_Source\PSoC4/BLE_eventHandler.c ****                                 {
1888:.\Generated_Source\PSoC4/BLE_eventHandler.c ****                                     CyBle_ApplCallback(CYBLE_EVT_GATTC_SRVC_DUPLICATION, &discServI
ARM GAS  C:\Users\YBOURA~1\AppData\Local\Temp\cc3HigXd.s 			page 61


 1515              		.loc 1 1888 0
 1516 0106 2E4B     		ldr	r3, .L103+12
 1517 0108 1B68     		ldr	r3, [r3]
 1518 010a 3A69     		ldr	r2, [r7, #16]
 1519 010c 111D     		add	r1, r2, #4
 1520 010e 0C22     		mov	r2, #12
 1521 0110 FF32     		add	r2, r2, #255
 1522 0112 101C     		mov	r0, r2
 1523 0114 9847     		blx	r3
1889:.\Generated_Source\PSoC4/BLE_eventHandler.c ****                                     flag = 1u;
 1524              		.loc 1 1889 0
 1525 0116 0F23     		mov	r3, #15
 1526 0118 FB18     		add	r3, r7, r3
 1527 011a 0122     		mov	r2, #1
 1528 011c 1A70     		strb	r2, [r3]
 1529              	.L96:
1873:.\Generated_Source\PSoC4/BLE_eventHandler.c ****                     {
 1530              		.loc 1 1873 0 discriminator 2
 1531 011e 1623     		mov	r3, #22
 1532 0120 FB18     		add	r3, r7, r3
 1533 0122 1A88     		ldrh	r2, [r3]
 1534 0124 1623     		mov	r3, #22
 1535 0126 FB18     		add	r3, r7, r3
 1536 0128 0132     		add	r2, r2, #1
 1537 012a 1A80     		strh	r2, [r3]
 1538              	.L95:
1873:.\Generated_Source\PSoC4/BLE_eventHandler.c ****                     {
 1539              		.loc 1 1873 0 is_stmt 0 discriminator 1
 1540 012c 1623     		mov	r3, #22
 1541 012e FB18     		add	r3, r7, r3
 1542 0130 1B88     		ldrh	r3, [r3]
 1543 0132 022B     		cmp	r3, #2
 1544 0134 09D8     		bhi	.L99
1873:.\Generated_Source\PSoC4/BLE_eventHandler.c ****                     {
 1545              		.loc 1 1873 0 discriminator 3
 1546 0136 0F23     		mov	r3, #15
 1547 0138 FB18     		add	r3, r7, r3
 1548 013a 1B78     		ldrb	r3, [r3]
 1549 013c 002B     		cmp	r3, #0
 1550 013e A1D0     		beq	.L100
 1551 0140 03E0     		b	.L99
 1552              	.L94:
1890:.\Generated_Source\PSoC4/BLE_eventHandler.c ****                                 }
1891:.\Generated_Source\PSoC4/BLE_eventHandler.c ****                             }
1892:.\Generated_Source\PSoC4/BLE_eventHandler.c ****                         }
1893:.\Generated_Source\PSoC4/BLE_eventHandler.c ****                     }
1894:.\Generated_Source\PSoC4/BLE_eventHandler.c ****                 }
1895:.\Generated_Source\PSoC4/BLE_eventHandler.c ****                 else  /* Received 128 bit service UUID */
1896:.\Generated_Source\PSoC4/BLE_eventHandler.c ****                 {
1897:.\Generated_Source\PSoC4/BLE_eventHandler.c ****                 #ifdef CYBLE_ANCS_CLIENT
1898:.\Generated_Source\PSoC4/BLE_eventHandler.c ****                     CyBle_AncscDiscoverServiceEventHandler(discServInfo);
1899:.\Generated_Source\PSoC4/BLE_eventHandler.c ****                 #endif /* CYBLE_CUSTOM_CLIENT */
1900:.\Generated_Source\PSoC4/BLE_eventHandler.c ****                 #ifdef CYBLE_CUSTOM_CLIENT
1901:.\Generated_Source\PSoC4/BLE_eventHandler.c ****                     CyBle_CustomcDiscoverServiceEventHandler(discServInfo);
 1553              		.loc 1 1901 0 is_stmt 1
 1554 0142 3B69     		ldr	r3, [r7, #16]
 1555 0144 181C     		mov	r0, r3
ARM GAS  C:\Users\YBOURA~1\AppData\Local\Temp\cc3HigXd.s 			page 62


 1556 0146 FFF7FEFF 		bl	CyBle_CustomcDiscoverServiceEventHandler
 1557              	.L99:
1866:.\Generated_Source\PSoC4/BLE_eventHandler.c ****             {
 1558              		.loc 1 1866 0 discriminator 2
 1559 014a 1423     		mov	r3, #20
 1560 014c FB18     		add	r3, r7, r3
 1561 014e 1422     		mov	r2, #20
 1562 0150 B918     		add	r1, r7, r2
 1563 0152 0C22     		mov	r2, #12
 1564 0154 BA18     		add	r2, r7, r2
 1565 0156 0988     		ldrh	r1, [r1]
 1566 0158 1288     		ldrh	r2, [r2]
 1567 015a 8A18     		add	r2, r1, r2
 1568 015c 1A80     		strh	r2, [r3]
 1569              	.L93:
1866:.\Generated_Source\PSoC4/BLE_eventHandler.c ****             {
 1570              		.loc 1 1866 0 is_stmt 0 discriminator 1
 1571 015e 1423     		mov	r3, #20
 1572 0160 FA18     		add	r2, r7, r3
 1573 0162 0A23     		mov	r3, #10
 1574 0164 FB18     		add	r3, r7, r3
 1575 0166 1288     		ldrh	r2, [r2]
 1576 0168 1B88     		ldrh	r3, [r3]
 1577 016a 9A42     		cmp	r2, r3
 1578 016c 00D2     		bcs	.LCB1311
 1579 016e 74E7     		b	.L101	@long jump
 1580              	.LCB1311:
1902:.\Generated_Source\PSoC4/BLE_eventHandler.c ****                 #endif /* CYBLE_CUSTOM_CLIENT */
1903:.\Generated_Source\PSoC4/BLE_eventHandler.c ****                 }
1904:.\Generated_Source\PSoC4/BLE_eventHandler.c ****             }
1905:.\Generated_Source\PSoC4/BLE_eventHandler.c **** 
1906:.\Generated_Source\PSoC4/BLE_eventHandler.c ****             if((discServInfo != NULL) && (discServInfo->range.endHandle == CYBLE_GATT_ATTR_HANDLE_E
 1581              		.loc 1 1906 0 is_stmt 1
 1582 0170 3B69     		ldr	r3, [r7, #16]
 1583 0172 002B     		cmp	r3, #0
 1584 0174 0AD0     		beq	.L102
 1585              		.loc 1 1906 0 is_stmt 0 discriminator 1
 1586 0176 3B69     		ldr	r3, [r7, #16]
 1587 0178 5B88     		ldrh	r3, [r3, #2]
 1588 017a 124A     		ldr	r2, .L103+16
 1589 017c 9342     		cmp	r3, r2
 1590 017e 05D1     		bne	.L102
1907:.\Generated_Source\PSoC4/BLE_eventHandler.c ****             {
1908:.\Generated_Source\PSoC4/BLE_eventHandler.c ****             #if(CYBLE_STACK_MODE_DEBUG)
1909:.\Generated_Source\PSoC4/BLE_eventHandler.c ****                 CyBle_ApplCallback(CYBLE_EVT_GATTC_SRVC_DISCOVERY_COMPLETE, NULL);
1910:.\Generated_Source\PSoC4/BLE_eventHandler.c ****             #endif /* CYBLE_STACK_MODE_DEBUG */   
1911:.\Generated_Source\PSoC4/BLE_eventHandler.c ****                 CyBle_SetClientState(CYBLE_CLIENT_STATE_INCL_DISCOVERING);
 1591              		.loc 1 1911 0 is_stmt 1
 1592 0180 0C4B     		ldr	r3, .L103
 1593 0182 0222     		mov	r2, #2
 1594 0184 1A70     		strb	r2, [r3]
1912:.\Generated_Source\PSoC4/BLE_eventHandler.c ****                 CyBle_NextInclDiscovery(CYBLE_DISCOVERY_INIT);
 1595              		.loc 1 1912 0
 1596 0186 0020     		mov	r0, #0
 1597 0188 FFF7FEFF 		bl	CyBle_NextInclDiscovery
 1598              	.L102:
1913:.\Generated_Source\PSoC4/BLE_eventHandler.c ****             }
ARM GAS  C:\Users\YBOURA~1\AppData\Local\Temp\cc3HigXd.s 			page 63


1914:.\Generated_Source\PSoC4/BLE_eventHandler.c ****             cyBle_eventHandlerFlag &= (uint8)~CYBLE_CALLBACK;
 1599              		.loc 1 1914 0
 1600 018c 0A4B     		ldr	r3, .L103+4
 1601 018e 1B78     		ldrb	r3, [r3]
 1602 0190 DBB2     		uxtb	r3, r3
 1603 0192 0122     		mov	r2, #1
 1604 0194 9343     		bic	r3, r2
 1605 0196 DAB2     		uxtb	r2, r3
 1606 0198 074B     		ldr	r3, .L103+4
 1607 019a 1A70     		strb	r2, [r3]
 1608 019c 06E0     		b	.L89
 1609              	.L92:
1915:.\Generated_Source\PSoC4/BLE_eventHandler.c ****         }
1916:.\Generated_Source\PSoC4/BLE_eventHandler.c ****         else
1917:.\Generated_Source\PSoC4/BLE_eventHandler.c ****         {
1918:.\Generated_Source\PSoC4/BLE_eventHandler.c ****             CyBle_ApplCallback(CYBLE_EVT_GATTC_SRVC_DISCOVERY_FAILED, NULL);
 1610              		.loc 1 1918 0
 1611 019e 084B     		ldr	r3, .L103+12
 1612 01a0 1B68     		ldr	r3, [r3]
 1613 01a2 0822     		mov	r2, #8
 1614 01a4 FF32     		add	r2, r2, #255
 1615 01a6 101C     		mov	r0, r2
 1616 01a8 0021     		mov	r1, #0
 1617 01aa 9847     		blx	r3
 1618              	.L89:
1919:.\Generated_Source\PSoC4/BLE_eventHandler.c ****         }
1920:.\Generated_Source\PSoC4/BLE_eventHandler.c ****     }
1921:.\Generated_Source\PSoC4/BLE_eventHandler.c **** }
 1619              		.loc 1 1921 0
 1620 01ac BD46     		mov	sp, r7
 1621 01ae 06B0     		add	sp, sp, #24
 1622              		@ sp needed
 1623 01b0 80BD     		pop	{r7, pc}
 1624              	.L104:
 1625 01b2 C046     		.align	2
 1626              	.L103:
 1627 01b4 00000000 		.word	cyBle_clientState
 1628 01b8 00000000 		.word	cyBle_eventHandlerFlag
 1629 01bc 00000000 		.word	cyBle_serverInfo
 1630 01c0 00000000 		.word	CyBle_ApplCallback
 1631 01c4 FFFF0000 		.word	65535
 1632              		.cfi_endproc
 1633              	.LFE15:
 1634              		.size	CyBle_ReadByGroupEventHandler, .-CyBle_ReadByGroupEventHandler
 1635              		.section	.text.CyBle_NextInclDiscovery,"ax",%progbits
 1636              		.align	2
 1637              		.global	CyBle_NextInclDiscovery
 1638              		.code	16
 1639              		.thumb_func
 1640              		.type	CyBle_NextInclDiscovery, %function
 1641              	CyBle_NextInclDiscovery:
 1642              	.LFB16:
1922:.\Generated_Source\PSoC4/BLE_eventHandler.c **** 
1923:.\Generated_Source\PSoC4/BLE_eventHandler.c **** 
1924:.\Generated_Source\PSoC4/BLE_eventHandler.c **** /****************************************************************************** 
1925:.\Generated_Source\PSoC4/BLE_eventHandler.c **** * Function Name: CyBle_NextInclDiscovery
1926:.\Generated_Source\PSoC4/BLE_eventHandler.c **** ***************************************************************************//**
ARM GAS  C:\Users\YBOURA~1\AppData\Local\Temp\cc3HigXd.s 			page 64


1927:.\Generated_Source\PSoC4/BLE_eventHandler.c **** * 
1928:.\Generated_Source\PSoC4/BLE_eventHandler.c **** *  Looks for the included services in the current service (pointed by
1929:.\Generated_Source\PSoC4/BLE_eventHandler.c **** *   cyBle_disCount). If the current service handle range is invalid (any of start
1930:.\Generated_Source\PSoC4/BLE_eventHandler.c **** *   or end handle is invalid), then increment the cyBle_disCount and check
1931:.\Generated_Source\PSoC4/BLE_eventHandler.c **** *   the next service range and does so until a valid range is caught or the end of
1932:.\Generated_Source\PSoC4/BLE_eventHandler.c **** *   the service set is reached.
1933:.\Generated_Source\PSoC4/BLE_eventHandler.c **** * 
1934:.\Generated_Source\PSoC4/BLE_eventHandler.c **** *  \param incrementIndex: Not zero value indicates that service index should be 
1935:.\Generated_Source\PSoC4/BLE_eventHandler.c **** *                         incremented.
1936:.\Generated_Source\PSoC4/BLE_eventHandler.c **** * 
1937:.\Generated_Source\PSoC4/BLE_eventHandler.c **** * \return
1938:.\Generated_Source\PSoC4/BLE_eventHandler.c **** *  None.
1939:.\Generated_Source\PSoC4/BLE_eventHandler.c **** * 
1940:.\Generated_Source\PSoC4/BLE_eventHandler.c **** ******************************************************************************/
1941:.\Generated_Source\PSoC4/BLE_eventHandler.c **** void CyBle_NextInclDiscovery(uint8 incrementIndex)
1942:.\Generated_Source\PSoC4/BLE_eventHandler.c **** {
 1643              		.loc 1 1942 0
 1644              		.cfi_startproc
 1645 0000 80B5     		push	{r7, lr}
 1646              		.cfi_def_cfa_offset 8
 1647              		.cfi_offset 7, -8
 1648              		.cfi_offset 14, -4
 1649 0002 82B0     		sub	sp, sp, #8
 1650              		.cfi_def_cfa_offset 16
 1651 0004 00AF     		add	r7, sp, #0
 1652              		.cfi_def_cfa_register 7
 1653 0006 021C     		mov	r2, r0
 1654 0008 FB1D     		add	r3, r7, #7
 1655 000a 1A70     		strb	r2, [r3]
1943:.\Generated_Source\PSoC4/BLE_eventHandler.c **** 
1944:.\Generated_Source\PSoC4/BLE_eventHandler.c ****     if(incrementIndex != CYBLE_DISCOVERY_INIT)
 1656              		.loc 1 1944 0
 1657 000c FB1D     		add	r3, r7, #7
 1658 000e 1B78     		ldrb	r3, [r3]
 1659 0010 002B     		cmp	r3, #0
 1660 0012 06D0     		beq	.L106
1945:.\Generated_Source\PSoC4/BLE_eventHandler.c ****     {
1946:.\Generated_Source\PSoC4/BLE_eventHandler.c ****         cyBle_disCount++;
 1661              		.loc 1 1946 0
 1662 0014 2C4B     		ldr	r3, .L114
 1663 0016 1B78     		ldrb	r3, [r3]
 1664 0018 0133     		add	r3, r3, #1
 1665 001a DAB2     		uxtb	r2, r3
 1666 001c 2A4B     		ldr	r3, .L114
 1667 001e 1A70     		strb	r2, [r3]
 1668 0020 05E0     		b	.L107
 1669              	.L106:
1947:.\Generated_Source\PSoC4/BLE_eventHandler.c ****     }
1948:.\Generated_Source\PSoC4/BLE_eventHandler.c ****     else
1949:.\Generated_Source\PSoC4/BLE_eventHandler.c ****     {
1950:.\Generated_Source\PSoC4/BLE_eventHandler.c ****         cyBle_disCount = 0u;
 1670              		.loc 1 1950 0
 1671 0022 294B     		ldr	r3, .L114
 1672 0024 0022     		mov	r2, #0
 1673 0026 1A70     		strb	r2, [r3]
1951:.\Generated_Source\PSoC4/BLE_eventHandler.c ****         cyBle_discInclInfo.inclDefHandle = 0u;
 1674              		.loc 1 1951 0
ARM GAS  C:\Users\YBOURA~1\AppData\Local\Temp\cc3HigXd.s 			page 65


 1675 0028 284B     		ldr	r3, .L114+4
 1676 002a 0022     		mov	r2, #0
 1677 002c 1A80     		strh	r2, [r3]
 1678              	.L107:
1952:.\Generated_Source\PSoC4/BLE_eventHandler.c ****     }
1953:.\Generated_Source\PSoC4/BLE_eventHandler.c **** 
1954:.\Generated_Source\PSoC4/BLE_eventHandler.c ****     /* Skip not existing services */
1955:.\Generated_Source\PSoC4/BLE_eventHandler.c ****     while((cyBle_disCount < (uint8) CYBLE_SRVI_COUNT) &&
 1679              		.loc 1 1955 0
 1680 002e 05E0     		b	.L108
 1681              	.L110:
1956:.\Generated_Source\PSoC4/BLE_eventHandler.c ****           (cyBle_serverInfo[cyBle_disCount].range.startHandle == CYBLE_GATT_INVALID_ATTR_HANDLE_VAL
1957:.\Generated_Source\PSoC4/BLE_eventHandler.c ****     {
1958:.\Generated_Source\PSoC4/BLE_eventHandler.c ****         cyBle_disCount++;
 1682              		.loc 1 1958 0
 1683 0030 254B     		ldr	r3, .L114
 1684 0032 1B78     		ldrb	r3, [r3]
 1685 0034 0133     		add	r3, r3, #1
 1686 0036 DAB2     		uxtb	r2, r3
 1687 0038 234B     		ldr	r3, .L114
 1688 003a 1A70     		strb	r2, [r3]
 1689              	.L108:
1955:.\Generated_Source\PSoC4/BLE_eventHandler.c ****           (cyBle_serverInfo[cyBle_disCount].range.startHandle == CYBLE_GATT_INVALID_ATTR_HANDLE_VAL
 1690              		.loc 1 1955 0
 1691 003c 224B     		ldr	r3, .L114
 1692 003e 1B78     		ldrb	r3, [r3]
 1693 0040 022B     		cmp	r3, #2
 1694 0042 0AD8     		bhi	.L109
1956:.\Generated_Source\PSoC4/BLE_eventHandler.c ****           (cyBle_serverInfo[cyBle_disCount].range.startHandle == CYBLE_GATT_INVALID_ATTR_HANDLE_VAL
 1695              		.loc 1 1956 0 discriminator 1
 1696 0044 204B     		ldr	r3, .L114
 1697 0046 1B78     		ldrb	r3, [r3]
 1698 0048 191C     		mov	r1, r3
 1699 004a 214A     		ldr	r2, .L114+8
 1700 004c 0B1C     		mov	r3, r1
 1701 004e 5B00     		lsl	r3, r3, #1
 1702 0050 5B18     		add	r3, r3, r1
 1703 0052 5B00     		lsl	r3, r3, #1
 1704 0054 9B5A     		ldrh	r3, [r3, r2]
1955:.\Generated_Source\PSoC4/BLE_eventHandler.c ****           (cyBle_serverInfo[cyBle_disCount].range.startHandle == CYBLE_GATT_INVALID_ATTR_HANDLE_VAL
 1705              		.loc 1 1955 0 discriminator 1
 1706 0056 002B     		cmp	r3, #0
 1707 0058 EAD0     		beq	.L110
 1708              	.L109:
1959:.\Generated_Source\PSoC4/BLE_eventHandler.c ****     }
1960:.\Generated_Source\PSoC4/BLE_eventHandler.c **** 
1961:.\Generated_Source\PSoC4/BLE_eventHandler.c ****     if(cyBle_disCount < (uint8) CYBLE_SRVI_COUNT)
 1709              		.loc 1 1961 0
 1710 005a 1B4B     		ldr	r3, .L114
 1711 005c 1B78     		ldrb	r3, [r3]
 1712 005e 022B     		cmp	r3, #2
 1713 0060 28D8     		bhi	.L111
1962:.\Generated_Source\PSoC4/BLE_eventHandler.c ****     {
1963:.\Generated_Source\PSoC4/BLE_eventHandler.c ****         if(CYBLE_ERROR_OK != CyBle_GattcFindIncludedServices(cyBle_connHandle, &cyBle_serverInfo[cy
 1714              		.loc 1 1963 0
 1715 0062 194B     		ldr	r3, .L114
 1716 0064 1B78     		ldrb	r3, [r3]
ARM GAS  C:\Users\YBOURA~1\AppData\Local\Temp\cc3HigXd.s 			page 66


 1717 0066 1A1C     		mov	r2, r3
 1718 0068 131C     		mov	r3, r2
 1719 006a 5B00     		lsl	r3, r3, #1
 1720 006c 9B18     		add	r3, r3, r2
 1721 006e 5B00     		lsl	r3, r3, #1
 1722 0070 174A     		ldr	r2, .L114+8
 1723 0072 9918     		add	r1, r3, r2
 1724 0074 174B     		ldr	r3, .L114+12
 1725 0076 1A78     		ldrb	r2, [r3]
 1726 0078 5B78     		ldrb	r3, [r3, #1]
 1727 007a 1B02     		lsl	r3, r3, #8
 1728 007c 1A43     		orr	r2, r3
 1729 007e 0023     		mov	r3, #0
 1730 0080 1204     		lsl	r2, r2, #16
 1731 0082 120C     		lsr	r2, r2, #16
 1732 0084 1B0C     		lsr	r3, r3, #16
 1733 0086 1B04     		lsl	r3, r3, #16
 1734 0088 1343     		orr	r3, r2
 1735 008a 181C     		mov	r0, r3
 1736 008c FFF7FEFF 		bl	CyBle_GattcFindIncludedServices
 1737 0090 031E     		sub	r3, r0, #0
 1738 0092 15D0     		beq	.L105
1964:.\Generated_Source\PSoC4/BLE_eventHandler.c ****         {
1965:.\Generated_Source\PSoC4/BLE_eventHandler.c ****             CyBle_ApplCallback(CYBLE_EVT_GATTC_INCL_DISCOVERY_FAILED, NULL);
 1739              		.loc 1 1965 0
 1740 0094 104B     		ldr	r3, .L114+16
 1741 0096 1B68     		ldr	r3, [r3]
 1742 0098 8422     		mov	r2, #132
 1743 009a 5200     		lsl	r2, r2, #1
 1744 009c 101C     		mov	r0, r2
 1745 009e 0021     		mov	r1, #0
 1746 00a0 9847     		blx	r3
1966:.\Generated_Source\PSoC4/BLE_eventHandler.c ****             cyBle_eventHandlerFlag &= (uint8)~CYBLE_AUTO_DISCOVERY;
 1747              		.loc 1 1966 0
 1748 00a2 0E4B     		ldr	r3, .L114+20
 1749 00a4 1B78     		ldrb	r3, [r3]
 1750 00a6 DBB2     		uxtb	r3, r3
 1751 00a8 0222     		mov	r2, #2
 1752 00aa 9343     		bic	r3, r2
 1753 00ac DAB2     		uxtb	r2, r3
 1754 00ae 0B4B     		ldr	r3, .L114+20
 1755 00b0 1A70     		strb	r2, [r3]
 1756 00b2 05E0     		b	.L105
 1757              	.L111:
1967:.\Generated_Source\PSoC4/BLE_eventHandler.c ****         }
1968:.\Generated_Source\PSoC4/BLE_eventHandler.c ****     }
1969:.\Generated_Source\PSoC4/BLE_eventHandler.c ****     else /* Included service discovery procedure is done, start characteristic discovery procedure 
1970:.\Generated_Source\PSoC4/BLE_eventHandler.c ****     {
1971:.\Generated_Source\PSoC4/BLE_eventHandler.c ****         #if(CYBLE_STACK_MODE_DEBUG)
1972:.\Generated_Source\PSoC4/BLE_eventHandler.c ****             CyBle_ApplCallback(CYBLE_EVT_GATTC_INCL_DISCOVERY_COMPLETE, NULL);
1973:.\Generated_Source\PSoC4/BLE_eventHandler.c ****         #endif /* CYBLE_STACK_MODE_DEBUG */
1974:.\Generated_Source\PSoC4/BLE_eventHandler.c ****             CyBle_SetClientState(CYBLE_CLIENT_STATE_CHAR_DISCOVERING);
 1758              		.loc 1 1974 0
 1759 00b4 0A4B     		ldr	r3, .L114+24
 1760 00b6 0322     		mov	r2, #3
 1761 00b8 1A70     		strb	r2, [r3]
1975:.\Generated_Source\PSoC4/BLE_eventHandler.c ****             CyBle_NextCharDiscovery(CYBLE_DISCOVERY_INIT);
ARM GAS  C:\Users\YBOURA~1\AppData\Local\Temp\cc3HigXd.s 			page 67


 1762              		.loc 1 1975 0
 1763 00ba 0020     		mov	r0, #0
 1764 00bc FFF7FEFF 		bl	CyBle_NextCharDiscovery
 1765              	.L105:
1976:.\Generated_Source\PSoC4/BLE_eventHandler.c ****     }
1977:.\Generated_Source\PSoC4/BLE_eventHandler.c **** }
 1766              		.loc 1 1977 0
 1767 00c0 BD46     		mov	sp, r7
 1768 00c2 02B0     		add	sp, sp, #8
 1769              		@ sp needed
 1770 00c4 80BD     		pop	{r7, pc}
 1771              	.L115:
 1772 00c6 C046     		.align	2
 1773              	.L114:
 1774 00c8 00000000 		.word	cyBle_disCount
 1775 00cc 04000000 		.word	cyBle_discInclInfo
 1776 00d0 00000000 		.word	cyBle_serverInfo
 1777 00d4 00000000 		.word	cyBle_connHandle
 1778 00d8 00000000 		.word	CyBle_ApplCallback
 1779 00dc 00000000 		.word	cyBle_eventHandlerFlag
 1780 00e0 00000000 		.word	cyBle_clientState
 1781              		.cfi_endproc
 1782              	.LFE16:
 1783              		.size	CyBle_NextInclDiscovery, .-CyBle_NextInclDiscovery
 1784              		.section	.text.CyBle_GapcDiscoverCharacteristicsEventHandler,"ax",%progbits
 1785              		.align	2
 1786              		.code	16
 1787              		.thumb_func
 1788              		.type	CyBle_GapcDiscoverCharacteristicsEventHandler, %function
 1789              	CyBle_GapcDiscoverCharacteristicsEventHandler:
 1790              	.LFB17:
1978:.\Generated_Source\PSoC4/BLE_eventHandler.c **** 
1979:.\Generated_Source\PSoC4/BLE_eventHandler.c **** 
1980:.\Generated_Source\PSoC4/BLE_eventHandler.c **** /****************************************************************************** 
1981:.\Generated_Source\PSoC4/BLE_eventHandler.c **** * Function Name: CyBle_GapcDiscoverCharacteristicsEventHandler
1982:.\Generated_Source\PSoC4/BLE_eventHandler.c **** ***************************************************************************//**
1983:.\Generated_Source\PSoC4/BLE_eventHandler.c **** * 
1984:.\Generated_Source\PSoC4/BLE_eventHandler.c **** *  This function is called on receiving a "CYBLE_EVT_GATTC_READ_BY_TYPE_RSP"
