ARM GAS  C:\Users\YBOURA~1\AppData\Local\Temp\cc3HigXd.s 			page 1


   1              		.cpu cortex-m0
   2              		.fpu softvfp
   3              		.eabi_attribute 20, 1
   4              		.eabi_attribute 21, 1
   5              		.eabi_attribute 23, 3
   6              		.eabi_attribute 24, 1
   7              		.eabi_attribute 25, 1
   8              		.eabi_attribute 26, 1
   9              		.eabi_attribute 30, 6
  10              		.eabi_attribute 34, 0
  11              		.eabi_attribute 18, 4
  12              		.code	16
  13              		.file	"BLE_eventHandler.c"
  14              		.text
  15              	.Ltext0:
  16              		.cfi_sections	.debug_frame
  17              		.comm	cyBle_connHandle,2,4
  18              		.comm	cyBle_eventHandlerFlag,1,1
  19              		.comm	cyBle_busyStatus,1,1
  20              		.comm	cyBle_scanningIntervalType,1,1
  21              		.comm	cyBle_disCount,1,1
  22              		.bss
  23              		.align	1
  24              	cyBle_charEndHandle:
  25 0000 0000     		.space	2
  26 0002 0000     		.align	2
  27              	cyBle_discInclInfo:
  28 0004 00000000 		.space	24
  28      00000000 
  28      00000000 
  28      00000000 
  28      00000000 
  29              		.global	cyBle_serverInfo
  30              		.data
  31              		.align	2
  32              		.type	cyBle_serverInfo, %object
  33              		.size	cyBle_serverInfo, 18
  34              	cyBle_serverInfo:
  35 0000 0000     		.short	0
  36 0002 0000     		.short	0
  37 0004 0018     		.short	6144
  38 0006 0000     		.short	0
  39 0008 0000     		.short	0
  40 000a 0118     		.short	6145
  41 000c 0000     		.short	0
  42 000e 0000     		.short	0
  43 0010 0000     		.short	0
  44              		.comm	cyBle_gapc,10,4
  45              		.global	cyBle_authInfo
  46 0012 0000     		.align	2
  47              		.type	cyBle_authInfo, %object
  48              		.size	cyBle_authInfo, 4
  49              	cyBle_authInfo:
  50 0014 10       		.byte	16
  51 0015 01       		.byte	1
  52 0016 10       		.byte	16
  53 0017 00       		.byte	0
ARM GAS  C:\Users\YBOURA~1\AppData\Local\Temp\cc3HigXd.s 			page 2


  54              		.section	.text.CyBle_WriteReqHandler,"ax",%progbits
  55              		.align	2
  56              		.code	16
  57              		.thumb_func
  58              		.type	CyBle_WriteReqHandler, %function
  59              	CyBle_WriteReqHandler:
  60              	.LFB2:
  61              		.file 1 ".\\Generated_Source\\PSoC4\\BLE_eventHandler.c"
   1:.\Generated_Source\PSoC4/BLE_eventHandler.c **** /***************************************************************************//**
   2:.\Generated_Source\PSoC4/BLE_eventHandler.c **** * \file CYBLE_eventHandler.c
   3:.\Generated_Source\PSoC4/BLE_eventHandler.c **** * \version 2.30
   4:.\Generated_Source\PSoC4/BLE_eventHandler.c **** * 
   5:.\Generated_Source\PSoC4/BLE_eventHandler.c **** * \brief
   6:.\Generated_Source\PSoC4/BLE_eventHandler.c **** *  This file contains the source code for the Event Handler State Machine
   7:.\Generated_Source\PSoC4/BLE_eventHandler.c **** *  of the BLE Component.
   8:.\Generated_Source\PSoC4/BLE_eventHandler.c **** * 
   9:.\Generated_Source\PSoC4/BLE_eventHandler.c **** ********************************************************************************
  10:.\Generated_Source\PSoC4/BLE_eventHandler.c **** * \copyright
  11:.\Generated_Source\PSoC4/BLE_eventHandler.c **** * Copyright 2014-2015, Cypress Semiconductor Corporation.  All rights reserved.
  12:.\Generated_Source\PSoC4/BLE_eventHandler.c **** * You may use this file only in accordance with the license, terms, conditions,
  13:.\Generated_Source\PSoC4/BLE_eventHandler.c **** * disclaimers, and limitations in the end user license agreement accompanying
  14:.\Generated_Source\PSoC4/BLE_eventHandler.c **** * the software package with which this file was provided.
  15:.\Generated_Source\PSoC4/BLE_eventHandler.c **** *******************************************************************************/
  16:.\Generated_Source\PSoC4/BLE_eventHandler.c **** 
  17:.\Generated_Source\PSoC4/BLE_eventHandler.c **** #include "BLE_eventHandler.h"
  18:.\Generated_Source\PSoC4/BLE_eventHandler.c **** 
  19:.\Generated_Source\PSoC4/BLE_eventHandler.c **** 
  20:.\Generated_Source\PSoC4/BLE_eventHandler.c **** /***************************************
  21:.\Generated_Source\PSoC4/BLE_eventHandler.c **** * Private Function Prototypes
  22:.\Generated_Source\PSoC4/BLE_eventHandler.c **** ***************************************/
  23:.\Generated_Source\PSoC4/BLE_eventHandler.c **** 
  24:.\Generated_Source\PSoC4/BLE_eventHandler.c **** #if (CYBLE_GATT_ROLE_SERVER || CYBLE_GATT_ROLE_CLIENT)
  25:.\Generated_Source\PSoC4/BLE_eventHandler.c **** 
  26:.\Generated_Source\PSoC4/BLE_eventHandler.c **** static uint8 CyBle_IsDeviceAddressValid(const CYBLE_GAP_BD_ADDR_T *sflashDeviceAddress);
  27:.\Generated_Source\PSoC4/BLE_eventHandler.c **** 
  28:.\Generated_Source\PSoC4/BLE_eventHandler.c **** #endif /* CYBLE_GATT_ROLE_SERVER || CYBLE_GATT_ROLE_CLIENT */
  29:.\Generated_Source\PSoC4/BLE_eventHandler.c **** 
  30:.\Generated_Source\PSoC4/BLE_eventHandler.c **** static void CyBle_GattDisconnectEventHandler(void);
  31:.\Generated_Source\PSoC4/BLE_eventHandler.c **** static void CyBle_TimeOutEventHandler(const CYBLE_TO_REASON_CODE_T *eventParam);
  32:.\Generated_Source\PSoC4/BLE_eventHandler.c **** static void CyBle_GattConnectReqHandler(void);
  33:.\Generated_Source\PSoC4/BLE_eventHandler.c **** static void CyBle_L2Cap_ConnParamUpdateRspEventHandler(uint16 response);
  34:.\Generated_Source\PSoC4/BLE_eventHandler.c **** static void CyBle_GapConnUpdateCompleteEventHandler(const CYBLE_GAP_CONN_PARAM_UPDATED_IN_CONTROLLE
  35:.\Generated_Source\PSoC4/BLE_eventHandler.c **** 
  36:.\Generated_Source\PSoC4/BLE_eventHandler.c **** 
  37:.\Generated_Source\PSoC4/BLE_eventHandler.c **** #if (CYBLE_GATT_ROLE_SERVER)
  38:.\Generated_Source\PSoC4/BLE_eventHandler.c **** 
  39:.\Generated_Source\PSoC4/BLE_eventHandler.c **** static void CyBle_WriteReqHandler(CYBLE_GATTS_WRITE_REQ_PARAM_T *eventParam);
  40:.\Generated_Source\PSoC4/BLE_eventHandler.c **** static void CyBle_ValueConfirmation(const CYBLE_CONN_HANDLE_T *eventParam);
  41:.\Generated_Source\PSoC4/BLE_eventHandler.c **** 
  42:.\Generated_Source\PSoC4/BLE_eventHandler.c **** #endif /* CYBLE_GATT_ROLE_SERVER */
  43:.\Generated_Source\PSoC4/BLE_eventHandler.c **** 
  44:.\Generated_Source\PSoC4/BLE_eventHandler.c **** #if (CYBLE_GATT_ROLE_CLIENT)
  45:.\Generated_Source\PSoC4/BLE_eventHandler.c **** 
  46:.\Generated_Source\PSoC4/BLE_eventHandler.c **** static void CyBle_GapcDiscoverCharacteristicsEventHandler(CYBLE_DISC_CHAR_INFO_T *discCharInfo);
  47:.\Generated_Source\PSoC4/BLE_eventHandler.c **** static CYBLE_GATT_ATTR_HANDLE_RANGE_T CyBle_GetCharRange(void);
  48:.\Generated_Source\PSoC4/BLE_eventHandler.c **** static void CyBle_GattcWriteResponseEventHandler(const CYBLE_CONN_HANDLE_T *eventParam);
  49:.\Generated_Source\PSoC4/BLE_eventHandler.c **** static void CyBle_NotificationEventHandler(CYBLE_GATTC_HANDLE_VALUE_NTF_PARAM_T *eventParam);
ARM GAS  C:\Users\YBOURA~1\AppData\Local\Temp\cc3HigXd.s 			page 3


  50:.\Generated_Source\PSoC4/BLE_eventHandler.c **** static void CyBle_IndicationEventHandler(CYBLE_GATTC_HANDLE_VALUE_IND_PARAM_T *eventParam);
  51:.\Generated_Source\PSoC4/BLE_eventHandler.c **** static void CyBle_ReadResponseEventHandler(CYBLE_GATTC_READ_RSP_PARAM_T *eventParam);
  52:.\Generated_Source\PSoC4/BLE_eventHandler.c **** 
  53:.\Generated_Source\PSoC4/BLE_eventHandler.c **** #endif /* CYBLE_GATT_ROLE_CLIENT */
  54:.\Generated_Source\PSoC4/BLE_eventHandler.c **** 
  55:.\Generated_Source\PSoC4/BLE_eventHandler.c **** 
  56:.\Generated_Source\PSoC4/BLE_eventHandler.c **** /***************************************
  57:.\Generated_Source\PSoC4/BLE_eventHandler.c **** * Global Variables
  58:.\Generated_Source\PSoC4/BLE_eventHandler.c **** ***************************************/
  59:.\Generated_Source\PSoC4/BLE_eventHandler.c **** 
  60:.\Generated_Source\PSoC4/BLE_eventHandler.c **** /* This global variable is initialized after connection with peer device, 
  61:.\Generated_Source\PSoC4/BLE_eventHandler.c ****    after CYBLE_EVT_GATT_CONNECT_IND event, and could be used by application code
  62:.\Generated_Source\PSoC4/BLE_eventHandler.c ****    to send data to peer device. 
  63:.\Generated_Source\PSoC4/BLE_eventHandler.c **** */
  64:.\Generated_Source\PSoC4/BLE_eventHandler.c **** CYBLE_CONN_HANDLE_T cyBle_connHandle;
  65:.\Generated_Source\PSoC4/BLE_eventHandler.c **** 
  66:.\Generated_Source\PSoC4/BLE_eventHandler.c **** volatile uint8 cyBle_eventHandlerFlag;
  67:.\Generated_Source\PSoC4/BLE_eventHandler.c **** volatile uint8 cyBle_busyStatus;
  68:.\Generated_Source\PSoC4/BLE_eventHandler.c **** 
  69:.\Generated_Source\PSoC4/BLE_eventHandler.c **** #if(CYBLE_GAP_ROLE_PERIPHERAL || CYBLE_GAP_ROLE_BROADCASTER) 
  70:.\Generated_Source\PSoC4/BLE_eventHandler.c ****     uint8 cyBle_advertisingIntervalType;
  71:.\Generated_Source\PSoC4/BLE_eventHandler.c **** #endif /* CYBLE_GAP_ROLE_PERIPHERAL || CYBLE_GAP_ROLE_BROADCASTER) */
  72:.\Generated_Source\PSoC4/BLE_eventHandler.c **** 
  73:.\Generated_Source\PSoC4/BLE_eventHandler.c **** #if(CYBLE_GAP_ROLE_CENTRAL || CYBLE_GAP_ROLE_OBSERVER) 
  74:.\Generated_Source\PSoC4/BLE_eventHandler.c ****     uint8 cyBle_scanningIntervalType;
  75:.\Generated_Source\PSoC4/BLE_eventHandler.c **** #endif /* CYBLE_GAP_ROLE_CENTRAL || CYBLE_GAP_ROLE_OBSERVER */
  76:.\Generated_Source\PSoC4/BLE_eventHandler.c **** 
  77:.\Generated_Source\PSoC4/BLE_eventHandler.c **** #if(CYBLE_GATT_ROLE_SERVER)
  78:.\Generated_Source\PSoC4/BLE_eventHandler.c **** #if defined CYBLE_CTS_SERVER || defined CYBLE_ESS_SERVER
  79:.\Generated_Source\PSoC4/BLE_eventHandler.c **** CYBLE_GATT_ERR_CODE_T cyBle_gattError;
  80:.\Generated_Source\PSoC4/BLE_eventHandler.c **** #endif /* defined CYBLE_CTS_SERVER || defined CYBLE_ESS_SERVER */
  81:.\Generated_Source\PSoC4/BLE_eventHandler.c **** #endif /* CYBLE_GATT_ROLE_SERVER */
  82:.\Generated_Source\PSoC4/BLE_eventHandler.c **** 
  83:.\Generated_Source\PSoC4/BLE_eventHandler.c **** #if(CYBLE_GATT_ROLE_CLIENT)
  84:.\Generated_Source\PSoC4/BLE_eventHandler.c **** uint8 cyBle_disCount; /* Counter for discovery procedures */
  85:.\Generated_Source\PSoC4/BLE_eventHandler.c **** static CYBLE_GATT_DB_ATTR_HANDLE_T cyBle_charEndHandle;
  86:.\Generated_Source\PSoC4/BLE_eventHandler.c **** /* Discovery included service information, used for 128-bit UUID read response handle 
  87:.\Generated_Source\PSoC4/BLE_eventHandler.c ****    and for continue discovery. 
  88:.\Generated_Source\PSoC4/BLE_eventHandler.c **** */
  89:.\Generated_Source\PSoC4/BLE_eventHandler.c **** static CYBLE_DISC_INCL_INFO_T cyBle_discInclInfo;
  90:.\Generated_Source\PSoC4/BLE_eventHandler.c **** #ifdef CYBLE_HIDS_CLIENT
  91:.\Generated_Source\PSoC4/BLE_eventHandler.c ****     static uint8 disServiceIndex;      /* To discovery descriptors for multiple HID service instanc
  92:.\Generated_Source\PSoC4/BLE_eventHandler.c **** #endif /* CYBLE_HIDS_CLIENT */
  93:.\Generated_Source\PSoC4/BLE_eventHandler.c **** 
  94:.\Generated_Source\PSoC4/BLE_eventHandler.c **** CYBLE_DISC_SRVC_INFO_T cyBle_serverInfo[CYBLE_SRVI_COUNT] = /*6*/
  95:.\Generated_Source\PSoC4/BLE_eventHandler.c **** {
  96:.\Generated_Source\PSoC4/BLE_eventHandler.c ****     {{CYBLE_GATT_INVALID_ATTR_HANDLE_VALUE, CYBLE_GATT_INVALID_ATTR_HANDLE_VALUE}, CYBLE_UUID_GAP_S
  97:.\Generated_Source\PSoC4/BLE_eventHandler.c ****     {{CYBLE_GATT_INVALID_ATTR_HANDLE_VALUE, CYBLE_GATT_INVALID_ATTR_HANDLE_VALUE}, CYBLE_UUID_GATT_
  98:.\Generated_Source\PSoC4/BLE_eventHandler.c **** #ifdef CYBLE_ANCS_CLIENT
  99:.\Generated_Source\PSoC4/BLE_eventHandler.c ****     {{CYBLE_GATT_INVALID_ATTR_HANDLE_VALUE, CYBLE_GATT_INVALID_ATTR_HANDLE_VALUE}, 0x0000u},
 100:.\Generated_Source\PSoC4/BLE_eventHandler.c **** #endif /* CYBLE_ANCS_CLIENT */
 101:.\Generated_Source\PSoC4/BLE_eventHandler.c **** #ifdef CYBLE_ANS_CLIENT
 102:.\Generated_Source\PSoC4/BLE_eventHandler.c ****     {{CYBLE_GATT_INVALID_ATTR_HANDLE_VALUE, CYBLE_GATT_INVALID_ATTR_HANDLE_VALUE}, 
 103:.\Generated_Source\PSoC4/BLE_eventHandler.c ****         CYBLE_UUID_ALERT_NOTIFICATION_SERVICE},
 104:.\Generated_Source\PSoC4/BLE_eventHandler.c **** #endif /* CYBLE_ANS_CLIENT */
 105:.\Generated_Source\PSoC4/BLE_eventHandler.c **** #ifdef CYBLE_BAS_CLIENT
 106:.\Generated_Source\PSoC4/BLE_eventHandler.c ****     {{CYBLE_GATT_INVALID_ATTR_HANDLE_VALUE, CYBLE_GATT_INVALID_ATTR_HANDLE_VALUE}, CYBLE_UUID_BAS_S
ARM GAS  C:\Users\YBOURA~1\AppData\Local\Temp\cc3HigXd.s 			page 4


 107:.\Generated_Source\PSoC4/BLE_eventHandler.c ****     #if(CYBLE_BASC_SERVICE_COUNT > 1u) /* Generate it by GUI */
 108:.\Generated_Source\PSoC4/BLE_eventHandler.c ****         
 109:.\Generated_Source\PSoC4/BLE_eventHandler.c ****     #endif /* CYBLE_BASC_SERVICE_COUNT > 1u */
 110:.\Generated_Source\PSoC4/BLE_eventHandler.c **** #endif /* CYBLE_BAS_CLIENT */
 111:.\Generated_Source\PSoC4/BLE_eventHandler.c **** #ifdef CYBLE_BCS_CLIENT
 112:.\Generated_Source\PSoC4/BLE_eventHandler.c ****     {{CYBLE_GATT_INVALID_ATTR_HANDLE_VALUE, CYBLE_GATT_INVALID_ATTR_HANDLE_VALUE}, CYBLE_UUID_BODY_
 113:.\Generated_Source\PSoC4/BLE_eventHandler.c **** #endif /* CYBLE_BCS_CLIENT */
 114:.\Generated_Source\PSoC4/BLE_eventHandler.c **** #ifdef CYBLE_BLS_CLIENT
 115:.\Generated_Source\PSoC4/BLE_eventHandler.c ****     {{CYBLE_GATT_INVALID_ATTR_HANDLE_VALUE, CYBLE_GATT_INVALID_ATTR_HANDLE_VALUE}, CYBLE_UUID_BLOOD
 116:.\Generated_Source\PSoC4/BLE_eventHandler.c **** #endif /* CYBLE_BLS_CLIENT */
 117:.\Generated_Source\PSoC4/BLE_eventHandler.c **** #ifdef CYBLE_BMS_CLIENT
 118:.\Generated_Source\PSoC4/BLE_eventHandler.c ****     {{CYBLE_GATT_INVALID_ATTR_HANDLE_VALUE, CYBLE_GATT_INVALID_ATTR_HANDLE_VALUE}, CYBLE_UUID_BOND_
 119:.\Generated_Source\PSoC4/BLE_eventHandler.c **** #endif /* CYBLE_BMS_CLIENT */
 120:.\Generated_Source\PSoC4/BLE_eventHandler.c **** #ifdef CYBLE_CGMS_CLIENT
 121:.\Generated_Source\PSoC4/BLE_eventHandler.c ****     {{CYBLE_GATT_INVALID_ATTR_HANDLE_VALUE, CYBLE_GATT_INVALID_ATTR_HANDLE_VALUE}, CYBLE_UUID_CGM_S
 122:.\Generated_Source\PSoC4/BLE_eventHandler.c **** #endif /* CYBLE_CGMS_CLIENT */
 123:.\Generated_Source\PSoC4/BLE_eventHandler.c **** #ifdef CYBLE_CPS_CLIENT
 124:.\Generated_Source\PSoC4/BLE_eventHandler.c ****     {{CYBLE_GATT_INVALID_ATTR_HANDLE_VALUE, CYBLE_GATT_INVALID_ATTR_HANDLE_VALUE}, CYBLE_UUID_CPS_S
 125:.\Generated_Source\PSoC4/BLE_eventHandler.c **** #endif /* CYBLE_CPS_CLIENT */
 126:.\Generated_Source\PSoC4/BLE_eventHandler.c **** #ifdef CYBLE_CSCS_CLIENT
 127:.\Generated_Source\PSoC4/BLE_eventHandler.c ****     {{CYBLE_GATT_INVALID_ATTR_HANDLE_VALUE, CYBLE_GATT_INVALID_ATTR_HANDLE_VALUE}, 
 128:.\Generated_Source\PSoC4/BLE_eventHandler.c ****         CYBLE_UUID_CYCLING_SPEED_AND_CADENCE_SERVICE},
 129:.\Generated_Source\PSoC4/BLE_eventHandler.c **** #endif /* CYBLE_CSCS_CLIENT */
 130:.\Generated_Source\PSoC4/BLE_eventHandler.c **** #ifdef CYBLE_CTS_CLIENT
 131:.\Generated_Source\PSoC4/BLE_eventHandler.c ****     {{CYBLE_GATT_INVALID_ATTR_HANDLE_VALUE, CYBLE_GATT_INVALID_ATTR_HANDLE_VALUE}, CYBLE_UUID_CURRE
 132:.\Generated_Source\PSoC4/BLE_eventHandler.c **** #endif /* CYBLE_CTS_CLIENT */
 133:.\Generated_Source\PSoC4/BLE_eventHandler.c **** #ifdef CYBLE_CUSTOM_CLIENT
 134:.\Generated_Source\PSoC4/BLE_eventHandler.c ****             {{CYBLE_GATT_INVALID_ATTR_HANDLE_VALUE, CYBLE_GATT_INVALID_ATTR_HANDLE_VALUE}, 0x0000u}
 135:.\Generated_Source\PSoC4/BLE_eventHandler.c **** 
 136:.\Generated_Source\PSoC4/BLE_eventHandler.c **** #endif /* CYBLE_CUSTOM_CLIENT */
 137:.\Generated_Source\PSoC4/BLE_eventHandler.c **** #ifdef CYBLE_DIS_CLIENT
 138:.\Generated_Source\PSoC4/BLE_eventHandler.c ****     {{CYBLE_GATT_INVALID_ATTR_HANDLE_VALUE, CYBLE_GATT_INVALID_ATTR_HANDLE_VALUE}, CYBLE_UUID_DEVIC
 139:.\Generated_Source\PSoC4/BLE_eventHandler.c **** #endif /* CYBLE_DIS_CLIENT */
 140:.\Generated_Source\PSoC4/BLE_eventHandler.c **** #ifdef CYBLE_ESS_CLIENT
 141:.\Generated_Source\PSoC4/BLE_eventHandler.c ****     {{CYBLE_GATT_INVALID_ATTR_HANDLE_VALUE, CYBLE_GATT_INVALID_ATTR_HANDLE_VALUE}, 
 142:.\Generated_Source\PSoC4/BLE_eventHandler.c ****         CYBLE_UUID_ENVIRONMENTAL_SENSING_SERVICE},
 143:.\Generated_Source\PSoC4/BLE_eventHandler.c **** #endif /* CYBLE_ESS_CLIENT */
 144:.\Generated_Source\PSoC4/BLE_eventHandler.c **** #ifdef CYBLE_GLS_CLIENT
 145:.\Generated_Source\PSoC4/BLE_eventHandler.c ****     {{CYBLE_GATT_INVALID_ATTR_HANDLE_VALUE, CYBLE_GATT_INVALID_ATTR_HANDLE_VALUE}, CYBLE_UUID_GLUCO
 146:.\Generated_Source\PSoC4/BLE_eventHandler.c **** #endif /* CYBLE_GLS_CLIENT */
 147:.\Generated_Source\PSoC4/BLE_eventHandler.c **** #ifdef CYBLE_HIDS_CLIENT
 148:.\Generated_Source\PSoC4/BLE_eventHandler.c ****     {{CYBLE_GATT_INVALID_ATTR_HANDLE_VALUE, CYBLE_GATT_INVALID_ATTR_HANDLE_VALUE}, CYBLE_UUID_HIDS_
 149:.\Generated_Source\PSoC4/BLE_eventHandler.c ****     #if(CYBLE_HIDSC_SERVICE_COUNT > 1u) /* Generate it by GUI */
 150:.\Generated_Source\PSoC4/BLE_eventHandler.c ****         
 151:.\Generated_Source\PSoC4/BLE_eventHandler.c ****     #endif /* CYBLE_HIDSC_SERVICE_COUNT > 1u */
 152:.\Generated_Source\PSoC4/BLE_eventHandler.c **** #endif /* CYBLE_HIDS_CLIENT */
 153:.\Generated_Source\PSoC4/BLE_eventHandler.c **** #ifdef CYBLE_HRS_CLIENT
 154:.\Generated_Source\PSoC4/BLE_eventHandler.c ****     {{CYBLE_GATT_INVALID_ATTR_HANDLE_VALUE, CYBLE_GATT_INVALID_ATTR_HANDLE_VALUE}, CYBLE_UUID_HEART
 155:.\Generated_Source\PSoC4/BLE_eventHandler.c **** #endif /* CYBLE_HRS_CLIENT */
 156:.\Generated_Source\PSoC4/BLE_eventHandler.c **** #ifdef CYBLE_HTS_CLIENT
 157:.\Generated_Source\PSoC4/BLE_eventHandler.c ****     {{CYBLE_GATT_INVALID_ATTR_HANDLE_VALUE, CYBLE_GATT_INVALID_ATTR_HANDLE_VALUE}, CYBLE_UUID_HEALT
 158:.\Generated_Source\PSoC4/BLE_eventHandler.c **** #endif /* CYBLE_HTS_CLIENT */
 159:.\Generated_Source\PSoC4/BLE_eventHandler.c **** #ifdef CYBLE_IAS_CLIENT
 160:.\Generated_Source\PSoC4/BLE_eventHandler.c ****     {{CYBLE_GATT_INVALID_ATTR_HANDLE_VALUE, CYBLE_GATT_INVALID_ATTR_HANDLE_VALUE}, CYBLE_UUID_IMMED
 161:.\Generated_Source\PSoC4/BLE_eventHandler.c **** #endif /* CYBLE_IAS_CLIENT */
 162:.\Generated_Source\PSoC4/BLE_eventHandler.c **** #ifdef CYBLE_LLS_CLIENT
 163:.\Generated_Source\PSoC4/BLE_eventHandler.c ****     {{CYBLE_GATT_INVALID_ATTR_HANDLE_VALUE, CYBLE_GATT_INVALID_ATTR_HANDLE_VALUE}, CYBLE_UUID_LINK_
ARM GAS  C:\Users\YBOURA~1\AppData\Local\Temp\cc3HigXd.s 			page 5


 164:.\Generated_Source\PSoC4/BLE_eventHandler.c **** #endif /* CYBLE_LLS_CLIENT */
 165:.\Generated_Source\PSoC4/BLE_eventHandler.c **** #ifdef CYBLE_LNS_CLIENT
 166:.\Generated_Source\PSoC4/BLE_eventHandler.c ****     {{CYBLE_GATT_INVALID_ATTR_HANDLE_VALUE, CYBLE_GATT_INVALID_ATTR_HANDLE_VALUE}, CYBLE_UUID_LOCAT
 167:.\Generated_Source\PSoC4/BLE_eventHandler.c **** #endif /* CYBLE_LNS_CLIENT */
 168:.\Generated_Source\PSoC4/BLE_eventHandler.c **** #ifdef CYBLE_NDCS_CLIENT
 169:.\Generated_Source\PSoC4/BLE_eventHandler.c ****     {{CYBLE_GATT_INVALID_ATTR_HANDLE_VALUE, CYBLE_GATT_INVALID_ATTR_HANDLE_VALUE}, CYBLE_UUID_NEXT_
 170:.\Generated_Source\PSoC4/BLE_eventHandler.c **** #endif /* CYBLE_NDCS_CLIENT */
 171:.\Generated_Source\PSoC4/BLE_eventHandler.c **** #ifdef CYBLE_IPSS_CLIENT
 172:.\Generated_Source\PSoC4/BLE_eventHandler.c ****     {{CYBLE_GATT_INVALID_ATTR_HANDLE_VALUE, CYBLE_GATT_INVALID_ATTR_HANDLE_VALUE}, CYBLE_UUID_INTER
 173:.\Generated_Source\PSoC4/BLE_eventHandler.c **** #endif /* CYBLE_IPSS_CLIENT */
 174:.\Generated_Source\PSoC4/BLE_eventHandler.c **** #ifdef CYBLE_PASS_CLIENT
 175:.\Generated_Source\PSoC4/BLE_eventHandler.c ****     {{CYBLE_GATT_INVALID_ATTR_HANDLE_VALUE, CYBLE_GATT_INVALID_ATTR_HANDLE_VALUE}, CYBLE_UUID_PHONE
 176:.\Generated_Source\PSoC4/BLE_eventHandler.c **** #endif /* CYBLE_PASS_CLIENT */
 177:.\Generated_Source\PSoC4/BLE_eventHandler.c **** #ifdef CYBLE_RSCS_CLIENT
 178:.\Generated_Source\PSoC4/BLE_eventHandler.c ****     {{CYBLE_GATT_INVALID_ATTR_HANDLE_VALUE, CYBLE_GATT_INVALID_ATTR_HANDLE_VALUE}, CYBLE_UUID_RUNNI
 179:.\Generated_Source\PSoC4/BLE_eventHandler.c **** #endif /* CYBLE_RSCS_CLIENT */
 180:.\Generated_Source\PSoC4/BLE_eventHandler.c **** #ifdef CYBLE_RTUS_CLIENT
 181:.\Generated_Source\PSoC4/BLE_eventHandler.c ****     {{CYBLE_GATT_INVALID_ATTR_HANDLE_VALUE, CYBLE_GATT_INVALID_ATTR_HANDLE_VALUE}, CYBLE_UUID_REF_T
 182:.\Generated_Source\PSoC4/BLE_eventHandler.c **** #endif /* CYBLE_RTUS_CLIENT */
 183:.\Generated_Source\PSoC4/BLE_eventHandler.c **** #ifdef CYBLE_SCPS_CLIENT
 184:.\Generated_Source\PSoC4/BLE_eventHandler.c ****     {{CYBLE_GATT_INVALID_ATTR_HANDLE_VALUE, CYBLE_GATT_INVALID_ATTR_HANDLE_VALUE}, CYBLE_UUID_SCAN_
 185:.\Generated_Source\PSoC4/BLE_eventHandler.c **** #endif /* CYBLE_SCPS_CLIENT */
 186:.\Generated_Source\PSoC4/BLE_eventHandler.c **** #ifdef CYBLE_TPS_CLIENT
 187:.\Generated_Source\PSoC4/BLE_eventHandler.c ****     {{CYBLE_GATT_INVALID_ATTR_HANDLE_VALUE, CYBLE_GATT_INVALID_ATTR_HANDLE_VALUE}, CYBLE_UUID_TX_PO
 188:.\Generated_Source\PSoC4/BLE_eventHandler.c **** #endif /* CYBLE_TPS_CLIENT */
 189:.\Generated_Source\PSoC4/BLE_eventHandler.c **** #ifdef CYBLE_UDS_CLIENT
 190:.\Generated_Source\PSoC4/BLE_eventHandler.c ****     {{CYBLE_GATT_INVALID_ATTR_HANDLE_VALUE, CYBLE_GATT_INVALID_ATTR_HANDLE_VALUE}, CYBLE_UUID_USER_
 191:.\Generated_Source\PSoC4/BLE_eventHandler.c **** #endif /* CYBLE_UDS_CLIENT */
 192:.\Generated_Source\PSoC4/BLE_eventHandler.c **** #ifdef CYBLE_WSS_CLIENT
 193:.\Generated_Source\PSoC4/BLE_eventHandler.c ****     {{CYBLE_GATT_INVALID_ATTR_HANDLE_VALUE, CYBLE_GATT_INVALID_ATTR_HANDLE_VALUE}, CYBLE_UUID_WEIGH
 194:.\Generated_Source\PSoC4/BLE_eventHandler.c **** #endif /* CYBLE_WSS_CLIENT */
 195:.\Generated_Source\PSoC4/BLE_eventHandler.c **** #ifdef CYBLE_WPTS_CLIENT
 196:.\Generated_Source\PSoC4/BLE_eventHandler.c ****     {{CYBLE_GATT_INVALID_ATTR_HANDLE_VALUE, CYBLE_GATT_INVALID_ATTR_HANDLE_VALUE}, CYBLE_UUID_WIREL
 197:.\Generated_Source\PSoC4/BLE_eventHandler.c **** #endif /* CYBLE_WPTS_CLIENT */
 198:.\Generated_Source\PSoC4/BLE_eventHandler.c **** };
 199:.\Generated_Source\PSoC4/BLE_eventHandler.c **** 
 200:.\Generated_Source\PSoC4/BLE_eventHandler.c **** CYBLE_GAPC_T cyBle_gapc;
 201:.\Generated_Source\PSoC4/BLE_eventHandler.c **** 
 202:.\Generated_Source\PSoC4/BLE_eventHandler.c **** #endif /* CYBLE_GATT_ROLE_CLIENT */
 203:.\Generated_Source\PSoC4/BLE_eventHandler.c **** 
 204:.\Generated_Source\PSoC4/BLE_eventHandler.c **** /* Default device security */
 205:.\Generated_Source\PSoC4/BLE_eventHandler.c **** CYBLE_GAP_AUTH_INFO_T cyBle_authInfo =
 206:.\Generated_Source\PSoC4/BLE_eventHandler.c **** {
 207:.\Generated_Source\PSoC4/BLE_eventHandler.c ****     (CYBLE_GAP_SEC_MODE_1 | CYBLE_GAP_SEC_LEVEL_1 ), /* uint8 security */
 208:.\Generated_Source\PSoC4/BLE_eventHandler.c ****     CYBLE_GAP_BONDING, /* uint8 bonding */
 209:.\Generated_Source\PSoC4/BLE_eventHandler.c ****     0x10u,      /* uint8 ekeySize */
 210:.\Generated_Source\PSoC4/BLE_eventHandler.c ****     CYBLE_GAP_AUTH_ERROR_NONE, /* CYBLE_AUTH_FAILED_REASON_T authErr */
 211:.\Generated_Source\PSoC4/BLE_eventHandler.c **** };
 212:.\Generated_Source\PSoC4/BLE_eventHandler.c **** 
 213:.\Generated_Source\PSoC4/BLE_eventHandler.c **** #if(CYBLE_GATT_ROLE_SERVER)
 214:.\Generated_Source\PSoC4/BLE_eventHandler.c **** 
 215:.\Generated_Source\PSoC4/BLE_eventHandler.c **** 
 216:.\Generated_Source\PSoC4/BLE_eventHandler.c **** /******************************************************************************    
 217:.\Generated_Source\PSoC4/BLE_eventHandler.c **** * Function Name: CyBle_WriteReqHandler
 218:.\Generated_Source\PSoC4/BLE_eventHandler.c **** ***************************************************************************//**
 219:.\Generated_Source\PSoC4/BLE_eventHandler.c **** * 
 220:.\Generated_Source\PSoC4/BLE_eventHandler.c **** *  Handles the Write Request event from BLE stack.
ARM GAS  C:\Users\YBOURA~1\AppData\Local\Temp\cc3HigXd.s 			page 6


 221:.\Generated_Source\PSoC4/BLE_eventHandler.c **** * 
 222:.\Generated_Source\PSoC4/BLE_eventHandler.c **** *  CYBLE_GATTS_WRITE_REQ_PARAM_T * eventParam - event parameter
 223:.\Generated_Source\PSoC4/BLE_eventHandler.c **** * 
 224:.\Generated_Source\PSoC4/BLE_eventHandler.c **** * \return
 225:.\Generated_Source\PSoC4/BLE_eventHandler.c **** *  None
 226:.\Generated_Source\PSoC4/BLE_eventHandler.c **** * 
 227:.\Generated_Source\PSoC4/BLE_eventHandler.c **** ******************************************************************************/
 228:.\Generated_Source\PSoC4/BLE_eventHandler.c **** static void CyBle_WriteReqHandler(CYBLE_GATTS_WRITE_REQ_PARAM_T *eventParam)
 229:.\Generated_Source\PSoC4/BLE_eventHandler.c **** {
  62              		.loc 1 229 0
  63              		.cfi_startproc
  64 0000 90B5     		push	{r4, r7, lr}
  65              		.cfi_def_cfa_offset 12
  66              		.cfi_offset 4, -12
  67              		.cfi_offset 7, -8
  68              		.cfi_offset 14, -4
  69 0002 85B0     		sub	sp, sp, #20
  70              		.cfi_def_cfa_offset 32
  71 0004 00AF     		add	r7, sp, #0
  72              		.cfi_def_cfa_register 7
  73 0006 7860     		str	r0, [r7, #4]
 230:.\Generated_Source\PSoC4/BLE_eventHandler.c ****     CYBLE_GATT_ERR_CODE_T gattErr;
 231:.\Generated_Source\PSoC4/BLE_eventHandler.c **** #if defined CYBLE_CTS_SERVER || defined CYBLE_ESS_SERVER
 232:.\Generated_Source\PSoC4/BLE_eventHandler.c ****     cyBle_gattError = CYBLE_GATT_ERR_NONE;
 233:.\Generated_Source\PSoC4/BLE_eventHandler.c **** #endif /* defined CYBLE_CTS_SERVER || defined CYBLE_ESS_SERVER */
 234:.\Generated_Source\PSoC4/BLE_eventHandler.c ****     
 235:.\Generated_Source\PSoC4/BLE_eventHandler.c ****     gattErr = CyBle_GattsWriteEventHandler(eventParam);
  74              		.loc 1 235 0
  75 0008 0F23     		mov	r3, #15
  76 000a FC18     		add	r4, r7, r3
  77 000c 7B68     		ldr	r3, [r7, #4]
  78 000e 181C     		mov	r0, r3
  79 0010 FFF7FEFF 		bl	CyBle_GattsWriteEventHandler
  80 0014 031C     		mov	r3, r0
  81 0016 2370     		strb	r3, [r4]
 236:.\Generated_Source\PSoC4/BLE_eventHandler.c **** #ifdef CYBLE_ANCS_SERVER
 237:.\Generated_Source\PSoC4/BLE_eventHandler.c ****     if(((cyBle_eventHandlerFlag & CYBLE_CALLBACK) != 0u) && (gattErr == CYBLE_GATT_ERR_NONE))
 238:.\Generated_Source\PSoC4/BLE_eventHandler.c ****     {
 239:.\Generated_Source\PSoC4/BLE_eventHandler.c ****         gattErr = CyBle_AncssWriteEventHandler(eventParam);
 240:.\Generated_Source\PSoC4/BLE_eventHandler.c ****     }
 241:.\Generated_Source\PSoC4/BLE_eventHandler.c **** #endif /* CYBLE_ANCS_SERVER */
 242:.\Generated_Source\PSoC4/BLE_eventHandler.c **** #ifdef CYBLE_ANS_SERVER
 243:.\Generated_Source\PSoC4/BLE_eventHandler.c ****     if(((cyBle_eventHandlerFlag & CYBLE_CALLBACK) != 0u) && (gattErr == CYBLE_GATT_ERR_NONE))
 244:.\Generated_Source\PSoC4/BLE_eventHandler.c ****     {
 245:.\Generated_Source\PSoC4/BLE_eventHandler.c ****         gattErr = CyBle_AnssWriteEventHandler(eventParam);
 246:.\Generated_Source\PSoC4/BLE_eventHandler.c ****     }
 247:.\Generated_Source\PSoC4/BLE_eventHandler.c **** #endif /* CYBLE_ANS_SERVER */
 248:.\Generated_Source\PSoC4/BLE_eventHandler.c **** #ifdef CYBLE_BAS_SERVER
 249:.\Generated_Source\PSoC4/BLE_eventHandler.c ****     if(((cyBle_eventHandlerFlag & CYBLE_CALLBACK) != 0u) && (gattErr == CYBLE_GATT_ERR_NONE))
 250:.\Generated_Source\PSoC4/BLE_eventHandler.c ****     {
 251:.\Generated_Source\PSoC4/BLE_eventHandler.c ****         gattErr = CyBle_BassWriteEventHandler(eventParam);
 252:.\Generated_Source\PSoC4/BLE_eventHandler.c ****     }
 253:.\Generated_Source\PSoC4/BLE_eventHandler.c **** #endif /* CYBLE_BAS_SERVER */
 254:.\Generated_Source\PSoC4/BLE_eventHandler.c **** #ifdef CYBLE_BCS_SERVER
 255:.\Generated_Source\PSoC4/BLE_eventHandler.c ****     if(((cyBle_eventHandlerFlag & CYBLE_CALLBACK) != 0u) && (gattErr == CYBLE_GATT_ERR_NONE))
 256:.\Generated_Source\PSoC4/BLE_eventHandler.c ****     {
 257:.\Generated_Source\PSoC4/BLE_eventHandler.c ****         gattErr = CyBle_BcssWriteEventHandler(eventParam);
ARM GAS  C:\Users\YBOURA~1\AppData\Local\Temp\cc3HigXd.s 			page 7


 258:.\Generated_Source\PSoC4/BLE_eventHandler.c ****     }
 259:.\Generated_Source\PSoC4/BLE_eventHandler.c **** #endif /* CYBLE_BCS_SERVER */
 260:.\Generated_Source\PSoC4/BLE_eventHandler.c **** #ifdef CYBLE_BLS_SERVER
 261:.\Generated_Source\PSoC4/BLE_eventHandler.c ****     if(((cyBle_eventHandlerFlag & CYBLE_CALLBACK) != 0u) && (gattErr == CYBLE_GATT_ERR_NONE))
 262:.\Generated_Source\PSoC4/BLE_eventHandler.c ****     {
 263:.\Generated_Source\PSoC4/BLE_eventHandler.c ****         gattErr = CyBle_BlssWriteEventHandler(eventParam);
 264:.\Generated_Source\PSoC4/BLE_eventHandler.c ****     }
 265:.\Generated_Source\PSoC4/BLE_eventHandler.c **** #endif /* CYBLE_BLS_SERVER */
 266:.\Generated_Source\PSoC4/BLE_eventHandler.c **** #ifdef CYBLE_BMS_SERVER
 267:.\Generated_Source\PSoC4/BLE_eventHandler.c ****     if(((cyBle_eventHandlerFlag & CYBLE_CALLBACK) != 0u) && (gattErr == CYBLE_GATT_ERR_NONE))
 268:.\Generated_Source\PSoC4/BLE_eventHandler.c ****     {
 269:.\Generated_Source\PSoC4/BLE_eventHandler.c ****         gattErr = CyBle_BmssWriteEventHandler(eventParam);
 270:.\Generated_Source\PSoC4/BLE_eventHandler.c ****     }
 271:.\Generated_Source\PSoC4/BLE_eventHandler.c **** #endif /* CYBLE_BMS_SERVER */
 272:.\Generated_Source\PSoC4/BLE_eventHandler.c **** #ifdef CYBLE_BTS_SERVER
 273:.\Generated_Source\PSoC4/BLE_eventHandler.c ****     if((cyBle_eventHandlerFlag & CYBLE_CALLBACK) != 0u)
 274:.\Generated_Source\PSoC4/BLE_eventHandler.c ****     {
 275:.\Generated_Source\PSoC4/BLE_eventHandler.c ****         gattErr = CyBle_BtsWriteEventHandler(eventParam);
 276:.\Generated_Source\PSoC4/BLE_eventHandler.c ****     }
 277:.\Generated_Source\PSoC4/BLE_eventHandler.c **** #endif /* CYBLE_BTS_SERVER */
 278:.\Generated_Source\PSoC4/BLE_eventHandler.c **** #ifdef CYBLE_CGMS_SERVER
 279:.\Generated_Source\PSoC4/BLE_eventHandler.c ****     if(((cyBle_eventHandlerFlag & CYBLE_CALLBACK) != 0u) && (gattErr == CYBLE_GATT_ERR_NONE))
 280:.\Generated_Source\PSoC4/BLE_eventHandler.c ****     {
 281:.\Generated_Source\PSoC4/BLE_eventHandler.c ****         gattErr = CyBle_CgmssWriteEventHandler(eventParam);
 282:.\Generated_Source\PSoC4/BLE_eventHandler.c ****     }
 283:.\Generated_Source\PSoC4/BLE_eventHandler.c **** #endif /* CYBLE_CGMS_SERVER */
 284:.\Generated_Source\PSoC4/BLE_eventHandler.c **** #ifdef CYBLE_CPS_SERVER
 285:.\Generated_Source\PSoC4/BLE_eventHandler.c ****     if(((cyBle_eventHandlerFlag & CYBLE_CALLBACK) != 0u) && (gattErr == CYBLE_GATT_ERR_NONE))
 286:.\Generated_Source\PSoC4/BLE_eventHandler.c ****     {
 287:.\Generated_Source\PSoC4/BLE_eventHandler.c ****         gattErr = CyBle_CpssWriteEventHandler(eventParam);
 288:.\Generated_Source\PSoC4/BLE_eventHandler.c ****     }
 289:.\Generated_Source\PSoC4/BLE_eventHandler.c **** #endif /* CYBLE_CPS_SERVER */
 290:.\Generated_Source\PSoC4/BLE_eventHandler.c **** #ifdef CYBLE_CSCS_SERVER
 291:.\Generated_Source\PSoC4/BLE_eventHandler.c ****     if(((cyBle_eventHandlerFlag & CYBLE_CALLBACK) != 0u) && (gattErr == CYBLE_GATT_ERR_NONE))
 292:.\Generated_Source\PSoC4/BLE_eventHandler.c ****     {
 293:.\Generated_Source\PSoC4/BLE_eventHandler.c ****         gattErr = CyBle_CscssWriteEventHandler(eventParam);
 294:.\Generated_Source\PSoC4/BLE_eventHandler.c ****     }
 295:.\Generated_Source\PSoC4/BLE_eventHandler.c **** #endif /* CYBLE_CSCS_SERVER */
 296:.\Generated_Source\PSoC4/BLE_eventHandler.c **** #ifdef CYBLE_CTS_SERVER
 297:.\Generated_Source\PSoC4/BLE_eventHandler.c ****     if(((cyBle_eventHandlerFlag & CYBLE_CALLBACK) != 0u) && (gattErr == CYBLE_GATT_ERR_NONE))
 298:.\Generated_Source\PSoC4/BLE_eventHandler.c ****     {
 299:.\Generated_Source\PSoC4/BLE_eventHandler.c ****         gattErr = CyBle_CtssWriteEventHandler(eventParam);
 300:.\Generated_Source\PSoC4/BLE_eventHandler.c ****     }
 301:.\Generated_Source\PSoC4/BLE_eventHandler.c **** #endif /* CYBLE_CTS_SERVER */
 302:.\Generated_Source\PSoC4/BLE_eventHandler.c **** #ifdef CYBLE_ESS_SERVER
 303:.\Generated_Source\PSoC4/BLE_eventHandler.c ****     if(((cyBle_eventHandlerFlag & CYBLE_CALLBACK) != 0u) && (gattErr == CYBLE_GATT_ERR_NONE))
 304:.\Generated_Source\PSoC4/BLE_eventHandler.c ****     {
 305:.\Generated_Source\PSoC4/BLE_eventHandler.c ****         gattErr = CyBle_EsssWriteEventHandler(eventParam);
 306:.\Generated_Source\PSoC4/BLE_eventHandler.c ****     }
 307:.\Generated_Source\PSoC4/BLE_eventHandler.c **** #endif /* CYBLE_ESS_SERVER */
 308:.\Generated_Source\PSoC4/BLE_eventHandler.c **** #ifdef CYBLE_GLS_SERVER
 309:.\Generated_Source\PSoC4/BLE_eventHandler.c ****     if(((cyBle_eventHandlerFlag & CYBLE_CALLBACK) != 0u) && (gattErr == CYBLE_GATT_ERR_NONE))
 310:.\Generated_Source\PSoC4/BLE_eventHandler.c ****     {
 311:.\Generated_Source\PSoC4/BLE_eventHandler.c ****         gattErr = CyBle_GlssWriteEventHandler(eventParam);
 312:.\Generated_Source\PSoC4/BLE_eventHandler.c ****     }
 313:.\Generated_Source\PSoC4/BLE_eventHandler.c **** #endif /* CYBLE_GLS_SERVER */
 314:.\Generated_Source\PSoC4/BLE_eventHandler.c **** #ifdef CYBLE_HIDS_SERVER
ARM GAS  C:\Users\YBOURA~1\AppData\Local\Temp\cc3HigXd.s 			page 8


 315:.\Generated_Source\PSoC4/BLE_eventHandler.c ****     if(((cyBle_eventHandlerFlag & CYBLE_CALLBACK) != 0u) && (gattErr == CYBLE_GATT_ERR_NONE))
 316:.\Generated_Source\PSoC4/BLE_eventHandler.c ****     {
 317:.\Generated_Source\PSoC4/BLE_eventHandler.c ****         gattErr = CyBle_HidssWriteEventHandler(eventParam);
 318:.\Generated_Source\PSoC4/BLE_eventHandler.c ****     }
 319:.\Generated_Source\PSoC4/BLE_eventHandler.c **** #endif /* CYBLE_HIDS_SERVER */
 320:.\Generated_Source\PSoC4/BLE_eventHandler.c **** #ifdef CYBLE_HRS_SERVER
 321:.\Generated_Source\PSoC4/BLE_eventHandler.c ****     if(((cyBle_eventHandlerFlag & CYBLE_CALLBACK) != 0u) && (gattErr == CYBLE_GATT_ERR_NONE))
 322:.\Generated_Source\PSoC4/BLE_eventHandler.c ****     {
 323:.\Generated_Source\PSoC4/BLE_eventHandler.c ****         gattErr = CyBle_HrssWriteEventHandler(eventParam);
 324:.\Generated_Source\PSoC4/BLE_eventHandler.c ****     }
 325:.\Generated_Source\PSoC4/BLE_eventHandler.c **** #endif /* CYBLE_HRS_SERVER */
 326:.\Generated_Source\PSoC4/BLE_eventHandler.c **** #ifdef CYBLE_HTS_SERVER
 327:.\Generated_Source\PSoC4/BLE_eventHandler.c ****     if(((cyBle_eventHandlerFlag & CYBLE_CALLBACK) != 0u) && (gattErr == CYBLE_GATT_ERR_NONE))
 328:.\Generated_Source\PSoC4/BLE_eventHandler.c ****     {
 329:.\Generated_Source\PSoC4/BLE_eventHandler.c ****         gattErr = CyBle_HtssWriteEventHandler(eventParam);
 330:.\Generated_Source\PSoC4/BLE_eventHandler.c ****     }
 331:.\Generated_Source\PSoC4/BLE_eventHandler.c **** #endif /* CYBLE_HTS_SERVER */
 332:.\Generated_Source\PSoC4/BLE_eventHandler.c **** #ifdef CYBLE_LLS_SERVER
 333:.\Generated_Source\PSoC4/BLE_eventHandler.c ****     if(((cyBle_eventHandlerFlag & CYBLE_CALLBACK) != 0u) && (gattErr == CYBLE_GATT_ERR_NONE))
 334:.\Generated_Source\PSoC4/BLE_eventHandler.c ****     {
 335:.\Generated_Source\PSoC4/BLE_eventHandler.c ****         gattErr = CyBle_LlssWriteEventHandler(eventParam);
 336:.\Generated_Source\PSoC4/BLE_eventHandler.c ****     }
 337:.\Generated_Source\PSoC4/BLE_eventHandler.c **** #endif /* CYBLE_LLS_SERVER */
 338:.\Generated_Source\PSoC4/BLE_eventHandler.c **** #ifdef CYBLE_LNS_SERVER
 339:.\Generated_Source\PSoC4/BLE_eventHandler.c ****     if(((cyBle_eventHandlerFlag & CYBLE_CALLBACK) != 0u) && (gattErr == CYBLE_GATT_ERR_NONE))
 340:.\Generated_Source\PSoC4/BLE_eventHandler.c ****     {
 341:.\Generated_Source\PSoC4/BLE_eventHandler.c ****         gattErr = CyBle_LnssWriteEventHandler(eventParam);
 342:.\Generated_Source\PSoC4/BLE_eventHandler.c ****     }
 343:.\Generated_Source\PSoC4/BLE_eventHandler.c **** #endif /* CYBLE_LNS_SERVER */
 344:.\Generated_Source\PSoC4/BLE_eventHandler.c **** #ifdef CYBLE_PASS_SERVER
 345:.\Generated_Source\PSoC4/BLE_eventHandler.c ****     if(((cyBle_eventHandlerFlag & CYBLE_CALLBACK) != 0u) && (gattErr == CYBLE_GATT_ERR_NONE))
 346:.\Generated_Source\PSoC4/BLE_eventHandler.c ****     {
 347:.\Generated_Source\PSoC4/BLE_eventHandler.c ****         gattErr = CyBle_PasssWriteEventHandler(eventParam);
 348:.\Generated_Source\PSoC4/BLE_eventHandler.c ****     }
 349:.\Generated_Source\PSoC4/BLE_eventHandler.c **** #endif /* CYBLE_PASS_SERVER */
 350:.\Generated_Source\PSoC4/BLE_eventHandler.c **** #ifdef CYBLE_RSCS_SERVER
 351:.\Generated_Source\PSoC4/BLE_eventHandler.c ****     if(((cyBle_eventHandlerFlag & CYBLE_CALLBACK) != 0u) && (gattErr == CYBLE_GATT_ERR_NONE))
 352:.\Generated_Source\PSoC4/BLE_eventHandler.c ****     {
 353:.\Generated_Source\PSoC4/BLE_eventHandler.c ****         gattErr = CyBle_RscssWriteEventHandler(eventParam);
 354:.\Generated_Source\PSoC4/BLE_eventHandler.c ****     }
 355:.\Generated_Source\PSoC4/BLE_eventHandler.c **** #endif /* CYBLE_RSCS_SERVER */
 356:.\Generated_Source\PSoC4/BLE_eventHandler.c **** #ifdef CYBLE_SCPS_SERVER
 357:.\Generated_Source\PSoC4/BLE_eventHandler.c ****     if(((cyBle_eventHandlerFlag & CYBLE_CALLBACK) != 0u) && (gattErr == CYBLE_GATT_ERR_NONE))
 358:.\Generated_Source\PSoC4/BLE_eventHandler.c ****     {
 359:.\Generated_Source\PSoC4/BLE_eventHandler.c ****         gattErr = CyBle_ScpssWriteEventHandler(eventParam);
 360:.\Generated_Source\PSoC4/BLE_eventHandler.c ****     }
 361:.\Generated_Source\PSoC4/BLE_eventHandler.c **** #endif /* CYBLE_SCPS_SERVER */
 362:.\Generated_Source\PSoC4/BLE_eventHandler.c **** #ifdef CYBLE_TPS_SERVER
 363:.\Generated_Source\PSoC4/BLE_eventHandler.c ****     if(((cyBle_eventHandlerFlag & CYBLE_CALLBACK) != 0u) && (gattErr == CYBLE_GATT_ERR_NONE))
 364:.\Generated_Source\PSoC4/BLE_eventHandler.c ****     {
 365:.\Generated_Source\PSoC4/BLE_eventHandler.c ****         gattErr = CyBle_TpssWriteEventHandler(eventParam);
 366:.\Generated_Source\PSoC4/BLE_eventHandler.c ****     }
 367:.\Generated_Source\PSoC4/BLE_eventHandler.c **** #endif /* CYBLE_TPS_SERVER */
 368:.\Generated_Source\PSoC4/BLE_eventHandler.c **** #ifdef CYBLE_UDS_SERVER
 369:.\Generated_Source\PSoC4/BLE_eventHandler.c ****     if(((cyBle_eventHandlerFlag & CYBLE_CALLBACK) != 0u) && (gattErr == CYBLE_GATT_ERR_NONE))
 370:.\Generated_Source\PSoC4/BLE_eventHandler.c ****     {
 371:.\Generated_Source\PSoC4/BLE_eventHandler.c ****         gattErr = CyBle_UdssWriteEventHandler(eventParam);
ARM GAS  C:\Users\YBOURA~1\AppData\Local\Temp\cc3HigXd.s 			page 9


 372:.\Generated_Source\PSoC4/BLE_eventHandler.c ****     }
 373:.\Generated_Source\PSoC4/BLE_eventHandler.c **** #endif /* CYBLE_UDS_SERVER */
 374:.\Generated_Source\PSoC4/BLE_eventHandler.c **** #ifdef CYBLE_WPTS_SERVER
 375:.\Generated_Source\PSoC4/BLE_eventHandler.c ****     if(((cyBle_eventHandlerFlag & CYBLE_CALLBACK) != 0u) && (gattErr == CYBLE_GATT_ERR_NONE))
 376:.\Generated_Source\PSoC4/BLE_eventHandler.c ****     {
 377:.\Generated_Source\PSoC4/BLE_eventHandler.c ****         gattErr = CyBle_WptssWriteEventHandler(eventParam);
 378:.\Generated_Source\PSoC4/BLE_eventHandler.c ****     }
 379:.\Generated_Source\PSoC4/BLE_eventHandler.c **** #endif /* CYBLE_WPTS_SERVER */
 380:.\Generated_Source\PSoC4/BLE_eventHandler.c **** #ifdef CYBLE_WSS_SERVER
 381:.\Generated_Source\PSoC4/BLE_eventHandler.c ****     if(((cyBle_eventHandlerFlag & CYBLE_CALLBACK) != 0u) && (gattErr == CYBLE_GATT_ERR_NONE))
 382:.\Generated_Source\PSoC4/BLE_eventHandler.c ****     {
 383:.\Generated_Source\PSoC4/BLE_eventHandler.c ****         gattErr = CyBle_WsssWriteEventHandler(eventParam);
 384:.\Generated_Source\PSoC4/BLE_eventHandler.c ****     }
 385:.\Generated_Source\PSoC4/BLE_eventHandler.c **** #endif /* CYBLE_WSS_SERVER */
 386:.\Generated_Source\PSoC4/BLE_eventHandler.c **** 
 387:.\Generated_Source\PSoC4/BLE_eventHandler.c ****     /* Send response when event was handled by service */
 388:.\Generated_Source\PSoC4/BLE_eventHandler.c ****     if((cyBle_eventHandlerFlag & CYBLE_CALLBACK) == 0u)
  82              		.loc 1 388 0
  83 0018 144B     		ldr	r3, .L4
  84 001a 1B78     		ldrb	r3, [r3]
  85 001c DBB2     		uxtb	r3, r3
  86 001e 1A1C     		mov	r2, r3
  87 0020 0123     		mov	r3, #1
  88 0022 1340     		and	r3, r2
  89 0024 1FD1     		bne	.L1
 389:.\Generated_Source\PSoC4/BLE_eventHandler.c ****     {
 390:.\Generated_Source\PSoC4/BLE_eventHandler.c ****         if(gattErr != CYBLE_GATT_ERR_NONE)
  90              		.loc 1 390 0
  91 0026 0F23     		mov	r3, #15
  92 0028 FB18     		add	r3, r7, r3
  93 002a 1B78     		ldrb	r3, [r3]
  94 002c 002B     		cmp	r3, #0
  95 002e 16D0     		beq	.L3
  96              	.LBB2:
 391:.\Generated_Source\PSoC4/BLE_eventHandler.c ****         {
 392:.\Generated_Source\PSoC4/BLE_eventHandler.c ****             CYBLE_GATTS_ERR_PARAM_T err_param;
 393:.\Generated_Source\PSoC4/BLE_eventHandler.c ****             
 394:.\Generated_Source\PSoC4/BLE_eventHandler.c ****             err_param.opcode = (uint8) CYBLE_GATT_WRITE_REQ;
  97              		.loc 1 394 0
  98 0030 0823     		mov	r3, #8
  99 0032 FB18     		add	r3, r7, r3
 100 0034 1222     		mov	r2, #18
 101 0036 9A70     		strb	r2, [r3, #2]
 395:.\Generated_Source\PSoC4/BLE_eventHandler.c ****             err_param.attrHandle = eventParam->handleValPair.attrHandle;
 102              		.loc 1 395 0
 103 0038 7B68     		ldr	r3, [r7, #4]
 104 003a 9A89     		ldrh	r2, [r3, #12]
 105 003c 0823     		mov	r3, #8
 106 003e FB18     		add	r3, r7, r3
 107 0040 1A80     		strh	r2, [r3]
 396:.\Generated_Source\PSoC4/BLE_eventHandler.c ****             err_param.errorCode = gattErr;
 108              		.loc 1 396 0
 109 0042 0823     		mov	r3, #8
 110 0044 FB18     		add	r3, r7, r3
 111 0046 0F22     		mov	r2, #15
 112 0048 BA18     		add	r2, r7, r2
 113 004a 1278     		ldrb	r2, [r2]
ARM GAS  C:\Users\YBOURA~1\AppData\Local\Temp\cc3HigXd.s 			page 10


 114 004c DA70     		strb	r2, [r3, #3]
 397:.\Generated_Source\PSoC4/BLE_eventHandler.c **** 
 398:.\Generated_Source\PSoC4/BLE_eventHandler.c ****             /* Send Error Response */
 399:.\Generated_Source\PSoC4/BLE_eventHandler.c ****             (void)CyBle_GattsErrorRsp(eventParam->connHandle, &err_param);
 115              		.loc 1 399 0
 116 004e 7B68     		ldr	r3, [r7, #4]
 117 0050 0822     		mov	r2, #8
 118 0052 BA18     		add	r2, r7, r2
 119 0054 1868     		ldr	r0, [r3]
 120 0056 111C     		mov	r1, r2
 121 0058 FFF7FEFF 		bl	CyBle_GattsErrorRsp
 122              	.LBE2:
 123 005c 03E0     		b	.L1
 124              	.L3:
 400:.\Generated_Source\PSoC4/BLE_eventHandler.c ****         }
 401:.\Generated_Source\PSoC4/BLE_eventHandler.c ****         else
 402:.\Generated_Source\PSoC4/BLE_eventHandler.c ****         {
 403:.\Generated_Source\PSoC4/BLE_eventHandler.c ****             (void)CyBle_GattsWriteRsp(eventParam->connHandle);
 125              		.loc 1 403 0
 126 005e 7B68     		ldr	r3, [r7, #4]
 127 0060 1868     		ldr	r0, [r3]
 128 0062 FFF7FEFF 		bl	CyBle_GattsWriteRsp
 129              	.L1:
 404:.\Generated_Source\PSoC4/BLE_eventHandler.c ****         }
 405:.\Generated_Source\PSoC4/BLE_eventHandler.c ****     }
 406:.\Generated_Source\PSoC4/BLE_eventHandler.c **** }
 130              		.loc 1 406 0
 131 0066 BD46     		mov	sp, r7
 132 0068 05B0     		add	sp, sp, #20
 133              		@ sp needed
 134 006a 90BD     		pop	{r4, r7, pc}
 135              	.L5:
 136              		.align	2
 137              	.L4:
 138 006c 00000000 		.word	cyBle_eventHandlerFlag
 139              		.cfi_endproc
 140              	.LFE2:
 141              		.size	CyBle_WriteReqHandler, .-CyBle_WriteReqHandler
 142              		.section	.text.CyBle_ValueConfirmation,"ax",%progbits
 143              		.align	2
 144              		.code	16
 145              		.thumb_func
 146              		.type	CyBle_ValueConfirmation, %function
 147              	CyBle_ValueConfirmation:
 148              	.LFB3:
 407:.\Generated_Source\PSoC4/BLE_eventHandler.c **** 
 408:.\Generated_Source\PSoC4/BLE_eventHandler.c **** 
 409:.\Generated_Source\PSoC4/BLE_eventHandler.c **** /****************************************************************************** 
 410:.\Generated_Source\PSoC4/BLE_eventHandler.c **** * Function Name: CyBle_ValueConfirmation
 411:.\Generated_Source\PSoC4/BLE_eventHandler.c **** ***************************************************************************//**
 412:.\Generated_Source\PSoC4/BLE_eventHandler.c **** * 
 413:.\Generated_Source\PSoC4/BLE_eventHandler.c **** *  Handles the Value Confirmation request event from the BLE stack.
 414:.\Generated_Source\PSoC4/BLE_eventHandler.c **** * 
 415:.\Generated_Source\PSoC4/BLE_eventHandler.c **** *  \param eventParam: Pointer to a structure of type 'CYBLE_CONN_HANDLE_T'
 416:.\Generated_Source\PSoC4/BLE_eventHandler.c **** * 
 417:.\Generated_Source\PSoC4/BLE_eventHandler.c **** * \return
 418:.\Generated_Source\PSoC4/BLE_eventHandler.c **** *  None
ARM GAS  C:\Users\YBOURA~1\AppData\Local\Temp\cc3HigXd.s 			page 11


 419:.\Generated_Source\PSoC4/BLE_eventHandler.c **** * 
 420:.\Generated_Source\PSoC4/BLE_eventHandler.c **** ******************************************************************************/
 421:.\Generated_Source\PSoC4/BLE_eventHandler.c **** static void CyBle_ValueConfirmation(const CYBLE_CONN_HANDLE_T *eventParam)
 422:.\Generated_Source\PSoC4/BLE_eventHandler.c **** {
 149              		.loc 1 422 0
 150              		.cfi_startproc
 151 0000 80B5     		push	{r7, lr}
 152              		.cfi_def_cfa_offset 8
 153              		.cfi_offset 7, -8
 154              		.cfi_offset 14, -4
 155 0002 82B0     		sub	sp, sp, #8
 156              		.cfi_def_cfa_offset 16
 157 0004 00AF     		add	r7, sp, #0
 158              		.cfi_def_cfa_register 7
 159 0006 7860     		str	r0, [r7, #4]
 423:.\Generated_Source\PSoC4/BLE_eventHandler.c ****     if(eventParam != NULL)
 424:.\Generated_Source\PSoC4/BLE_eventHandler.c ****     {
 425:.\Generated_Source\PSoC4/BLE_eventHandler.c ****     #ifdef CYBLE_BCS_SERVER
 426:.\Generated_Source\PSoC4/BLE_eventHandler.c ****         CyBle_BcssConfirmationEventHandler(eventParam);
 427:.\Generated_Source\PSoC4/BLE_eventHandler.c ****     #endif /* CYBLE_BCS_SERVER */
 428:.\Generated_Source\PSoC4/BLE_eventHandler.c ****     #ifdef CYBLE_BLS_SERVER
 429:.\Generated_Source\PSoC4/BLE_eventHandler.c ****         if((cyBle_eventHandlerFlag & CYBLE_CALLBACK) != 0u)
 430:.\Generated_Source\PSoC4/BLE_eventHandler.c ****         {
 431:.\Generated_Source\PSoC4/BLE_eventHandler.c ****             CyBle_BlssConfirmationEventHandler(eventParam);
 432:.\Generated_Source\PSoC4/BLE_eventHandler.c ****         }
 433:.\Generated_Source\PSoC4/BLE_eventHandler.c ****     #endif /* CYBLE_BLS_SERVER */
 434:.\Generated_Source\PSoC4/BLE_eventHandler.c ****     
 435:.\Generated_Source\PSoC4/BLE_eventHandler.c ****     #ifdef CYBLE_CGMS_SERVER
 436:.\Generated_Source\PSoC4/BLE_eventHandler.c ****         if((cyBle_eventHandlerFlag & CYBLE_CALLBACK) != 0u)
 437:.\Generated_Source\PSoC4/BLE_eventHandler.c ****         {
 438:.\Generated_Source\PSoC4/BLE_eventHandler.c ****             CyBle_CgmssConfirmationEventHandler(eventParam);
 439:.\Generated_Source\PSoC4/BLE_eventHandler.c ****         }
 440:.\Generated_Source\PSoC4/BLE_eventHandler.c ****     #endif /* CYBLE_CGMS_SERVER */
 441:.\Generated_Source\PSoC4/BLE_eventHandler.c ****     
 442:.\Generated_Source\PSoC4/BLE_eventHandler.c ****     #ifdef CYBLE_CPS_SERVER
 443:.\Generated_Source\PSoC4/BLE_eventHandler.c ****         if((cyBle_eventHandlerFlag & CYBLE_CALLBACK) != 0u)
 444:.\Generated_Source\PSoC4/BLE_eventHandler.c ****         {
 445:.\Generated_Source\PSoC4/BLE_eventHandler.c ****             CyBle_CpssConfirmationEventHandler(eventParam);
 446:.\Generated_Source\PSoC4/BLE_eventHandler.c ****         }
 447:.\Generated_Source\PSoC4/BLE_eventHandler.c ****     #endif /* CYBLE_CPS_SERVER */
 448:.\Generated_Source\PSoC4/BLE_eventHandler.c ****     
 449:.\Generated_Source\PSoC4/BLE_eventHandler.c ****     #ifdef CYBLE_CSCS_SERVER
 450:.\Generated_Source\PSoC4/BLE_eventHandler.c ****         if((cyBle_eventHandlerFlag & CYBLE_CALLBACK) != 0u)
 451:.\Generated_Source\PSoC4/BLE_eventHandler.c ****         {
 452:.\Generated_Source\PSoC4/BLE_eventHandler.c ****             CyBle_CscssConfirmationEventHandler(eventParam);
 453:.\Generated_Source\PSoC4/BLE_eventHandler.c ****         }
 454:.\Generated_Source\PSoC4/BLE_eventHandler.c ****     #endif /* CYBLE_CSCS_SERVER */
 455:.\Generated_Source\PSoC4/BLE_eventHandler.c ****     
 456:.\Generated_Source\PSoC4/BLE_eventHandler.c ****     #ifdef CYBLE_ESS_SERVER
 457:.\Generated_Source\PSoC4/BLE_eventHandler.c ****         if((cyBle_eventHandlerFlag & CYBLE_CALLBACK) != 0u)
 458:.\Generated_Source\PSoC4/BLE_eventHandler.c ****         {
 459:.\Generated_Source\PSoC4/BLE_eventHandler.c ****             CyBle_EsssConfirmationEventHandler(eventParam);
 460:.\Generated_Source\PSoC4/BLE_eventHandler.c ****         }
 461:.\Generated_Source\PSoC4/BLE_eventHandler.c ****     #endif /* CYBLE_ESS_SERVER */
 462:.\Generated_Source\PSoC4/BLE_eventHandler.c ****     
 463:.\Generated_Source\PSoC4/BLE_eventHandler.c ****     #ifdef CYBLE_GLS_SERVER
 464:.\Generated_Source\PSoC4/BLE_eventHandler.c ****         if((cyBle_eventHandlerFlag & CYBLE_CALLBACK) != 0u)
ARM GAS  C:\Users\YBOURA~1\AppData\Local\Temp\cc3HigXd.s 			page 12


 465:.\Generated_Source\PSoC4/BLE_eventHandler.c ****         {
 466:.\Generated_Source\PSoC4/BLE_eventHandler.c ****             CyBle_GlssConfirmationEventHandler(eventParam);
 467:.\Generated_Source\PSoC4/BLE_eventHandler.c ****         }
 468:.\Generated_Source\PSoC4/BLE_eventHandler.c ****     #endif /* CYBLE_GLS_SERVER */
 469:.\Generated_Source\PSoC4/BLE_eventHandler.c ****     
 470:.\Generated_Source\PSoC4/BLE_eventHandler.c ****     #ifdef CYBLE_HTS_SERVER
 471:.\Generated_Source\PSoC4/BLE_eventHandler.c ****         if((cyBle_eventHandlerFlag & CYBLE_CALLBACK) != 0u)
 472:.\Generated_Source\PSoC4/BLE_eventHandler.c ****         {
 473:.\Generated_Source\PSoC4/BLE_eventHandler.c ****             CyBle_HtssConfirmationEventHandler(eventParam);
 474:.\Generated_Source\PSoC4/BLE_eventHandler.c ****         }
 475:.\Generated_Source\PSoC4/BLE_eventHandler.c ****     #endif /* CYBLE_HTS_SERVER */
 476:.\Generated_Source\PSoC4/BLE_eventHandler.c **** 
 477:.\Generated_Source\PSoC4/BLE_eventHandler.c ****     #ifdef CYBLE_LNS_SERVER
 478:.\Generated_Source\PSoC4/BLE_eventHandler.c ****         if((cyBle_eventHandlerFlag & CYBLE_CALLBACK) != 0u)
 479:.\Generated_Source\PSoC4/BLE_eventHandler.c ****         {
 480:.\Generated_Source\PSoC4/BLE_eventHandler.c ****             CyBle_LnssConfirmationEventHandler(eventParam);
 481:.\Generated_Source\PSoC4/BLE_eventHandler.c ****         }
 482:.\Generated_Source\PSoC4/BLE_eventHandler.c ****     #endif /* CYBLE_LNS_SERVER */
 483:.\Generated_Source\PSoC4/BLE_eventHandler.c ****     
 484:.\Generated_Source\PSoC4/BLE_eventHandler.c ****     #ifdef CYBLE_RSCS_SERVER
 485:.\Generated_Source\PSoC4/BLE_eventHandler.c ****         if((cyBle_eventHandlerFlag & CYBLE_CALLBACK) != 0u)
 486:.\Generated_Source\PSoC4/BLE_eventHandler.c ****         {
 487:.\Generated_Source\PSoC4/BLE_eventHandler.c ****             CyBle_RscssConfirmationEventHandler(eventParam);
 488:.\Generated_Source\PSoC4/BLE_eventHandler.c ****         }
 489:.\Generated_Source\PSoC4/BLE_eventHandler.c ****     #endif /* CYBLE_RSCS_SERVER */
 490:.\Generated_Source\PSoC4/BLE_eventHandler.c ****     
 491:.\Generated_Source\PSoC4/BLE_eventHandler.c ****     #ifdef CYBLE_UDS_SERVER
 492:.\Generated_Source\PSoC4/BLE_eventHandler.c ****         if((cyBle_eventHandlerFlag & CYBLE_CALLBACK) != 0u)
 493:.\Generated_Source\PSoC4/BLE_eventHandler.c ****         {
 494:.\Generated_Source\PSoC4/BLE_eventHandler.c ****             CyBle_UdssConfirmationEventHandler(eventParam);
 495:.\Generated_Source\PSoC4/BLE_eventHandler.c ****         }
 496:.\Generated_Source\PSoC4/BLE_eventHandler.c ****     #endif /* CYBLE_UDS_SERVER */
 497:.\Generated_Source\PSoC4/BLE_eventHandler.c ****     
 498:.\Generated_Source\PSoC4/BLE_eventHandler.c ****     #ifdef CYBLE_WPTS_SERVER
 499:.\Generated_Source\PSoC4/BLE_eventHandler.c ****         if((cyBle_eventHandlerFlag & CYBLE_CALLBACK) != 0u)
 500:.\Generated_Source\PSoC4/BLE_eventHandler.c ****         {
 501:.\Generated_Source\PSoC4/BLE_eventHandler.c ****             CyBle_WptssConfirmationEventHandler(eventParam);
 502:.\Generated_Source\PSoC4/BLE_eventHandler.c ****         }
 503:.\Generated_Source\PSoC4/BLE_eventHandler.c ****     #endif /* CYBLE_WPTS_SERVER */
 504:.\Generated_Source\PSoC4/BLE_eventHandler.c ****     
 505:.\Generated_Source\PSoC4/BLE_eventHandler.c ****     #ifdef CYBLE_WSS_SERVER
 506:.\Generated_Source\PSoC4/BLE_eventHandler.c ****         if((cyBle_eventHandlerFlag & CYBLE_CALLBACK) != 0u)
 507:.\Generated_Source\PSoC4/BLE_eventHandler.c ****         {
 508:.\Generated_Source\PSoC4/BLE_eventHandler.c ****             CyBle_WsssConfirmationEventHandler(eventParam);
 509:.\Generated_Source\PSoC4/BLE_eventHandler.c ****         }
 510:.\Generated_Source\PSoC4/BLE_eventHandler.c ****     #endif /* CYBLE_WSS_SERVER */
 511:.\Generated_Source\PSoC4/BLE_eventHandler.c ****     }
 512:.\Generated_Source\PSoC4/BLE_eventHandler.c **** }
 160              		.loc 1 512 0
 161 0008 BD46     		mov	sp, r7
 162 000a 02B0     		add	sp, sp, #8
 163              		@ sp needed
 164 000c 80BD     		pop	{r7, pc}
 165              		.cfi_endproc
 166              	.LFE3:
 167              		.size	CyBle_ValueConfirmation, .-CyBle_ValueConfirmation
 168              		.section	.text.CyBle_GattcWriteResponseEventHandler,"ax",%progbits
ARM GAS  C:\Users\YBOURA~1\AppData\Local\Temp\cc3HigXd.s 			page 13


 169              		.align	2
 170              		.code	16
 171              		.thumb_func
 172              		.type	CyBle_GattcWriteResponseEventHandler, %function
 173              	CyBle_GattcWriteResponseEventHandler:
 174              	.LFB4:
 513:.\Generated_Source\PSoC4/BLE_eventHandler.c **** 
 514:.\Generated_Source\PSoC4/BLE_eventHandler.c **** #endif /* CYBLE_GATT_ROLE_SERVER */
 515:.\Generated_Source\PSoC4/BLE_eventHandler.c **** 
 516:.\Generated_Source\PSoC4/BLE_eventHandler.c **** 
 517:.\Generated_Source\PSoC4/BLE_eventHandler.c **** #if (CYBLE_GATT_ROLE_CLIENT)
 518:.\Generated_Source\PSoC4/BLE_eventHandler.c **** 
 519:.\Generated_Source\PSoC4/BLE_eventHandler.c **** /****************************************************************************** 
 520:.\Generated_Source\PSoC4/BLE_eventHandler.c **** * Function Name: CyBle_GattcWriteResponseEventHandler
 521:.\Generated_Source\PSoC4/BLE_eventHandler.c **** ***************************************************************************//**
 522:.\Generated_Source\PSoC4/BLE_eventHandler.c **** * 
 523:.\Generated_Source\PSoC4/BLE_eventHandler.c **** *  Handles the Write response event from the BLE stack.
 524:.\Generated_Source\PSoC4/BLE_eventHandler.c **** * 
 525:.\Generated_Source\PSoC4/BLE_eventHandler.c **** *  \param eventParam: Pointer to a structure of type 'CYBLE_CONN_HANDLE_T'
 526:.\Generated_Source\PSoC4/BLE_eventHandler.c **** * 
 527:.\Generated_Source\PSoC4/BLE_eventHandler.c **** * \return
 528:.\Generated_Source\PSoC4/BLE_eventHandler.c **** *  None
 529:.\Generated_Source\PSoC4/BLE_eventHandler.c **** * 
 530:.\Generated_Source\PSoC4/BLE_eventHandler.c **** ******************************************************************************/
 531:.\Generated_Source\PSoC4/BLE_eventHandler.c **** static void CyBle_GattcWriteResponseEventHandler(const CYBLE_CONN_HANDLE_T *eventParam)
 532:.\Generated_Source\PSoC4/BLE_eventHandler.c **** {
 175              		.loc 1 532 0
 176              		.cfi_startproc
 177 0000 80B5     		push	{r7, lr}
 178              		.cfi_def_cfa_offset 8
 179              		.cfi_offset 7, -8
 180              		.cfi_offset 14, -4
 181 0002 82B0     		sub	sp, sp, #8
 182              		.cfi_def_cfa_offset 16
 183 0004 00AF     		add	r7, sp, #0
 184              		.cfi_def_cfa_register 7
 185 0006 7860     		str	r0, [r7, #4]
 533:.\Generated_Source\PSoC4/BLE_eventHandler.c **** #ifdef CYBLE_ANCS_CLIENT
 534:.\Generated_Source\PSoC4/BLE_eventHandler.c ****     CyBle_AncscWriteResponseEventHandler(eventParam);
 535:.\Generated_Source\PSoC4/BLE_eventHandler.c **** #endif /* CYBLE_ANCS_CLIENT */
 536:.\Generated_Source\PSoC4/BLE_eventHandler.c **** 
 537:.\Generated_Source\PSoC4/BLE_eventHandler.c **** #ifdef CYBLE_ANS_CLIENT
 538:.\Generated_Source\PSoC4/BLE_eventHandler.c ****     if((cyBle_eventHandlerFlag & CYBLE_CALLBACK) != 0u)
 539:.\Generated_Source\PSoC4/BLE_eventHandler.c ****     {
 540:.\Generated_Source\PSoC4/BLE_eventHandler.c ****         CyBle_AnscWriteResponseEventHandler(eventParam);
 541:.\Generated_Source\PSoC4/BLE_eventHandler.c ****     }
 542:.\Generated_Source\PSoC4/BLE_eventHandler.c **** #endif /* CYBLE_ANS_CLIENT */
 543:.\Generated_Source\PSoC4/BLE_eventHandler.c **** 
 544:.\Generated_Source\PSoC4/BLE_eventHandler.c **** #ifdef CYBLE_BAS_CLIENT
 545:.\Generated_Source\PSoC4/BLE_eventHandler.c ****     if((cyBle_eventHandlerFlag & CYBLE_CALLBACK) != 0u)
 546:.\Generated_Source\PSoC4/BLE_eventHandler.c ****     {
 547:.\Generated_Source\PSoC4/BLE_eventHandler.c ****         CyBle_BascWriteResponseEventHandler(eventParam);
 548:.\Generated_Source\PSoC4/BLE_eventHandler.c ****     }
 549:.\Generated_Source\PSoC4/BLE_eventHandler.c **** #endif /* CYBLE_BAS_CLIENT */
 550:.\Generated_Source\PSoC4/BLE_eventHandler.c **** 
 551:.\Generated_Source\PSoC4/BLE_eventHandler.c **** #ifdef CYBLE_BCS_CLIENT
 552:.\Generated_Source\PSoC4/BLE_eventHandler.c ****     if((cyBle_eventHandlerFlag & CYBLE_CALLBACK) != 0u)
ARM GAS  C:\Users\YBOURA~1\AppData\Local\Temp\cc3HigXd.s 			page 14


 553:.\Generated_Source\PSoC4/BLE_eventHandler.c ****     {
 554:.\Generated_Source\PSoC4/BLE_eventHandler.c ****         CyBle_BcscWriteResponseEventHandler(eventParam);
 555:.\Generated_Source\PSoC4/BLE_eventHandler.c ****     }
 556:.\Generated_Source\PSoC4/BLE_eventHandler.c **** #endif /* CYBLE_BCS_CLIENT */
 557:.\Generated_Source\PSoC4/BLE_eventHandler.c **** 
 558:.\Generated_Source\PSoC4/BLE_eventHandler.c **** #ifdef CYBLE_BLS_CLIENT
 559:.\Generated_Source\PSoC4/BLE_eventHandler.c ****     if((cyBle_eventHandlerFlag & CYBLE_CALLBACK) != 0u)
 560:.\Generated_Source\PSoC4/BLE_eventHandler.c ****     {
 561:.\Generated_Source\PSoC4/BLE_eventHandler.c ****         CyBle_BlscWriteResponseEventHandler(eventParam);
 562:.\Generated_Source\PSoC4/BLE_eventHandler.c ****     }
 563:.\Generated_Source\PSoC4/BLE_eventHandler.c **** #endif /* CYBLE_BLS_CLIENT */
 564:.\Generated_Source\PSoC4/BLE_eventHandler.c **** 
 565:.\Generated_Source\PSoC4/BLE_eventHandler.c **** #ifdef CYBLE_BMS_CLIENT
 566:.\Generated_Source\PSoC4/BLE_eventHandler.c ****     if((cyBle_eventHandlerFlag & CYBLE_CALLBACK) != 0u)
 567:.\Generated_Source\PSoC4/BLE_eventHandler.c ****     {
 568:.\Generated_Source\PSoC4/BLE_eventHandler.c ****         CyBle_BmscWriteResponseEventHandler(eventParam);
 569:.\Generated_Source\PSoC4/BLE_eventHandler.c ****     }
 570:.\Generated_Source\PSoC4/BLE_eventHandler.c **** #endif /* CYBLE_BMS_CLIENT */
 571:.\Generated_Source\PSoC4/BLE_eventHandler.c **** 
 572:.\Generated_Source\PSoC4/BLE_eventHandler.c **** #ifdef CYBLE_CGMS_CLIENT
 573:.\Generated_Source\PSoC4/BLE_eventHandler.c ****     if((cyBle_eventHandlerFlag & CYBLE_CALLBACK) != 0u)
 574:.\Generated_Source\PSoC4/BLE_eventHandler.c ****     {
 575:.\Generated_Source\PSoC4/BLE_eventHandler.c ****         CyBle_CgmscWriteResponseEventHandler(eventParam);
 576:.\Generated_Source\PSoC4/BLE_eventHandler.c ****     }
 577:.\Generated_Source\PSoC4/BLE_eventHandler.c **** #endif /* CYBLE_CGMS_CLIENT */
 578:.\Generated_Source\PSoC4/BLE_eventHandler.c **** 
 579:.\Generated_Source\PSoC4/BLE_eventHandler.c **** #ifdef CYBLE_CPS_CLIENT
 580:.\Generated_Source\PSoC4/BLE_eventHandler.c ****     if((cyBle_eventHandlerFlag & CYBLE_CALLBACK) != 0u)
 581:.\Generated_Source\PSoC4/BLE_eventHandler.c ****     {
 582:.\Generated_Source\PSoC4/BLE_eventHandler.c ****         CyBle_CpscWriteResponseEventHandler(eventParam);
 583:.\Generated_Source\PSoC4/BLE_eventHandler.c ****     }
 584:.\Generated_Source\PSoC4/BLE_eventHandler.c **** #endif /* CYBLE_CPS_CLIENT */
 585:.\Generated_Source\PSoC4/BLE_eventHandler.c **** 
 586:.\Generated_Source\PSoC4/BLE_eventHandler.c **** #ifdef CYBLE_CSCS_CLIENT
 587:.\Generated_Source\PSoC4/BLE_eventHandler.c ****     if((cyBle_eventHandlerFlag & CYBLE_CALLBACK) != 0u)
 588:.\Generated_Source\PSoC4/BLE_eventHandler.c ****     {
 589:.\Generated_Source\PSoC4/BLE_eventHandler.c ****         CyBle_CscscWriteResponseEventHandler(eventParam);
 590:.\Generated_Source\PSoC4/BLE_eventHandler.c ****     }
 591:.\Generated_Source\PSoC4/BLE_eventHandler.c **** #endif /* CYBLE_CSCS_CLIENT */
 592:.\Generated_Source\PSoC4/BLE_eventHandler.c **** 
 593:.\Generated_Source\PSoC4/BLE_eventHandler.c **** #ifdef CYBLE_CTS_CLIENT
 594:.\Generated_Source\PSoC4/BLE_eventHandler.c ****     if((cyBle_eventHandlerFlag & CYBLE_CALLBACK) != 0u)
 595:.\Generated_Source\PSoC4/BLE_eventHandler.c ****     {
 596:.\Generated_Source\PSoC4/BLE_eventHandler.c ****         CyBle_CtscWriteResponseEventHandler(eventParam);
 597:.\Generated_Source\PSoC4/BLE_eventHandler.c ****     }
 598:.\Generated_Source\PSoC4/BLE_eventHandler.c **** #endif /* CYBLE_CTS_CLIENT */
 599:.\Generated_Source\PSoC4/BLE_eventHandler.c **** 
 600:.\Generated_Source\PSoC4/BLE_eventHandler.c **** #ifdef CYBLE_ESS_CLIENT
 601:.\Generated_Source\PSoC4/BLE_eventHandler.c ****     if((cyBle_eventHandlerFlag & CYBLE_CALLBACK) != 0u)
 602:.\Generated_Source\PSoC4/BLE_eventHandler.c ****     {
 603:.\Generated_Source\PSoC4/BLE_eventHandler.c ****         CyBle_EsscWriteResponseEventHandler(eventParam);
 604:.\Generated_Source\PSoC4/BLE_eventHandler.c ****     }
 605:.\Generated_Source\PSoC4/BLE_eventHandler.c **** #endif /* CYBLE_ESS_CLIENT */
 606:.\Generated_Source\PSoC4/BLE_eventHandler.c **** 
 607:.\Generated_Source\PSoC4/BLE_eventHandler.c **** #ifdef CYBLE_GLS_CLIENT
 608:.\Generated_Source\PSoC4/BLE_eventHandler.c ****     if((cyBle_eventHandlerFlag & CYBLE_CALLBACK) != 0u)
 609:.\Generated_Source\PSoC4/BLE_eventHandler.c ****     {
ARM GAS  C:\Users\YBOURA~1\AppData\Local\Temp\cc3HigXd.s 			page 15


 610:.\Generated_Source\PSoC4/BLE_eventHandler.c ****         CyBle_GlscWriteResponseEventHandler(eventParam);
 611:.\Generated_Source\PSoC4/BLE_eventHandler.c ****     }
 612:.\Generated_Source\PSoC4/BLE_eventHandler.c **** #endif /* CYBLE_GLS_CLIENT */
 613:.\Generated_Source\PSoC4/BLE_eventHandler.c **** 
 614:.\Generated_Source\PSoC4/BLE_eventHandler.c **** #ifdef CYBLE_HIDS_CLIENT
 615:.\Generated_Source\PSoC4/BLE_eventHandler.c ****     if((cyBle_eventHandlerFlag & CYBLE_CALLBACK) != 0u)
 616:.\Generated_Source\PSoC4/BLE_eventHandler.c ****     {
 617:.\Generated_Source\PSoC4/BLE_eventHandler.c ****         CyBle_HidscWriteResponseEventHandler(eventParam);
 618:.\Generated_Source\PSoC4/BLE_eventHandler.c ****     }
 619:.\Generated_Source\PSoC4/BLE_eventHandler.c **** #endif /* CYBLE_HIDS_CLIENT */
 620:.\Generated_Source\PSoC4/BLE_eventHandler.c **** 
 621:.\Generated_Source\PSoC4/BLE_eventHandler.c **** #ifdef CYBLE_HRS_CLIENT
 622:.\Generated_Source\PSoC4/BLE_eventHandler.c ****     if((cyBle_eventHandlerFlag & CYBLE_CALLBACK) != 0u)
 623:.\Generated_Source\PSoC4/BLE_eventHandler.c ****     {
 624:.\Generated_Source\PSoC4/BLE_eventHandler.c ****         CyBle_HrscWriteResponseEventHandler(eventParam);
 625:.\Generated_Source\PSoC4/BLE_eventHandler.c ****     }
 626:.\Generated_Source\PSoC4/BLE_eventHandler.c **** #endif /* CYBLE_HRS_CLIENT */
 627:.\Generated_Source\PSoC4/BLE_eventHandler.c **** 
 628:.\Generated_Source\PSoC4/BLE_eventHandler.c **** #ifdef CYBLE_HTS_CLIENT
 629:.\Generated_Source\PSoC4/BLE_eventHandler.c ****     if((cyBle_eventHandlerFlag & CYBLE_CALLBACK) != 0u)
 630:.\Generated_Source\PSoC4/BLE_eventHandler.c ****     {
 631:.\Generated_Source\PSoC4/BLE_eventHandler.c ****         CyBle_HtscWriteResponseEventHandler(eventParam);
 632:.\Generated_Source\PSoC4/BLE_eventHandler.c ****     }
 633:.\Generated_Source\PSoC4/BLE_eventHandler.c **** #endif /* CYBLE_HTS_CLIENT */
 634:.\Generated_Source\PSoC4/BLE_eventHandler.c **** 
 635:.\Generated_Source\PSoC4/BLE_eventHandler.c **** #ifdef CYBLE_LLS_CLIENT
 636:.\Generated_Source\PSoC4/BLE_eventHandler.c ****     if((cyBle_eventHandlerFlag & CYBLE_CALLBACK) != 0u)
 637:.\Generated_Source\PSoC4/BLE_eventHandler.c ****     {
 638:.\Generated_Source\PSoC4/BLE_eventHandler.c ****         CyBle_LlscWriteResponseEventHandler(eventParam);
 639:.\Generated_Source\PSoC4/BLE_eventHandler.c ****     }
 640:.\Generated_Source\PSoC4/BLE_eventHandler.c **** #endif /* CYBLE_LLS_CLIENT */
 641:.\Generated_Source\PSoC4/BLE_eventHandler.c **** 
 642:.\Generated_Source\PSoC4/BLE_eventHandler.c **** #ifdef CYBLE_LNS_CLIENT
 643:.\Generated_Source\PSoC4/BLE_eventHandler.c ****     if((cyBle_eventHandlerFlag & CYBLE_CALLBACK) != 0u)
 644:.\Generated_Source\PSoC4/BLE_eventHandler.c ****     {
 645:.\Generated_Source\PSoC4/BLE_eventHandler.c ****         CyBle_LnscWriteResponseEventHandler(eventParam);
 646:.\Generated_Source\PSoC4/BLE_eventHandler.c ****     }
 647:.\Generated_Source\PSoC4/BLE_eventHandler.c **** #endif /* CYBLE_LNS_CLIENT */
 648:.\Generated_Source\PSoC4/BLE_eventHandler.c **** 
 649:.\Generated_Source\PSoC4/BLE_eventHandler.c **** #ifdef CYBLE_PASS_CLIENT
 650:.\Generated_Source\PSoC4/BLE_eventHandler.c ****     if((cyBle_eventHandlerFlag & CYBLE_CALLBACK) != 0u)
 651:.\Generated_Source\PSoC4/BLE_eventHandler.c ****     {
 652:.\Generated_Source\PSoC4/BLE_eventHandler.c ****         CyBle_PasscWriteResponseEventHandler(eventParam);
 653:.\Generated_Source\PSoC4/BLE_eventHandler.c ****     }
 654:.\Generated_Source\PSoC4/BLE_eventHandler.c **** #endif /* CYBLE_PASS_CLIENT */
 655:.\Generated_Source\PSoC4/BLE_eventHandler.c **** 
 656:.\Generated_Source\PSoC4/BLE_eventHandler.c **** #ifdef CYBLE_RSCS_CLIENT
 657:.\Generated_Source\PSoC4/BLE_eventHandler.c ****     if((cyBle_eventHandlerFlag & CYBLE_CALLBACK) != 0u)
 658:.\Generated_Source\PSoC4/BLE_eventHandler.c ****     {
 659:.\Generated_Source\PSoC4/BLE_eventHandler.c ****         CyBle_RscscWriteResponseEventHandler(eventParam);
 660:.\Generated_Source\PSoC4/BLE_eventHandler.c ****     }
 661:.\Generated_Source\PSoC4/BLE_eventHandler.c **** #endif /* CYBLE_RSCS_CLIENT */
 662:.\Generated_Source\PSoC4/BLE_eventHandler.c **** 
 663:.\Generated_Source\PSoC4/BLE_eventHandler.c **** #ifdef CYBLE_SCPS_CLIENT
 664:.\Generated_Source\PSoC4/BLE_eventHandler.c ****     if((cyBle_eventHandlerFlag & CYBLE_CALLBACK) != 0u)
 665:.\Generated_Source\PSoC4/BLE_eventHandler.c ****     {
 666:.\Generated_Source\PSoC4/BLE_eventHandler.c ****         CyBle_ScpscWriteResponseEventHandler(eventParam);
ARM GAS  C:\Users\YBOURA~1\AppData\Local\Temp\cc3HigXd.s 			page 16


 667:.\Generated_Source\PSoC4/BLE_eventHandler.c ****     }
 668:.\Generated_Source\PSoC4/BLE_eventHandler.c **** #endif /* CYBLE_SCPS_CLIENT */
 669:.\Generated_Source\PSoC4/BLE_eventHandler.c **** 
 670:.\Generated_Source\PSoC4/BLE_eventHandler.c **** #ifdef CYBLE_TPS_CLIENT
 671:.\Generated_Source\PSoC4/BLE_eventHandler.c ****     if((cyBle_eventHandlerFlag & CYBLE_CALLBACK) != 0u)
 672:.\Generated_Source\PSoC4/BLE_eventHandler.c ****     {
 673:.\Generated_Source\PSoC4/BLE_eventHandler.c ****         CyBle_TpscWriteResponseEventHandler(eventParam);
 674:.\Generated_Source\PSoC4/BLE_eventHandler.c ****     }
 675:.\Generated_Source\PSoC4/BLE_eventHandler.c **** #endif /* CYBLE_TPS_CLIENT */
 676:.\Generated_Source\PSoC4/BLE_eventHandler.c **** 
 677:.\Generated_Source\PSoC4/BLE_eventHandler.c **** #ifdef CYBLE_UDS_CLIENT
 678:.\Generated_Source\PSoC4/BLE_eventHandler.c ****     if((cyBle_eventHandlerFlag & CYBLE_CALLBACK) != 0u)
 679:.\Generated_Source\PSoC4/BLE_eventHandler.c ****     {
 680:.\Generated_Source\PSoC4/BLE_eventHandler.c ****         CyBle_UdscWriteResponseEventHandler(eventParam);
 681:.\Generated_Source\PSoC4/BLE_eventHandler.c ****     }
 682:.\Generated_Source\PSoC4/BLE_eventHandler.c **** #endif /* CYBLE_UDS_CLIENT */
 683:.\Generated_Source\PSoC4/BLE_eventHandler.c **** #ifdef CYBLE_WPTS_CLIENT
 684:.\Generated_Source\PSoC4/BLE_eventHandler.c ****     if((cyBle_eventHandlerFlag & CYBLE_CALLBACK) != 0u)
 685:.\Generated_Source\PSoC4/BLE_eventHandler.c ****     {
 686:.\Generated_Source\PSoC4/BLE_eventHandler.c ****         CyBle_WptscWriteResponseEventHandler(eventParam);
 687:.\Generated_Source\PSoC4/BLE_eventHandler.c ****     }
 688:.\Generated_Source\PSoC4/BLE_eventHandler.c **** #endif /* CYBLE_WPTS_CLIENT */
 689:.\Generated_Source\PSoC4/BLE_eventHandler.c **** #ifdef CYBLE_WSS_CLIENT
 690:.\Generated_Source\PSoC4/BLE_eventHandler.c ****     if((cyBle_eventHandlerFlag & CYBLE_CALLBACK) != 0u)
 691:.\Generated_Source\PSoC4/BLE_eventHandler.c ****     {
 692:.\Generated_Source\PSoC4/BLE_eventHandler.c ****         CyBle_WsscWriteResponseEventHandler(eventParam);
 693:.\Generated_Source\PSoC4/BLE_eventHandler.c ****     }
 694:.\Generated_Source\PSoC4/BLE_eventHandler.c **** #endif /* CYBLE_WSS_CLIENT */
 695:.\Generated_Source\PSoC4/BLE_eventHandler.c **** }
 186              		.loc 1 695 0
 187 0008 BD46     		mov	sp, r7
 188 000a 02B0     		add	sp, sp, #8
 189              		@ sp needed
 190 000c 80BD     		pop	{r7, pc}
 191              		.cfi_endproc
 192              	.LFE4:
 193              		.size	CyBle_GattcWriteResponseEventHandler, .-CyBle_GattcWriteResponseEventHandler
 194              		.section	.text.CyBle_NotificationEventHandler,"ax",%progbits
 195              		.align	2
 196              		.code	16
 197              		.thumb_func
 198              		.type	CyBle_NotificationEventHandler, %function
 199              	CyBle_NotificationEventHandler:
 200              	.LFB5:
 696:.\Generated_Source\PSoC4/BLE_eventHandler.c **** 
 697:.\Generated_Source\PSoC4/BLE_eventHandler.c **** 
 698:.\Generated_Source\PSoC4/BLE_eventHandler.c **** /******************************************************************************    
 699:.\Generated_Source\PSoC4/BLE_eventHandler.c **** * Function Name: CyBle_NotificationEventHandler
 700:.\Generated_Source\PSoC4/BLE_eventHandler.c **** ***************************************************************************//**
 701:.\Generated_Source\PSoC4/BLE_eventHandler.c **** * 
 702:.\Generated_Source\PSoC4/BLE_eventHandler.c **** *  Handles the Notification event from BLE stack.
 703:.\Generated_Source\PSoC4/BLE_eventHandler.c **** * 
 704:.\Generated_Source\PSoC4/BLE_eventHandler.c **** *  \param eventParam: event parameter
 705:.\Generated_Source\PSoC4/BLE_eventHandler.c **** * 
 706:.\Generated_Source\PSoC4/BLE_eventHandler.c **** * \return
 707:.\Generated_Source\PSoC4/BLE_eventHandler.c **** *  None
 708:.\Generated_Source\PSoC4/BLE_eventHandler.c **** * 
ARM GAS  C:\Users\YBOURA~1\AppData\Local\Temp\cc3HigXd.s 			page 17


 709:.\Generated_Source\PSoC4/BLE_eventHandler.c **** ******************************************************************************/
 710:.\Generated_Source\PSoC4/BLE_eventHandler.c **** static void CyBle_NotificationEventHandler(CYBLE_GATTC_HANDLE_VALUE_NTF_PARAM_T *eventParam)
 711:.\Generated_Source\PSoC4/BLE_eventHandler.c **** {
 201              		.loc 1 711 0
 202              		.cfi_startproc
 203 0000 80B5     		push	{r7, lr}
 204              		.cfi_def_cfa_offset 8
 205              		.cfi_offset 7, -8
 206              		.cfi_offset 14, -4
 207 0002 82B0     		sub	sp, sp, #8
 208              		.cfi_def_cfa_offset 16
 209 0004 00AF     		add	r7, sp, #0
 210              		.cfi_def_cfa_register 7
 211 0006 7860     		str	r0, [r7, #4]
 712:.\Generated_Source\PSoC4/BLE_eventHandler.c **** #ifdef CYBLE_ANCS_CLIENT
 713:.\Generated_Source\PSoC4/BLE_eventHandler.c ****     CyBle_AncscNotificationEventHandler(eventParam);
 714:.\Generated_Source\PSoC4/BLE_eventHandler.c **** #endif /* CYBLE_ANCS_CLIENT */
 715:.\Generated_Source\PSoC4/BLE_eventHandler.c **** #ifdef CYBLE_ANS_CLIENT
 716:.\Generated_Source\PSoC4/BLE_eventHandler.c ****     if((cyBle_eventHandlerFlag & CYBLE_CALLBACK) != 0u)
 717:.\Generated_Source\PSoC4/BLE_eventHandler.c ****     {
 718:.\Generated_Source\PSoC4/BLE_eventHandler.c ****         CyBle_AnscNotificationEventHandler(eventParam);
 719:.\Generated_Source\PSoC4/BLE_eventHandler.c ****     }
 720:.\Generated_Source\PSoC4/BLE_eventHandler.c **** #endif /* CYBLE_ANS_CLIENT */
 721:.\Generated_Source\PSoC4/BLE_eventHandler.c **** #ifdef CYBLE_BAS_CLIENT
 722:.\Generated_Source\PSoC4/BLE_eventHandler.c ****     if((cyBle_eventHandlerFlag & CYBLE_CALLBACK) != 0u)
 723:.\Generated_Source\PSoC4/BLE_eventHandler.c ****     {
 724:.\Generated_Source\PSoC4/BLE_eventHandler.c ****         CyBle_BascNotificationEventHandler(eventParam);
 725:.\Generated_Source\PSoC4/BLE_eventHandler.c ****     }
 726:.\Generated_Source\PSoC4/BLE_eventHandler.c **** #endif /* CYBLE_BAS_CLIENT */
 727:.\Generated_Source\PSoC4/BLE_eventHandler.c **** #ifdef CYBLE_BLS_CLIENT
 728:.\Generated_Source\PSoC4/BLE_eventHandler.c ****     if((cyBle_eventHandlerFlag & CYBLE_CALLBACK) != 0u)
 729:.\Generated_Source\PSoC4/BLE_eventHandler.c ****     {
 730:.\Generated_Source\PSoC4/BLE_eventHandler.c ****         CyBle_BlscNotificationEventHandler(eventParam);
 731:.\Generated_Source\PSoC4/BLE_eventHandler.c ****     }
 732:.\Generated_Source\PSoC4/BLE_eventHandler.c **** #endif /* CYBLE_BLS_CLIENT */
 733:.\Generated_Source\PSoC4/BLE_eventHandler.c **** #ifdef CYBLE_CGMS_CLIENT
 734:.\Generated_Source\PSoC4/BLE_eventHandler.c ****     if((cyBle_eventHandlerFlag & CYBLE_CALLBACK) != 0u)
 735:.\Generated_Source\PSoC4/BLE_eventHandler.c ****     {
 736:.\Generated_Source\PSoC4/BLE_eventHandler.c ****         CyBle_CgmscNotificationEventHandler(eventParam);
 737:.\Generated_Source\PSoC4/BLE_eventHandler.c ****     }
 738:.\Generated_Source\PSoC4/BLE_eventHandler.c **** #endif /* CYBLE_CGMS_CLIENT */
 739:.\Generated_Source\PSoC4/BLE_eventHandler.c **** #ifdef CYBLE_CPS_CLIENT
 740:.\Generated_Source\PSoC4/BLE_eventHandler.c ****     if((cyBle_eventHandlerFlag & CYBLE_CALLBACK) != 0u)
 741:.\Generated_Source\PSoC4/BLE_eventHandler.c ****     {
 742:.\Generated_Source\PSoC4/BLE_eventHandler.c ****         CyBle_CpscNotificationEventHandler(eventParam);
 743:.\Generated_Source\PSoC4/BLE_eventHandler.c ****     }
 744:.\Generated_Source\PSoC4/BLE_eventHandler.c **** #endif /* CYBLE_CPS_CLIENT */
 745:.\Generated_Source\PSoC4/BLE_eventHandler.c **** #ifdef CYBLE_CSCS_CLIENT
 746:.\Generated_Source\PSoC4/BLE_eventHandler.c ****     if((cyBle_eventHandlerFlag & CYBLE_CALLBACK) != 0u)
 747:.\Generated_Source\PSoC4/BLE_eventHandler.c ****     {
 748:.\Generated_Source\PSoC4/BLE_eventHandler.c ****         CyBle_CscscNotificationEventHandler(eventParam);
 749:.\Generated_Source\PSoC4/BLE_eventHandler.c ****     }
 750:.\Generated_Source\PSoC4/BLE_eventHandler.c **** #endif /* CYBLE_CSCS_CLIENT */
 751:.\Generated_Source\PSoC4/BLE_eventHandler.c **** #ifdef CYBLE_CTS_CLIENT
 752:.\Generated_Source\PSoC4/BLE_eventHandler.c ****     if((cyBle_eventHandlerFlag & CYBLE_CALLBACK) != 0u)
 753:.\Generated_Source\PSoC4/BLE_eventHandler.c ****     {
 754:.\Generated_Source\PSoC4/BLE_eventHandler.c ****         CyBle_CtscNotificationEventHandler(eventParam);
ARM GAS  C:\Users\YBOURA~1\AppData\Local\Temp\cc3HigXd.s 			page 18


 755:.\Generated_Source\PSoC4/BLE_eventHandler.c ****     }
 756:.\Generated_Source\PSoC4/BLE_eventHandler.c **** #endif /* CYBLE_CTS_CLIENT */
 757:.\Generated_Source\PSoC4/BLE_eventHandler.c **** #ifdef CYBLE_ESS_CLIENT
 758:.\Generated_Source\PSoC4/BLE_eventHandler.c ****     if((cyBle_eventHandlerFlag & CYBLE_CALLBACK) != 0u)
 759:.\Generated_Source\PSoC4/BLE_eventHandler.c ****     {
 760:.\Generated_Source\PSoC4/BLE_eventHandler.c ****         CyBle_EsscNotificationEventHandler(eventParam);
 761:.\Generated_Source\PSoC4/BLE_eventHandler.c ****     }
 762:.\Generated_Source\PSoC4/BLE_eventHandler.c **** #endif /* CYBLE_ESS_CLIENT */
 763:.\Generated_Source\PSoC4/BLE_eventHandler.c **** #ifdef CYBLE_GLS_CLIENT
 764:.\Generated_Source\PSoC4/BLE_eventHandler.c ****     if((cyBle_eventHandlerFlag & CYBLE_CALLBACK) != 0u)
 765:.\Generated_Source\PSoC4/BLE_eventHandler.c ****     {
 766:.\Generated_Source\PSoC4/BLE_eventHandler.c ****         CyBle_GlscNotificationEventHandler(eventParam);
 767:.\Generated_Source\PSoC4/BLE_eventHandler.c ****     }
 768:.\Generated_Source\PSoC4/BLE_eventHandler.c **** #endif /* CYBLE_GLS_CLIENT */
 769:.\Generated_Source\PSoC4/BLE_eventHandler.c **** #ifdef CYBLE_HIDS_CLIENT
 770:.\Generated_Source\PSoC4/BLE_eventHandler.c ****     if((cyBle_eventHandlerFlag & CYBLE_CALLBACK) != 0u)
 771:.\Generated_Source\PSoC4/BLE_eventHandler.c ****     {
 772:.\Generated_Source\PSoC4/BLE_eventHandler.c ****         CyBle_HidscNotificationEventHandler(eventParam);
 773:.\Generated_Source\PSoC4/BLE_eventHandler.c ****     }
 774:.\Generated_Source\PSoC4/BLE_eventHandler.c **** #endif /* CYBLE_HIDS_CLIENT */
 775:.\Generated_Source\PSoC4/BLE_eventHandler.c **** #ifdef CYBLE_HRS_CLIENT
 776:.\Generated_Source\PSoC4/BLE_eventHandler.c ****     if((cyBle_eventHandlerFlag & CYBLE_CALLBACK) != 0u)
 777:.\Generated_Source\PSoC4/BLE_eventHandler.c ****     {
 778:.\Generated_Source\PSoC4/BLE_eventHandler.c ****         CyBle_HrscNotificationEventHandler(eventParam);
 779:.\Generated_Source\PSoC4/BLE_eventHandler.c ****     }
 780:.\Generated_Source\PSoC4/BLE_eventHandler.c **** #endif /* CYBLE_HRS_CLIENT */
 781:.\Generated_Source\PSoC4/BLE_eventHandler.c **** #ifdef CYBLE_HTS_CLIENT
 782:.\Generated_Source\PSoC4/BLE_eventHandler.c ****     if((cyBle_eventHandlerFlag & CYBLE_CALLBACK) != 0u)
 783:.\Generated_Source\PSoC4/BLE_eventHandler.c ****     {
 784:.\Generated_Source\PSoC4/BLE_eventHandler.c ****         CyBle_HtscNotificationEventHandler(eventParam);
 785:.\Generated_Source\PSoC4/BLE_eventHandler.c ****     }
 786:.\Generated_Source\PSoC4/BLE_eventHandler.c **** #endif /* CYBLE_HTS_CLIENT */
 787:.\Generated_Source\PSoC4/BLE_eventHandler.c **** #ifdef CYBLE_LNS_CLIENT
 788:.\Generated_Source\PSoC4/BLE_eventHandler.c ****     if((cyBle_eventHandlerFlag & CYBLE_CALLBACK) != 0u)
 789:.\Generated_Source\PSoC4/BLE_eventHandler.c ****     {
 790:.\Generated_Source\PSoC4/BLE_eventHandler.c ****         CyBle_LnscNotificationEventHandler(eventParam);
 791:.\Generated_Source\PSoC4/BLE_eventHandler.c ****     }
 792:.\Generated_Source\PSoC4/BLE_eventHandler.c **** #endif /* CYBLE_LNS_CLIENT */
 793:.\Generated_Source\PSoC4/BLE_eventHandler.c **** #ifdef CYBLE_PASS_CLIENT
 794:.\Generated_Source\PSoC4/BLE_eventHandler.c ****     if((cyBle_eventHandlerFlag & CYBLE_CALLBACK) != 0u)
 795:.\Generated_Source\PSoC4/BLE_eventHandler.c ****     {
 796:.\Generated_Source\PSoC4/BLE_eventHandler.c ****         CyBle_PasscNotificationEventHandler(eventParam);
 797:.\Generated_Source\PSoC4/BLE_eventHandler.c ****     }
 798:.\Generated_Source\PSoC4/BLE_eventHandler.c **** #endif /* CYBLE_PASS_CLIENT */
 799:.\Generated_Source\PSoC4/BLE_eventHandler.c **** #ifdef CYBLE_RSCS_CLIENT
 800:.\Generated_Source\PSoC4/BLE_eventHandler.c ****     if((cyBle_eventHandlerFlag & CYBLE_CALLBACK) != 0u)
 801:.\Generated_Source\PSoC4/BLE_eventHandler.c ****     {
 802:.\Generated_Source\PSoC4/BLE_eventHandler.c ****         CyBle_RscscNotificationEventHandler(eventParam);
 803:.\Generated_Source\PSoC4/BLE_eventHandler.c ****     }
 804:.\Generated_Source\PSoC4/BLE_eventHandler.c **** #endif /* CYBLE_RSCS_CLIENT */
 805:.\Generated_Source\PSoC4/BLE_eventHandler.c **** #ifdef CYBLE_SCPS_CLIENT
 806:.\Generated_Source\PSoC4/BLE_eventHandler.c ****     if((cyBle_eventHandlerFlag & CYBLE_CALLBACK) != 0u)
 807:.\Generated_Source\PSoC4/BLE_eventHandler.c ****     {
 808:.\Generated_Source\PSoC4/BLE_eventHandler.c ****         CyBle_ScpscNotificationEventHandler(eventParam);
 809:.\Generated_Source\PSoC4/BLE_eventHandler.c ****     }
 810:.\Generated_Source\PSoC4/BLE_eventHandler.c **** #endif /* CYBLE_SCPS_CLIENT */
 811:.\Generated_Source\PSoC4/BLE_eventHandler.c **** #ifdef CYBLE_TPS_CLIENT
ARM GAS  C:\Users\YBOURA~1\AppData\Local\Temp\cc3HigXd.s 			page 19


 812:.\Generated_Source\PSoC4/BLE_eventHandler.c ****     if((cyBle_eventHandlerFlag & CYBLE_CALLBACK) != 0u)
 813:.\Generated_Source\PSoC4/BLE_eventHandler.c ****     {
 814:.\Generated_Source\PSoC4/BLE_eventHandler.c ****         CyBle_TpscNotificationEventHandler(eventParam);
 815:.\Generated_Source\PSoC4/BLE_eventHandler.c ****     }
 816:.\Generated_Source\PSoC4/BLE_eventHandler.c **** #endif /* CYBLE_TPS_CLIENT */
 817:.\Generated_Source\PSoC4/BLE_eventHandler.c **** #ifdef CYBLE_UDS_CLIENT
 818:.\Generated_Source\PSoC4/BLE_eventHandler.c ****     if((cyBle_eventHandlerFlag & CYBLE_CALLBACK) != 0u)
 819:.\Generated_Source\PSoC4/BLE_eventHandler.c ****     {
 820:.\Generated_Source\PSoC4/BLE_eventHandler.c ****         CyBle_UdscNotificationEventHandler(eventParam);
 821:.\Generated_Source\PSoC4/BLE_eventHandler.c ****     }
 822:.\Generated_Source\PSoC4/BLE_eventHandler.c **** #endif /* CYBLE_UDS_CLIENT */
 823:.\Generated_Source\PSoC4/BLE_eventHandler.c **** #ifdef CYBLE_WPTS_CLIENT
 824:.\Generated_Source\PSoC4/BLE_eventHandler.c ****     if((cyBle_eventHandlerFlag & CYBLE_CALLBACK) != 0u)
 825:.\Generated_Source\PSoC4/BLE_eventHandler.c ****     {
 826:.\Generated_Source\PSoC4/BLE_eventHandler.c ****         CyBle_WptscNotificationEventHandler(eventParam);
 827:.\Generated_Source\PSoC4/BLE_eventHandler.c ****     }
 828:.\Generated_Source\PSoC4/BLE_eventHandler.c **** #endif /* CYBLE_WPTS_CLIENT */
 829:.\Generated_Source\PSoC4/BLE_eventHandler.c **** }
 212              		.loc 1 829 0
 213 0008 BD46     		mov	sp, r7
 214 000a 02B0     		add	sp, sp, #8
 215              		@ sp needed
 216 000c 80BD     		pop	{r7, pc}
 217              		.cfi_endproc
 218              	.LFE5:
 219              		.size	CyBle_NotificationEventHandler, .-CyBle_NotificationEventHandler
 220              		.section	.text.CyBle_IndicationEventHandler,"ax",%progbits
 221              		.align	2
 222              		.code	16
 223              		.thumb_func
 224              		.type	CyBle_IndicationEventHandler, %function
 225              	CyBle_IndicationEventHandler:
 226              	.LFB6:
 830:.\Generated_Source\PSoC4/BLE_eventHandler.c **** 
 831:.\Generated_Source\PSoC4/BLE_eventHandler.c **** 
 832:.\Generated_Source\PSoC4/BLE_eventHandler.c **** /******************************************************************************    
 833:.\Generated_Source\PSoC4/BLE_eventHandler.c **** * Function Name: CyBle_IndicationEventHandler
 834:.\Generated_Source\PSoC4/BLE_eventHandler.c **** ***************************************************************************//**
 835:.\Generated_Source\PSoC4/BLE_eventHandler.c **** * 
 836:.\Generated_Source\PSoC4/BLE_eventHandler.c **** *  Handles the Indication event from BLE stack.
 837:.\Generated_Source\PSoC4/BLE_eventHandler.c **** * 
 838:.\Generated_Source\PSoC4/BLE_eventHandler.c **** *  \param eventParam: event parameter
 839:.\Generated_Source\PSoC4/BLE_eventHandler.c **** * 
 840:.\Generated_Source\PSoC4/BLE_eventHandler.c **** * \return
 841:.\Generated_Source\PSoC4/BLE_eventHandler.c **** *  None
 842:.\Generated_Source\PSoC4/BLE_eventHandler.c **** * 
 843:.\Generated_Source\PSoC4/BLE_eventHandler.c **** ******************************************************************************/
 844:.\Generated_Source\PSoC4/BLE_eventHandler.c **** static void CyBle_IndicationEventHandler(CYBLE_GATTC_HANDLE_VALUE_IND_PARAM_T *eventParam)
 845:.\Generated_Source\PSoC4/BLE_eventHandler.c **** {
 227              		.loc 1 845 0
 228              		.cfi_startproc
 229 0000 80B5     		push	{r7, lr}
 230              		.cfi_def_cfa_offset 8
 231              		.cfi_offset 7, -8
 232              		.cfi_offset 14, -4
 233 0002 82B0     		sub	sp, sp, #8
 234              		.cfi_def_cfa_offset 16
ARM GAS  C:\Users\YBOURA~1\AppData\Local\Temp\cc3HigXd.s 			page 20


 235 0004 00AF     		add	r7, sp, #0
 236              		.cfi_def_cfa_register 7
 237 0006 7860     		str	r0, [r7, #4]
 846:.\Generated_Source\PSoC4/BLE_eventHandler.c **** #ifdef CYBLE_BCS_CLIENT
 847:.\Generated_Source\PSoC4/BLE_eventHandler.c ****     if((cyBle_eventHandlerFlag & CYBLE_CALLBACK) != 0u)
 848:.\Generated_Source\PSoC4/BLE_eventHandler.c ****     {
 849:.\Generated_Source\PSoC4/BLE_eventHandler.c ****         CyBle_BcscIndicationEventHandler(eventParam);
 850:.\Generated_Source\PSoC4/BLE_eventHandler.c ****     }
 851:.\Generated_Source\PSoC4/BLE_eventHandler.c **** #endif /* CYBLE_BCS_CLIENT */
 852:.\Generated_Source\PSoC4/BLE_eventHandler.c **** #ifdef CYBLE_BLS_CLIENT
 853:.\Generated_Source\PSoC4/BLE_eventHandler.c ****     if((cyBle_eventHandlerFlag & CYBLE_CALLBACK) != 0u)
 854:.\Generated_Source\PSoC4/BLE_eventHandler.c ****     {
 855:.\Generated_Source\PSoC4/BLE_eventHandler.c ****         CyBle_BlscIndicationEventHandler(eventParam);
 856:.\Generated_Source\PSoC4/BLE_eventHandler.c ****     }
 857:.\Generated_Source\PSoC4/BLE_eventHandler.c **** #endif /* CYBLE_BLS_CLIENT */
 858:.\Generated_Source\PSoC4/BLE_eventHandler.c **** #ifdef CYBLE_CGMS_CLIENT
 859:.\Generated_Source\PSoC4/BLE_eventHandler.c ****     if((cyBle_eventHandlerFlag & CYBLE_CALLBACK) != 0u)
 860:.\Generated_Source\PSoC4/BLE_eventHandler.c ****     {
 861:.\Generated_Source\PSoC4/BLE_eventHandler.c ****         CyBle_CgmscIndicationEventHandler(eventParam);
 862:.\Generated_Source\PSoC4/BLE_eventHandler.c ****     }
 863:.\Generated_Source\PSoC4/BLE_eventHandler.c **** #endif /* CYBLE_CGMS_CLIENT */
 864:.\Generated_Source\PSoC4/BLE_eventHandler.c **** #ifdef CYBLE_CPS_CLIENT
 865:.\Generated_Source\PSoC4/BLE_eventHandler.c ****     if((cyBle_eventHandlerFlag & CYBLE_CALLBACK) != 0u)
 866:.\Generated_Source\PSoC4/BLE_eventHandler.c ****     {
 867:.\Generated_Source\PSoC4/BLE_eventHandler.c ****         CyBle_CpscIndicationEventHandler(eventParam);
 868:.\Generated_Source\PSoC4/BLE_eventHandler.c ****     }
 869:.\Generated_Source\PSoC4/BLE_eventHandler.c **** #endif /* CYBLE_CPS_CLIENT */
 870:.\Generated_Source\PSoC4/BLE_eventHandler.c **** #ifdef CYBLE_CSCS_CLIENT
 871:.\Generated_Source\PSoC4/BLE_eventHandler.c ****     if((cyBle_eventHandlerFlag & CYBLE_CALLBACK) != 0u)
 872:.\Generated_Source\PSoC4/BLE_eventHandler.c ****     {
 873:.\Generated_Source\PSoC4/BLE_eventHandler.c ****         CyBle_CscscIndicationEventHandler(eventParam);
 874:.\Generated_Source\PSoC4/BLE_eventHandler.c ****     }
 875:.\Generated_Source\PSoC4/BLE_eventHandler.c **** #endif /* CYBLE_CSCS_CLIENT */
 876:.\Generated_Source\PSoC4/BLE_eventHandler.c **** #ifdef CYBLE_ESS_CLIENT
 877:.\Generated_Source\PSoC4/BLE_eventHandler.c ****     if((cyBle_eventHandlerFlag & CYBLE_CALLBACK) != 0u)
 878:.\Generated_Source\PSoC4/BLE_eventHandler.c ****     {
 879:.\Generated_Source\PSoC4/BLE_eventHandler.c ****         CyBle_EsscIndicationEventHandler(eventParam);
 880:.\Generated_Source\PSoC4/BLE_eventHandler.c ****     }
 881:.\Generated_Source\PSoC4/BLE_eventHandler.c **** #endif /* CYBLE_ESS_CLIENT */
 882:.\Generated_Source\PSoC4/BLE_eventHandler.c **** #ifdef CYBLE_GLS_CLIENT
 883:.\Generated_Source\PSoC4/BLE_eventHandler.c ****     if((cyBle_eventHandlerFlag & CYBLE_CALLBACK) != 0u)
 884:.\Generated_Source\PSoC4/BLE_eventHandler.c ****     {
 885:.\Generated_Source\PSoC4/BLE_eventHandler.c ****         CyBle_GlscIndicationEventHandler(eventParam);
 886:.\Generated_Source\PSoC4/BLE_eventHandler.c ****     }
 887:.\Generated_Source\PSoC4/BLE_eventHandler.c **** #endif /* CYBLE_GLS_CLIENT */
 888:.\Generated_Source\PSoC4/BLE_eventHandler.c **** #ifdef CYBLE_HTS_CLIENT
 889:.\Generated_Source\PSoC4/BLE_eventHandler.c ****     if((cyBle_eventHandlerFlag & CYBLE_CALLBACK) != 0u)
 890:.\Generated_Source\PSoC4/BLE_eventHandler.c ****     {
 891:.\Generated_Source\PSoC4/BLE_eventHandler.c ****         CyBle_HtscIndicationEventHandler(eventParam);
 892:.\Generated_Source\PSoC4/BLE_eventHandler.c ****     }
 893:.\Generated_Source\PSoC4/BLE_eventHandler.c **** #endif /* CYBLE_HTS_CLIENT */
 894:.\Generated_Source\PSoC4/BLE_eventHandler.c **** #ifdef CYBLE_LNS_CLIENT
 895:.\Generated_Source\PSoC4/BLE_eventHandler.c ****     if((cyBle_eventHandlerFlag & CYBLE_CALLBACK) != 0u)
 896:.\Generated_Source\PSoC4/BLE_eventHandler.c ****     {
 897:.\Generated_Source\PSoC4/BLE_eventHandler.c ****         CyBle_LnscIndicationEventHandler(eventParam);
 898:.\Generated_Source\PSoC4/BLE_eventHandler.c ****     }
 899:.\Generated_Source\PSoC4/BLE_eventHandler.c **** #endif /* CYBLE_LNS_CLIENT */
ARM GAS  C:\Users\YBOURA~1\AppData\Local\Temp\cc3HigXd.s 			page 21


 900:.\Generated_Source\PSoC4/BLE_eventHandler.c **** #ifdef CYBLE_RSCS_CLIENT
 901:.\Generated_Source\PSoC4/BLE_eventHandler.c ****     if((cyBle_eventHandlerFlag & CYBLE_CALLBACK) != 0u)
 902:.\Generated_Source\PSoC4/BLE_eventHandler.c ****     {
 903:.\Generated_Source\PSoC4/BLE_eventHandler.c ****         CyBle_RscscIndicationEventHandler(eventParam);
 904:.\Generated_Source\PSoC4/BLE_eventHandler.c ****     }
 905:.\Generated_Source\PSoC4/BLE_eventHandler.c **** #endif /* CYBLE_RSCS_CLIENT */
 906:.\Generated_Source\PSoC4/BLE_eventHandler.c **** #ifdef CYBLE_UDS_CLIENT
 907:.\Generated_Source\PSoC4/BLE_eventHandler.c ****     if((cyBle_eventHandlerFlag & CYBLE_CALLBACK) != 0u)
 908:.\Generated_Source\PSoC4/BLE_eventHandler.c ****     {
 909:.\Generated_Source\PSoC4/BLE_eventHandler.c ****         CyBle_UdscIndicationEventHandler(eventParam);
 910:.\Generated_Source\PSoC4/BLE_eventHandler.c ****     }
 911:.\Generated_Source\PSoC4/BLE_eventHandler.c **** #endif /* CYBLE_UDS_CLIENT */
 912:.\Generated_Source\PSoC4/BLE_eventHandler.c **** #ifdef CYBLE_WPTS_CLIENT
 913:.\Generated_Source\PSoC4/BLE_eventHandler.c ****     if((cyBle_eventHandlerFlag & CYBLE_CALLBACK) != 0u)
 914:.\Generated_Source\PSoC4/BLE_eventHandler.c ****     {
 915:.\Generated_Source\PSoC4/BLE_eventHandler.c ****         CyBle_WptscIndicationEventHandler(eventParam);
 916:.\Generated_Source\PSoC4/BLE_eventHandler.c ****     }
 917:.\Generated_Source\PSoC4/BLE_eventHandler.c **** #endif /* CYBLE_WPTS_CLIENT */
 918:.\Generated_Source\PSoC4/BLE_eventHandler.c **** #ifdef CYBLE_WSS_CLIENT
 919:.\Generated_Source\PSoC4/BLE_eventHandler.c ****     if((cyBle_eventHandlerFlag & CYBLE_CALLBACK) != 0u)
 920:.\Generated_Source\PSoC4/BLE_eventHandler.c ****     {
 921:.\Generated_Source\PSoC4/BLE_eventHandler.c ****         CyBle_WsscIndicationEventHandler(eventParam);
 922:.\Generated_Source\PSoC4/BLE_eventHandler.c ****     }
 923:.\Generated_Source\PSoC4/BLE_eventHandler.c **** #endif /* CYBLE_WSS_CLIENT */
 924:.\Generated_Source\PSoC4/BLE_eventHandler.c **** }
 238              		.loc 1 924 0
 239 0008 BD46     		mov	sp, r7
 240 000a 02B0     		add	sp, sp, #8
 241              		@ sp needed
 242 000c 80BD     		pop	{r7, pc}
 243              		.cfi_endproc
 244              	.LFE6:
 245              		.size	CyBle_IndicationEventHandler, .-CyBle_IndicationEventHandler
 246              		.section	.text.CyBle_ReadResponseEventHandler,"ax",%progbits
 247              		.align	2
 248              		.code	16
 249              		.thumb_func
 250              		.type	CyBle_ReadResponseEventHandler, %function
 251              	CyBle_ReadResponseEventHandler:
 252              	.LFB7:
 925:.\Generated_Source\PSoC4/BLE_eventHandler.c **** 
 926:.\Generated_Source\PSoC4/BLE_eventHandler.c **** 
 927:.\Generated_Source\PSoC4/BLE_eventHandler.c **** 
 928:.\Generated_Source\PSoC4/BLE_eventHandler.c **** /******************************************************************************    
 929:.\Generated_Source\PSoC4/BLE_eventHandler.c **** * Function Name: CyBle_ReadResponseEventHandler
 930:.\Generated_Source\PSoC4/BLE_eventHandler.c **** ***************************************************************************//**
 931:.\Generated_Source\PSoC4/BLE_eventHandler.c **** * 
 932:.\Generated_Source\PSoC4/BLE_eventHandler.c **** *  Handles the Read Response event from BLE stack.
 933:.\Generated_Source\PSoC4/BLE_eventHandler.c **** * 
 934:.\Generated_Source\PSoC4/BLE_eventHandler.c **** *  \param eventParam: event parameter
 935:.\Generated_Source\PSoC4/BLE_eventHandler.c **** * 
 936:.\Generated_Source\PSoC4/BLE_eventHandler.c **** * \return
 937:.\Generated_Source\PSoC4/BLE_eventHandler.c **** *  None
 938:.\Generated_Source\PSoC4/BLE_eventHandler.c **** * 
 939:.\Generated_Source\PSoC4/BLE_eventHandler.c **** ******************************************************************************/
 940:.\Generated_Source\PSoC4/BLE_eventHandler.c **** static void CyBle_ReadResponseEventHandler(CYBLE_GATTC_READ_RSP_PARAM_T *eventParam)
 941:.\Generated_Source\PSoC4/BLE_eventHandler.c **** {
ARM GAS  C:\Users\YBOURA~1\AppData\Local\Temp\cc3HigXd.s 			page 22


 253              		.loc 1 941 0
 254              		.cfi_startproc
 255 0000 90B5     		push	{r4, r7, lr}
 256              		.cfi_def_cfa_offset 12
 257              		.cfi_offset 4, -12
 258              		.cfi_offset 7, -8
 259              		.cfi_offset 14, -4
 260 0002 89B0     		sub	sp, sp, #36
 261              		.cfi_def_cfa_offset 48
 262 0004 00AF     		add	r7, sp, #0
 263              		.cfi_def_cfa_register 7
 264 0006 7860     		str	r0, [r7, #4]
 942:.\Generated_Source\PSoC4/BLE_eventHandler.c **** #ifdef CYBLE_CUSTOM_CLIENT
 943:.\Generated_Source\PSoC4/BLE_eventHandler.c ****     /* Read response with 128-bit included service uuid */
 944:.\Generated_Source\PSoC4/BLE_eventHandler.c ****     if((CYBLE_CLIENT_STATE_INCL_DISCOVERING == CyBle_GetClientState()) &&
 265              		.loc 1 944 0
 266 0008 394B     		ldr	r3, .L15
 267 000a 1B78     		ldrb	r3, [r3]
 268 000c 022B     		cmp	r3, #2
 269 000e 6BD1     		bne	.L10
 945:.\Generated_Source\PSoC4/BLE_eventHandler.c ****        (cyBle_discInclInfo.inclDefHandle != 0u))
 270              		.loc 1 945 0 discriminator 1
 271 0010 384B     		ldr	r3, .L15+4
 272 0012 1B88     		ldrh	r3, [r3]
 944:.\Generated_Source\PSoC4/BLE_eventHandler.c ****        (cyBle_discInclInfo.inclDefHandle != 0u))
 273              		.loc 1 944 0 discriminator 1
 274 0014 002B     		cmp	r3, #0
 275 0016 67D0     		beq	.L10
 276              	.LBB3:
 946:.\Generated_Source\PSoC4/BLE_eventHandler.c ****     {
 947:.\Generated_Source\PSoC4/BLE_eventHandler.c ****         CYBLE_DISC_SRVC128_INFO_T discServInfo;
 948:.\Generated_Source\PSoC4/BLE_eventHandler.c **** 
 949:.\Generated_Source\PSoC4/BLE_eventHandler.c ****         /* Store service range */
 950:.\Generated_Source\PSoC4/BLE_eventHandler.c ****         discServInfo.range = cyBle_discInclInfo.inclHandleRange;
 277              		.loc 1 950 0
 278 0018 0C23     		mov	r3, #12
 279 001a F918     		add	r1, r7, r3
 280 001c 354B     		ldr	r3, .L15+4
 281 001e 0222     		mov	r2, #2
 282 0020 9B18     		add	r3, r3, r2
 283 0022 0422     		mov	r2, #4
 284 0024 081C     		mov	r0, r1
 285 0026 191C     		mov	r1, r3
 286 0028 FFF7FEFF 		bl	memcpy
 951:.\Generated_Source\PSoC4/BLE_eventHandler.c ****         (void)memcpy((void *) discServInfo.uuid.uuid128.value, (void *)eventParam->value.val, event
 287              		.loc 1 951 0
 288 002c 7B68     		ldr	r3, [r7, #4]
 289 002e 5A68     		ldr	r2, [r3, #4]
 290 0030 7B68     		ldr	r3, [r7, #4]
 291 0032 1B89     		ldrh	r3, [r3, #8]
 292 0034 1C1C     		mov	r4, r3
 293 0036 0C23     		mov	r3, #12
 294 0038 FB18     		add	r3, r7, r3
 295 003a 0433     		add	r3, r3, #4
 296 003c 181C     		mov	r0, r3
 297 003e 111C     		mov	r1, r2
 298 0040 221C     		mov	r2, r4
ARM GAS  C:\Users\YBOURA~1\AppData\Local\Temp\cc3HigXd.s 			page 23


 299 0042 FFF7FEFF 		bl	memcpy
 952:.\Generated_Source\PSoC4/BLE_eventHandler.c ****         CyBle_CustomcDiscoverServiceEventHandler(&discServInfo);
 300              		.loc 1 952 0
 301 0046 0C23     		mov	r3, #12
 302 0048 FB18     		add	r3, r7, r3
 303 004a 181C     		mov	r0, r3
 304 004c FFF7FEFF 		bl	CyBle_CustomcDiscoverServiceEventHandler
 953:.\Generated_Source\PSoC4/BLE_eventHandler.c ****         
 954:.\Generated_Source\PSoC4/BLE_eventHandler.c ****         /* Re-initiate CyBle_GattcFindIncludedServices function, setting the start
 955:.\Generated_Source\PSoC4/BLE_eventHandler.c ****            handle to the attribute handle which is placed next to the one used in
 956:.\Generated_Source\PSoC4/BLE_eventHandler.c ****            the above step.
 957:.\Generated_Source\PSoC4/BLE_eventHandler.c ****         */
 958:.\Generated_Source\PSoC4/BLE_eventHandler.c ****         discServInfo.range.startHandle = cyBle_discInclInfo.inclDefHandle + 1;
 305              		.loc 1 958 0
 306 0050 284B     		ldr	r3, .L15+4
 307 0052 1B88     		ldrh	r3, [r3]
 308 0054 0133     		add	r3, r3, #1
 309 0056 9AB2     		uxth	r2, r3
 310 0058 0C23     		mov	r3, #12
 311 005a FB18     		add	r3, r7, r3
 312 005c 1A80     		strh	r2, [r3]
 959:.\Generated_Source\PSoC4/BLE_eventHandler.c ****         discServInfo.range.endHandle = cyBle_serverInfo[cyBle_disCount].range.endHandle;
 313              		.loc 1 959 0
 314 005e 264B     		ldr	r3, .L15+8
 315 0060 1B78     		ldrb	r3, [r3]
 316 0062 191C     		mov	r1, r3
 317 0064 254A     		ldr	r2, .L15+12
 318 0066 0B1C     		mov	r3, r1
 319 0068 5B00     		lsl	r3, r3, #1
 320 006a 5B18     		add	r3, r3, r1
 321 006c 5B00     		lsl	r3, r3, #1
 322 006e D318     		add	r3, r2, r3
 323 0070 5A88     		ldrh	r2, [r3, #2]
 324 0072 0C23     		mov	r3, #12
 325 0074 FB18     		add	r3, r7, r3
 326 0076 5A80     		strh	r2, [r3, #2]
 960:.\Generated_Source\PSoC4/BLE_eventHandler.c ****         if(discServInfo.range.startHandle <= discServInfo.range.endHandle)
 327              		.loc 1 960 0
 328 0078 0C23     		mov	r3, #12
 329 007a FB18     		add	r3, r7, r3
 330 007c 1A88     		ldrh	r2, [r3]
 331 007e 0C23     		mov	r3, #12
 332 0080 FB18     		add	r3, r7, r3
 333 0082 5B88     		ldrh	r3, [r3, #2]
 334 0084 9A42     		cmp	r2, r3
 335 0086 21D8     		bhi	.L12
 961:.\Generated_Source\PSoC4/BLE_eventHandler.c ****         {
 962:.\Generated_Source\PSoC4/BLE_eventHandler.c ****             if(CYBLE_ERROR_OK != CyBle_GattcFindIncludedServices(cyBle_connHandle, &discServInfo.ra
 336              		.loc 1 962 0
 337 0088 1D4B     		ldr	r3, .L15+16
 338 008a 0C22     		mov	r2, #12
 339 008c B918     		add	r1, r7, r2
 340 008e 1A78     		ldrb	r2, [r3]
 341 0090 5B78     		ldrb	r3, [r3, #1]
 342 0092 1B02     		lsl	r3, r3, #8
 343 0094 1A43     		orr	r2, r3
 344 0096 0023     		mov	r3, #0
ARM GAS  C:\Users\YBOURA~1\AppData\Local\Temp\cc3HigXd.s 			page 24


 345 0098 1204     		lsl	r2, r2, #16
 346 009a 120C     		lsr	r2, r2, #16
 347 009c 1B0C     		lsr	r3, r3, #16
 348 009e 1B04     		lsl	r3, r3, #16
 349 00a0 1343     		orr	r3, r2
 350 00a2 181C     		mov	r0, r3
 351 00a4 FFF7FEFF 		bl	CyBle_GattcFindIncludedServices
 352 00a8 031E     		sub	r3, r0, #0
 353 00aa 12D0     		beq	.L14
 963:.\Generated_Source\PSoC4/BLE_eventHandler.c ****             {
 964:.\Generated_Source\PSoC4/BLE_eventHandler.c ****                 CyBle_ApplCallback(CYBLE_EVT_GATTC_INCL_DISCOVERY_FAILED, NULL);
 354              		.loc 1 964 0
 355 00ac 154B     		ldr	r3, .L15+20
 356 00ae 1B68     		ldr	r3, [r3]
 357 00b0 8422     		mov	r2, #132
 358 00b2 5200     		lsl	r2, r2, #1
 359 00b4 101C     		mov	r0, r2
 360 00b6 0021     		mov	r1, #0
 361 00b8 9847     		blx	r3
 965:.\Generated_Source\PSoC4/BLE_eventHandler.c ****                 cyBle_eventHandlerFlag &= (uint8)~CYBLE_AUTO_DISCOVERY;
 362              		.loc 1 965 0
 363 00ba 134B     		ldr	r3, .L15+24
 364 00bc 1B78     		ldrb	r3, [r3]
 365 00be DBB2     		uxtb	r3, r3
 366 00c0 0222     		mov	r2, #2
 367 00c2 9343     		bic	r3, r2
 368 00c4 DAB2     		uxtb	r2, r3
 369 00c6 104B     		ldr	r3, .L15+24
 370 00c8 1A70     		strb	r2, [r3]
 371 00ca 02E0     		b	.L14
 372              	.L12:
 966:.\Generated_Source\PSoC4/BLE_eventHandler.c ****             }
 967:.\Generated_Source\PSoC4/BLE_eventHandler.c ****         }
 968:.\Generated_Source\PSoC4/BLE_eventHandler.c ****         else /* Continue discovery of the following service */
 969:.\Generated_Source\PSoC4/BLE_eventHandler.c ****         {
 970:.\Generated_Source\PSoC4/BLE_eventHandler.c ****             CyBle_NextInclDiscovery(CYBLE_DISCOVERY_CONTINUE);
 373              		.loc 1 970 0
 374 00cc 0120     		mov	r0, #1
 375 00ce FFF7FEFF 		bl	CyBle_NextInclDiscovery
 376              	.L14:
 971:.\Generated_Source\PSoC4/BLE_eventHandler.c ****         }
 972:.\Generated_Source\PSoC4/BLE_eventHandler.c ****         
 973:.\Generated_Source\PSoC4/BLE_eventHandler.c ****         cyBle_eventHandlerFlag &= (uint8)~CYBLE_CALLBACK;
 377              		.loc 1 973 0 discriminator 1
 378 00d2 0D4B     		ldr	r3, .L15+24
 379 00d4 1B78     		ldrb	r3, [r3]
 380 00d6 DBB2     		uxtb	r3, r3
 381 00d8 0122     		mov	r2, #1
 382 00da 9343     		bic	r3, r2
 383 00dc DAB2     		uxtb	r2, r3
 384 00de 0A4B     		ldr	r3, .L15+24
 385 00e0 1A70     		strb	r2, [r3]
 974:.\Generated_Source\PSoC4/BLE_eventHandler.c ****         cyBle_discInclInfo.inclDefHandle = 0u;
 386              		.loc 1 974 0 discriminator 1
 387 00e2 044B     		ldr	r3, .L15+4
 388 00e4 0022     		mov	r2, #0
 389 00e6 1A80     		strh	r2, [r3]
ARM GAS  C:\Users\YBOURA~1\AppData\Local\Temp\cc3HigXd.s 			page 25


 390              	.L10:
 391              	.LBE3:
 975:.\Generated_Source\PSoC4/BLE_eventHandler.c ****         
 976:.\Generated_Source\PSoC4/BLE_eventHandler.c ****     }
 977:.\Generated_Source\PSoC4/BLE_eventHandler.c **** #endif /* CYBLE_CUSTOM_CLIENT */
 978:.\Generated_Source\PSoC4/BLE_eventHandler.c **** #ifdef CYBLE_ANCS_CLIENT
 979:.\Generated_Source\PSoC4/BLE_eventHandler.c ****     if((cyBle_eventHandlerFlag & CYBLE_CALLBACK) != 0u)
 980:.\Generated_Source\PSoC4/BLE_eventHandler.c ****     {
 981:.\Generated_Source\PSoC4/BLE_eventHandler.c ****         CyBle_AncscReadResponseEventHandler(eventParam);
 982:.\Generated_Source\PSoC4/BLE_eventHandler.c ****     }
 983:.\Generated_Source\PSoC4/BLE_eventHandler.c **** #endif /* CYBLE_ANCS_CLIENT */
 984:.\Generated_Source\PSoC4/BLE_eventHandler.c **** #ifdef CYBLE_ANS_CLIENT
 985:.\Generated_Source\PSoC4/BLE_eventHandler.c ****     if((cyBle_eventHandlerFlag & CYBLE_CALLBACK) != 0u)
 986:.\Generated_Source\PSoC4/BLE_eventHandler.c ****     {
 987:.\Generated_Source\PSoC4/BLE_eventHandler.c ****         CyBle_AnscReadResponseEventHandler(eventParam);
 988:.\Generated_Source\PSoC4/BLE_eventHandler.c ****     }
 989:.\Generated_Source\PSoC4/BLE_eventHandler.c **** #endif /* CYBLE_ANS_CLIENT */
 990:.\Generated_Source\PSoC4/BLE_eventHandler.c **** #ifdef CYBLE_BAS_CLIENT
 991:.\Generated_Source\PSoC4/BLE_eventHandler.c ****     if((cyBle_eventHandlerFlag & CYBLE_CALLBACK) != 0u)
 992:.\Generated_Source\PSoC4/BLE_eventHandler.c ****     {
 993:.\Generated_Source\PSoC4/BLE_eventHandler.c ****         CyBle_BascReadResponseEventHandler(eventParam);
 994:.\Generated_Source\PSoC4/BLE_eventHandler.c ****     }
 995:.\Generated_Source\PSoC4/BLE_eventHandler.c **** #endif /* CYBLE_BAS_CLIENT */
 996:.\Generated_Source\PSoC4/BLE_eventHandler.c **** #ifdef CYBLE_BLS_CLIENT
 997:.\Generated_Source\PSoC4/BLE_eventHandler.c ****     if((cyBle_eventHandlerFlag & CYBLE_CALLBACK) != 0u)
 998:.\Generated_Source\PSoC4/BLE_eventHandler.c ****     {
 999:.\Generated_Source\PSoC4/BLE_eventHandler.c ****         CyBle_BlscReadResponseEventHandler(eventParam);
1000:.\Generated_Source\PSoC4/BLE_eventHandler.c ****     }
1001:.\Generated_Source\PSoC4/BLE_eventHandler.c **** #endif /* CYBLE_BLS_CLIENT */
1002:.\Generated_Source\PSoC4/BLE_eventHandler.c **** #ifdef CYBLE_BCS_CLIENT
1003:.\Generated_Source\PSoC4/BLE_eventHandler.c ****     if((cyBle_eventHandlerFlag & CYBLE_CALLBACK) != 0u)
1004:.\Generated_Source\PSoC4/BLE_eventHandler.c ****     {
1005:.\Generated_Source\PSoC4/BLE_eventHandler.c ****         CyBle_BcscReadResponseEventHandler(eventParam);
1006:.\Generated_Source\PSoC4/BLE_eventHandler.c ****     }
1007:.\Generated_Source\PSoC4/BLE_eventHandler.c **** #endif /* CYBLE_BCS_CLIENT */
1008:.\Generated_Source\PSoC4/BLE_eventHandler.c **** #ifdef CYBLE_BMS_CLIENT
1009:.\Generated_Source\PSoC4/BLE_eventHandler.c ****     if((cyBle_eventHandlerFlag & CYBLE_CALLBACK) != 0u)
1010:.\Generated_Source\PSoC4/BLE_eventHandler.c ****     {
1011:.\Generated_Source\PSoC4/BLE_eventHandler.c ****         CyBle_BmscReadResponseEventHandler(eventParam);
1012:.\Generated_Source\PSoC4/BLE_eventHandler.c ****     }
1013:.\Generated_Source\PSoC4/BLE_eventHandler.c **** #endif /* CYBLE_BMS_CLIENT */
1014:.\Generated_Source\PSoC4/BLE_eventHandler.c **** #ifdef CYBLE_CGMS_CLIENT
1015:.\Generated_Source\PSoC4/BLE_eventHandler.c ****     if((cyBle_eventHandlerFlag & CYBLE_CALLBACK) != 0u)
1016:.\Generated_Source\PSoC4/BLE_eventHandler.c ****     {
1017:.\Generated_Source\PSoC4/BLE_eventHandler.c ****         CyBle_CgmscReadResponseEventHandler(eventParam);
1018:.\Generated_Source\PSoC4/BLE_eventHandler.c ****     }
1019:.\Generated_Source\PSoC4/BLE_eventHandler.c **** #endif /* CYBLE_CGMS_CLIENT */
1020:.\Generated_Source\PSoC4/BLE_eventHandler.c **** #ifdef CYBLE_CPS_CLIENT
1021:.\Generated_Source\PSoC4/BLE_eventHandler.c ****     if((cyBle_eventHandlerFlag & CYBLE_CALLBACK) != 0u)
1022:.\Generated_Source\PSoC4/BLE_eventHandler.c ****     {
1023:.\Generated_Source\PSoC4/BLE_eventHandler.c ****         CyBle_CpscReadResponseEventHandler(eventParam);
1024:.\Generated_Source\PSoC4/BLE_eventHandler.c ****     }
1025:.\Generated_Source\PSoC4/BLE_eventHandler.c **** #endif /* CYBLE_CPS_CLIENT */
1026:.\Generated_Source\PSoC4/BLE_eventHandler.c **** #ifdef CYBLE_CSCS_CLIENT
1027:.\Generated_Source\PSoC4/BLE_eventHandler.c ****     if((cyBle_eventHandlerFlag & CYBLE_CALLBACK) != 0u)
1028:.\Generated_Source\PSoC4/BLE_eventHandler.c ****     {
1029:.\Generated_Source\PSoC4/BLE_eventHandler.c ****         CyBle_CscscReadResponseEventHandler(eventParam);
ARM GAS  C:\Users\YBOURA~1\AppData\Local\Temp\cc3HigXd.s 			page 26


1030:.\Generated_Source\PSoC4/BLE_eventHandler.c ****     }
1031:.\Generated_Source\PSoC4/BLE_eventHandler.c **** #endif /* CYBLE_CSCS_CLIENT */
1032:.\Generated_Source\PSoC4/BLE_eventHandler.c **** #ifdef CYBLE_CTS_CLIENT
1033:.\Generated_Source\PSoC4/BLE_eventHandler.c ****     if((cyBle_eventHandlerFlag & CYBLE_CALLBACK) != 0u)
1034:.\Generated_Source\PSoC4/BLE_eventHandler.c ****     {
1035:.\Generated_Source\PSoC4/BLE_eventHandler.c ****         CyBle_CtscReadResponseEventHandler(eventParam);
1036:.\Generated_Source\PSoC4/BLE_eventHandler.c ****     }
1037:.\Generated_Source\PSoC4/BLE_eventHandler.c **** #endif /* CYBLE_BAS_CLIENT */
1038:.\Generated_Source\PSoC4/BLE_eventHandler.c **** #ifdef CYBLE_DIS_CLIENT
1039:.\Generated_Source\PSoC4/BLE_eventHandler.c ****     if((cyBle_eventHandlerFlag & CYBLE_CALLBACK) != 0u)
1040:.\Generated_Source\PSoC4/BLE_eventHandler.c ****     {
1041:.\Generated_Source\PSoC4/BLE_eventHandler.c ****         CyBle_DiscReadResponseEventHandler(eventParam);
1042:.\Generated_Source\PSoC4/BLE_eventHandler.c ****     }
1043:.\Generated_Source\PSoC4/BLE_eventHandler.c **** #endif /* CYBLE_DIS_CLIENT */
1044:.\Generated_Source\PSoC4/BLE_eventHandler.c **** #ifdef CYBLE_ESS_CLIENT
1045:.\Generated_Source\PSoC4/BLE_eventHandler.c ****     if((cyBle_eventHandlerFlag & CYBLE_CALLBACK) != 0u)
1046:.\Generated_Source\PSoC4/BLE_eventHandler.c ****     {
1047:.\Generated_Source\PSoC4/BLE_eventHandler.c ****         CyBle_EsscReadResponseEventHandler(eventParam);
1048:.\Generated_Source\PSoC4/BLE_eventHandler.c ****     }
1049:.\Generated_Source\PSoC4/BLE_eventHandler.c **** #endif /* CYBLE_ESS_CLIENT */
1050:.\Generated_Source\PSoC4/BLE_eventHandler.c **** #ifdef CYBLE_GLS_CLIENT
1051:.\Generated_Source\PSoC4/BLE_eventHandler.c ****     if((cyBle_eventHandlerFlag & CYBLE_CALLBACK) != 0u)
1052:.\Generated_Source\PSoC4/BLE_eventHandler.c ****     {
1053:.\Generated_Source\PSoC4/BLE_eventHandler.c ****         CyBle_GlscReadResponseEventHandler(eventParam);
1054:.\Generated_Source\PSoC4/BLE_eventHandler.c ****     }
1055:.\Generated_Source\PSoC4/BLE_eventHandler.c **** #endif /* CYBLE_GLS_CLIENT */
1056:.\Generated_Source\PSoC4/BLE_eventHandler.c **** #ifdef CYBLE_HIDS_CLIENT
1057:.\Generated_Source\PSoC4/BLE_eventHandler.c ****     if((cyBle_eventHandlerFlag & CYBLE_CALLBACK) != 0u)
1058:.\Generated_Source\PSoC4/BLE_eventHandler.c ****     {
1059:.\Generated_Source\PSoC4/BLE_eventHandler.c ****         CyBle_HidscReadResponseEventHandler(eventParam);
1060:.\Generated_Source\PSoC4/BLE_eventHandler.c ****     }
1061:.\Generated_Source\PSoC4/BLE_eventHandler.c **** #endif /* CYBLE_HIDS_CLIENT */
1062:.\Generated_Source\PSoC4/BLE_eventHandler.c **** #ifdef CYBLE_HRS_CLIENT
1063:.\Generated_Source\PSoC4/BLE_eventHandler.c ****     if((cyBle_eventHandlerFlag & CYBLE_CALLBACK) != 0u)
1064:.\Generated_Source\PSoC4/BLE_eventHandler.c ****     {
1065:.\Generated_Source\PSoC4/BLE_eventHandler.c ****         CyBle_HrscReadResponseEventHandler(eventParam);
1066:.\Generated_Source\PSoC4/BLE_eventHandler.c ****     }
1067:.\Generated_Source\PSoC4/BLE_eventHandler.c **** #endif /* CYBLE_HRS_CLIENT */
1068:.\Generated_Source\PSoC4/BLE_eventHandler.c **** #ifdef CYBLE_HTS_CLIENT
1069:.\Generated_Source\PSoC4/BLE_eventHandler.c ****     if((cyBle_eventHandlerFlag & CYBLE_CALLBACK) != 0u)
1070:.\Generated_Source\PSoC4/BLE_eventHandler.c ****     {
1071:.\Generated_Source\PSoC4/BLE_eventHandler.c ****         CyBle_HtscReadResponseEventHandler(eventParam);
1072:.\Generated_Source\PSoC4/BLE_eventHandler.c ****     }
1073:.\Generated_Source\PSoC4/BLE_eventHandler.c **** #endif /* CYBLE_HTS_CLIENT */
1074:.\Generated_Source\PSoC4/BLE_eventHandler.c **** #ifdef CYBLE_LLS_CLIENT
1075:.\Generated_Source\PSoC4/BLE_eventHandler.c ****     if((cyBle_eventHandlerFlag & CYBLE_CALLBACK) != 0u)
1076:.\Generated_Source\PSoC4/BLE_eventHandler.c ****     {
1077:.\Generated_Source\PSoC4/BLE_eventHandler.c ****         CyBle_LlscReadResponseEventHandler(eventParam);
1078:.\Generated_Source\PSoC4/BLE_eventHandler.c ****     }
1079:.\Generated_Source\PSoC4/BLE_eventHandler.c **** #endif /* CYBLE_LLS_CLIENT */
1080:.\Generated_Source\PSoC4/BLE_eventHandler.c **** #ifdef CYBLE_LNS_CLIENT
1081:.\Generated_Source\PSoC4/BLE_eventHandler.c ****     if((cyBle_eventHandlerFlag & CYBLE_CALLBACK) != 0u)
1082:.\Generated_Source\PSoC4/BLE_eventHandler.c ****     {
1083:.\Generated_Source\PSoC4/BLE_eventHandler.c ****         CyBle_LnscReadResponseEventHandler(eventParam);
1084:.\Generated_Source\PSoC4/BLE_eventHandler.c ****     }
1085:.\Generated_Source\PSoC4/BLE_eventHandler.c **** #endif /* CYBLE_LNS_CLIENT */
1086:.\Generated_Source\PSoC4/BLE_eventHandler.c **** #ifdef CYBLE_NDCS_CLIENT
ARM GAS  C:\Users\YBOURA~1\AppData\Local\Temp\cc3HigXd.s 			page 27


1087:.\Generated_Source\PSoC4/BLE_eventHandler.c ****     if((cyBle_eventHandlerFlag & CYBLE_CALLBACK) != 0u)
1088:.\Generated_Source\PSoC4/BLE_eventHandler.c ****     {
1089:.\Generated_Source\PSoC4/BLE_eventHandler.c ****         CyBle_NdcscReadResponseEventHandler(eventParam);
1090:.\Generated_Source\PSoC4/BLE_eventHandler.c ****     }
1091:.\Generated_Source\PSoC4/BLE_eventHandler.c **** #endif /* CYBLE_NDCS_CLIENT */
1092:.\Generated_Source\PSoC4/BLE_eventHandler.c **** #ifdef CYBLE_PASS_CLIENT
1093:.\Generated_Source\PSoC4/BLE_eventHandler.c ****     if((cyBle_eventHandlerFlag & CYBLE_CALLBACK) != 0u)
1094:.\Generated_Source\PSoC4/BLE_eventHandler.c ****     {
1095:.\Generated_Source\PSoC4/BLE_eventHandler.c ****         CyBle_PasscReadResponseEventHandler(eventParam);
1096:.\Generated_Source\PSoC4/BLE_eventHandler.c ****     }
1097:.\Generated_Source\PSoC4/BLE_eventHandler.c **** #endif /* CYBLE_PASS_CLIENT */
1098:.\Generated_Source\PSoC4/BLE_eventHandler.c **** #ifdef CYBLE_RSCS_CLIENT
1099:.\Generated_Source\PSoC4/BLE_eventHandler.c ****     if((cyBle_eventHandlerFlag & CYBLE_CALLBACK) != 0u)
1100:.\Generated_Source\PSoC4/BLE_eventHandler.c ****     {
1101:.\Generated_Source\PSoC4/BLE_eventHandler.c ****         CyBle_RscscReadResponseEventHandler(eventParam);
1102:.\Generated_Source\PSoC4/BLE_eventHandler.c ****     }
1103:.\Generated_Source\PSoC4/BLE_eventHandler.c **** #endif /* CYBLE_RSCS_CLIENT */
1104:.\Generated_Source\PSoC4/BLE_eventHandler.c **** #ifdef CYBLE_RTUS_CLIENT
1105:.\Generated_Source\PSoC4/BLE_eventHandler.c ****     if((cyBle_eventHandlerFlag & CYBLE_CALLBACK) != 0u)
1106:.\Generated_Source\PSoC4/BLE_eventHandler.c ****     {
1107:.\Generated_Source\PSoC4/BLE_eventHandler.c ****         CyBle_RtuscReadResponseEventHandler(eventParam);
1108:.\Generated_Source\PSoC4/BLE_eventHandler.c ****     }
1109:.\Generated_Source\PSoC4/BLE_eventHandler.c **** #endif /* CYBLE_RTUS_CLIENT */
1110:.\Generated_Source\PSoC4/BLE_eventHandler.c **** #ifdef CYBLE_SCPS_CLIENT
1111:.\Generated_Source\PSoC4/BLE_eventHandler.c ****     if((cyBle_eventHandlerFlag & CYBLE_CALLBACK) != 0u)
1112:.\Generated_Source\PSoC4/BLE_eventHandler.c ****     {
1113:.\Generated_Source\PSoC4/BLE_eventHandler.c ****         CyBle_ScpscReadResponseEventHandler(eventParam);
1114:.\Generated_Source\PSoC4/BLE_eventHandler.c ****     }
1115:.\Generated_Source\PSoC4/BLE_eventHandler.c **** #endif /* CYBLE_SCPS_CLIENT */
1116:.\Generated_Source\PSoC4/BLE_eventHandler.c **** #ifdef CYBLE_TPS_CLIENT
1117:.\Generated_Source\PSoC4/BLE_eventHandler.c ****     if((cyBle_eventHandlerFlag & CYBLE_CALLBACK) != 0u)
1118:.\Generated_Source\PSoC4/BLE_eventHandler.c ****     {
1119:.\Generated_Source\PSoC4/BLE_eventHandler.c ****         CyBle_TpscReadResponseEventHandler(eventParam);
1120:.\Generated_Source\PSoC4/BLE_eventHandler.c ****     }
1121:.\Generated_Source\PSoC4/BLE_eventHandler.c **** #endif /* CYBLE_TPS_CLIENT */
1122:.\Generated_Source\PSoC4/BLE_eventHandler.c **** #ifdef CYBLE_UDS_CLIENT
1123:.\Generated_Source\PSoC4/BLE_eventHandler.c ****     if((cyBle_eventHandlerFlag & CYBLE_CALLBACK) != 0u)
1124:.\Generated_Source\PSoC4/BLE_eventHandler.c ****     {
1125:.\Generated_Source\PSoC4/BLE_eventHandler.c ****         CyBle_UdscReadResponseEventHandler(eventParam);
1126:.\Generated_Source\PSoC4/BLE_eventHandler.c ****     }
1127:.\Generated_Source\PSoC4/BLE_eventHandler.c **** #endif /* CYBLE_UDS_CLIENT */
1128:.\Generated_Source\PSoC4/BLE_eventHandler.c **** #ifdef CYBLE_WPTS_CLIENT
1129:.\Generated_Source\PSoC4/BLE_eventHandler.c ****     if((cyBle_eventHandlerFlag & CYBLE_CALLBACK) != 0u)
1130:.\Generated_Source\PSoC4/BLE_eventHandler.c ****     {
1131:.\Generated_Source\PSoC4/BLE_eventHandler.c ****         CyBle_WptscReadResponseEventHandler(eventParam);
1132:.\Generated_Source\PSoC4/BLE_eventHandler.c ****     }
1133:.\Generated_Source\PSoC4/BLE_eventHandler.c **** #endif /* CYBLE_WPTS_CLIENT */
1134:.\Generated_Source\PSoC4/BLE_eventHandler.c **** #ifdef CYBLE_WSS_CLIENT
1135:.\Generated_Source\PSoC4/BLE_eventHandler.c ****     if((cyBle_eventHandlerFlag & CYBLE_CALLBACK) != 0u)
1136:.\Generated_Source\PSoC4/BLE_eventHandler.c ****     {
1137:.\Generated_Source\PSoC4/BLE_eventHandler.c ****         CyBle_WsscReadResponseEventHandler(eventParam);
1138:.\Generated_Source\PSoC4/BLE_eventHandler.c ****     }
1139:.\Generated_Source\PSoC4/BLE_eventHandler.c **** #endif /* CYBLE_WSS_CLIENT */
1140:.\Generated_Source\PSoC4/BLE_eventHandler.c **** }
 392              		.loc 1 1140 0
 393 00e8 BD46     		mov	sp, r7
 394 00ea 09B0     		add	sp, sp, #36
ARM GAS  C:\Users\YBOURA~1\AppData\Local\Temp\cc3HigXd.s 			page 28


 395              		@ sp needed
 396 00ec 90BD     		pop	{r4, r7, pc}
 397              	.L16:
 398 00ee C046     		.align	2
 399              	.L15:
 400 00f0 00000000 		.word	cyBle_clientState
 401 00f4 04000000 		.word	cyBle_discInclInfo
 402 00f8 00000000 		.word	cyBle_disCount
 403 00fc 00000000 		.word	cyBle_serverInfo
 404 0100 00000000 		.word	cyBle_connHandle
 405 0104 00000000 		.word	CyBle_ApplCallback
 406 0108 00000000 		.word	cyBle_eventHandlerFlag
 407              		.cfi_endproc
 408              	.LFE7:
 409              		.size	CyBle_ReadResponseEventHandler, .-CyBle_ReadResponseEventHandler
 410              		.section	.text.CyBle_GattDisconnectEventHandler,"ax",%progbits
 411              		.align	2
 412              		.code	16
 413              		.thumb_func
 414              		.type	CyBle_GattDisconnectEventHandler, %function
 415              	CyBle_GattDisconnectEventHandler:
 416              	.LFB8:
1141:.\Generated_Source\PSoC4/BLE_eventHandler.c **** #endif /* CYBLE_GATT_ROLE_CLIENT */
1142:.\Generated_Source\PSoC4/BLE_eventHandler.c **** 
1143:.\Generated_Source\PSoC4/BLE_eventHandler.c **** 
1144:.\Generated_Source\PSoC4/BLE_eventHandler.c **** /****************************************************************************** 
1145:.\Generated_Source\PSoC4/BLE_eventHandler.c **** * Function Name: CyBle_DisconnectEventHandler
1146:.\Generated_Source\PSoC4/BLE_eventHandler.c **** ***************************************************************************//**
1147:.\Generated_Source\PSoC4/BLE_eventHandler.c **** * 
1148:.\Generated_Source\PSoC4/BLE_eventHandler.c **** *  Handles the GATT Disconnection event from the BLE stack.
1149:.\Generated_Source\PSoC4/BLE_eventHandler.c **** * 
1150:.\Generated_Source\PSoC4/BLE_eventHandler.c **** * \return
1151:.\Generated_Source\PSoC4/BLE_eventHandler.c **** *  None
1152:.\Generated_Source\PSoC4/BLE_eventHandler.c **** * 
1153:.\Generated_Source\PSoC4/BLE_eventHandler.c **** ******************************************************************************/
1154:.\Generated_Source\PSoC4/BLE_eventHandler.c **** static void CyBle_GattDisconnectEventHandler(void)
1155:.\Generated_Source\PSoC4/BLE_eventHandler.c **** {
 417              		.loc 1 1155 0
 418              		.cfi_startproc
 419 0000 80B5     		push	{r7, lr}
 420              		.cfi_def_cfa_offset 8
 421              		.cfi_offset 7, -8
 422              		.cfi_offset 14, -4
 423 0002 00AF     		add	r7, sp, #0
 424              		.cfi_def_cfa_register 7
1156:.\Generated_Source\PSoC4/BLE_eventHandler.c ****     cyBle_connHandle.attId = 0u;
 425              		.loc 1 1156 0
 426 0004 094B     		ldr	r3, .L20
 427 0006 0022     		mov	r2, #0
 428 0008 5A70     		strb	r2, [r3, #1]
1157:.\Generated_Source\PSoC4/BLE_eventHandler.c ****     cyBle_connHandle.bdHandle = 0u;
 429              		.loc 1 1157 0
 430 000a 084B     		ldr	r3, .L20
 431 000c 0022     		mov	r2, #0
 432 000e 1A70     		strb	r2, [r3]
1158:.\Generated_Source\PSoC4/BLE_eventHandler.c ****     
1159:.\Generated_Source\PSoC4/BLE_eventHandler.c ****     #if (CYBLE_GATT_ROLE_CLIENT)
ARM GAS  C:\Users\YBOURA~1\AppData\Local\Temp\cc3HigXd.s 			page 29


1160:.\Generated_Source\PSoC4/BLE_eventHandler.c ****         if(CYBLE_CLIENT_STATE_DISCOVERED == CyBle_GetClientState())
 433              		.loc 1 1160 0
 434 0010 074B     		ldr	r3, .L20+4
 435 0012 1B78     		ldrb	r3, [r3]
 436 0014 052B     		cmp	r3, #5
 437 0016 03D1     		bne	.L18
1161:.\Generated_Source\PSoC4/BLE_eventHandler.c ****         {
1162:.\Generated_Source\PSoC4/BLE_eventHandler.c ****             CyBle_SetClientState(CYBLE_CLIENT_STATE_DISCONNECTED_DISCOVERED);
 438              		.loc 1 1162 0
 439 0018 054B     		ldr	r3, .L20+4
 440 001a 0722     		mov	r2, #7
 441 001c 1A70     		strb	r2, [r3]
 442 001e 02E0     		b	.L17
 443              	.L18:
1163:.\Generated_Source\PSoC4/BLE_eventHandler.c ****         }
1164:.\Generated_Source\PSoC4/BLE_eventHandler.c ****         else
1165:.\Generated_Source\PSoC4/BLE_eventHandler.c ****         {
1166:.\Generated_Source\PSoC4/BLE_eventHandler.c ****             CyBle_SetClientState(CYBLE_CLIENT_STATE_DISCONNECTED);
 444              		.loc 1 1166 0
 445 0020 034B     		ldr	r3, .L20+4
 446 0022 0822     		mov	r2, #8
 447 0024 1A70     		strb	r2, [r3]
 448              	.L17:
1167:.\Generated_Source\PSoC4/BLE_eventHandler.c ****         }
1168:.\Generated_Source\PSoC4/BLE_eventHandler.c ****     #endif /* CYBLE_GATT_ROLE_CLIENT */
1169:.\Generated_Source\PSoC4/BLE_eventHandler.c ****         
1170:.\Generated_Source\PSoC4/BLE_eventHandler.c ****     #ifdef CYBLE_CPS_SERVER
1171:.\Generated_Source\PSoC4/BLE_eventHandler.c ****         #if CYBLE_GAP_ROLE_BROADCASTER
1172:.\Generated_Source\PSoC4/BLE_eventHandler.c ****             CyBle_CpssDisconnectEventHandler();
1173:.\Generated_Source\PSoC4/BLE_eventHandler.c ****         #endif /* CYBLE_GAP_ROLE_BROADCASTER */
1174:.\Generated_Source\PSoC4/BLE_eventHandler.c ****     #endif /* CYBLE_CPS_SERVER */
1175:.\Generated_Source\PSoC4/BLE_eventHandler.c **** 
1176:.\Generated_Source\PSoC4/BLE_eventHandler.c ****     #ifdef CYBLE_CPS_CLIENT
1177:.\Generated_Source\PSoC4/BLE_eventHandler.c ****         CyBle_CpscDisconnectEventHandler();
1178:.\Generated_Source\PSoC4/BLE_eventHandler.c ****     #endif /* CYBLE_CPS_CLIENT */
1179:.\Generated_Source\PSoC4/BLE_eventHandler.c **** 
1180:.\Generated_Source\PSoC4/BLE_eventHandler.c ****     #ifdef CYBLE_IAS_SERVER
1181:.\Generated_Source\PSoC4/BLE_eventHandler.c ****         CyBle_IassDisconnectEventHandler();
1182:.\Generated_Source\PSoC4/BLE_eventHandler.c ****     #endif /* CYBLE_IAS_SERVER */
1183:.\Generated_Source\PSoC4/BLE_eventHandler.c ****     
1184:.\Generated_Source\PSoC4/BLE_eventHandler.c ****     #ifdef CYBLE_GLS_SERVER
1185:.\Generated_Source\PSoC4/BLE_eventHandler.c ****         CyBle_GlsInit();
1186:.\Generated_Source\PSoC4/BLE_eventHandler.c ****     #endif /* CYBLE_GLS_SERVER */
1187:.\Generated_Source\PSoC4/BLE_eventHandler.c ****     
1188:.\Generated_Source\PSoC4/BLE_eventHandler.c ****     #ifdef CYBLE_LNS_SERVER
1189:.\Generated_Source\PSoC4/BLE_eventHandler.c ****         CyBle_LnsInit();
1190:.\Generated_Source\PSoC4/BLE_eventHandler.c ****     #endif /* CYBLE_LNS_SERVER */
1191:.\Generated_Source\PSoC4/BLE_eventHandler.c ****     
1192:.\Generated_Source\PSoC4/BLE_eventHandler.c ****     #ifdef CYBLE_UDS_SERVER
1193:.\Generated_Source\PSoC4/BLE_eventHandler.c ****         CyBle_UdsInit();
1194:.\Generated_Source\PSoC4/BLE_eventHandler.c ****     #endif /* CYBLE_UDS_SERVER */
1195:.\Generated_Source\PSoC4/BLE_eventHandler.c **** }
 449              		.loc 1 1195 0
 450 0026 BD46     		mov	sp, r7
 451              		@ sp needed
 452 0028 80BD     		pop	{r7, pc}
 453              	.L21:
ARM GAS  C:\Users\YBOURA~1\AppData\Local\Temp\cc3HigXd.s 			page 30


 454 002a C046     		.align	2
 455              	.L20:
 456 002c 00000000 		.word	cyBle_connHandle
 457 0030 00000000 		.word	cyBle_clientState
 458              		.cfi_endproc
 459              	.LFE8:
 460              		.size	CyBle_GattDisconnectEventHandler, .-CyBle_GattDisconnectEventHandler
 461              		.section	.text.CyBle_TimeOutEventHandler,"ax",%progbits
 462              		.align	2
 463              		.code	16
 464              		.thumb_func
 465              		.type	CyBle_TimeOutEventHandler, %function
 466              	CyBle_TimeOutEventHandler:
 467              	.LFB9:
1196:.\Generated_Source\PSoC4/BLE_eventHandler.c **** 
1197:.\Generated_Source\PSoC4/BLE_eventHandler.c **** 
1198:.\Generated_Source\PSoC4/BLE_eventHandler.c **** /****************************************************************************** 
1199:.\Generated_Source\PSoC4/BLE_eventHandler.c **** * Function Name: CyBle_TimeOutEventHandler
1200:.\Generated_Source\PSoC4/BLE_eventHandler.c **** ***************************************************************************//**
1201:.\Generated_Source\PSoC4/BLE_eventHandler.c **** * 
1202:.\Generated_Source\PSoC4/BLE_eventHandler.c **** *  Handles the CYBLE_EVT_TIMEOUT event from the BLE stack.
1203:.\Generated_Source\PSoC4/BLE_eventHandler.c **** * 
1204:.\Generated_Source\PSoC4/BLE_eventHandler.c **** *  \param eventParam: The pointer to a structure of type CYBLE_TO_REASON_CODE_T.
1205:.\Generated_Source\PSoC4/BLE_eventHandler.c **** * 
1206:.\Generated_Source\PSoC4/BLE_eventHandler.c **** * \return
1207:.\Generated_Source\PSoC4/BLE_eventHandler.c **** *  None
1208:.\Generated_Source\PSoC4/BLE_eventHandler.c **** * 
1209:.\Generated_Source\PSoC4/BLE_eventHandler.c **** ******************************************************************************/
1210:.\Generated_Source\PSoC4/BLE_eventHandler.c **** static void CyBle_TimeOutEventHandler(const CYBLE_TO_REASON_CODE_T *eventParam)
1211:.\Generated_Source\PSoC4/BLE_eventHandler.c **** {
 468              		.loc 1 1211 0
 469              		.cfi_startproc
 470 0000 80B5     		push	{r7, lr}
 471              		.cfi_def_cfa_offset 8
 472              		.cfi_offset 7, -8
 473              		.cfi_offset 14, -4
 474 0002 82B0     		sub	sp, sp, #8
 475              		.cfi_def_cfa_offset 16
 476 0004 00AF     		add	r7, sp, #0
 477              		.cfi_def_cfa_register 7
 478 0006 7860     		str	r0, [r7, #4]
1212:.\Generated_Source\PSoC4/BLE_eventHandler.c ****     if(*eventParam == CYBLE_GATT_RSP_TO)
 479              		.loc 1 1212 0
 480 0008 7B68     		ldr	r3, [r7, #4]
 481 000a 1B78     		ldrb	r3, [r3]
 482 000c 032B     		cmp	r3, #3
 483 000e 3ED1     		bne	.L23
1213:.\Generated_Source\PSoC4/BLE_eventHandler.c ****     {
1214:.\Generated_Source\PSoC4/BLE_eventHandler.c ****     #if (CYBLE_GATT_ROLE_CLIENT)
1215:.\Generated_Source\PSoC4/BLE_eventHandler.c ****         if((cyBle_eventHandlerFlag & CYBLE_AUTO_DISCOVERY) != 0u)
 484              		.loc 1 1215 0
 485 0010 204B     		ldr	r3, .L31
 486 0012 1B78     		ldrb	r3, [r3]
 487 0014 DBB2     		uxtb	r3, r3
 488 0016 1A1C     		mov	r2, r3
 489 0018 0223     		mov	r3, #2
 490 001a 1340     		and	r3, r2
ARM GAS  C:\Users\YBOURA~1\AppData\Local\Temp\cc3HigXd.s 			page 31


 491 001c 37D0     		beq	.L23
1216:.\Generated_Source\PSoC4/BLE_eventHandler.c ****         {
1217:.\Generated_Source\PSoC4/BLE_eventHandler.c ****             switch(CyBle_GetClientState())
 492              		.loc 1 1217 0
 493 001e 1E4B     		ldr	r3, .L31+4
 494 0020 1B78     		ldrb	r3, [r3]
 495 0022 022B     		cmp	r3, #2
 496 0024 10D0     		beq	.L25
 497 0026 02DC     		bgt	.L26
 498 0028 012B     		cmp	r3, #1
 499 002a 05D0     		beq	.L27
1218:.\Generated_Source\PSoC4/BLE_eventHandler.c ****             {
1219:.\Generated_Source\PSoC4/BLE_eventHandler.c ****                 case CYBLE_CLIENT_STATE_SRVC_DISCOVERING:
1220:.\Generated_Source\PSoC4/BLE_eventHandler.c ****                     CyBle_ApplCallback(CYBLE_EVT_GATTC_SRVC_DISCOVERY_FAILED, NULL);
1221:.\Generated_Source\PSoC4/BLE_eventHandler.c ****                     break;
1222:.\Generated_Source\PSoC4/BLE_eventHandler.c ****                 case CYBLE_CLIENT_STATE_INCL_DISCOVERING:
1223:.\Generated_Source\PSoC4/BLE_eventHandler.c ****                     CyBle_ApplCallback(CYBLE_EVT_GATTC_INCL_DISCOVERY_FAILED, NULL);
1224:.\Generated_Source\PSoC4/BLE_eventHandler.c ****                     break;
1225:.\Generated_Source\PSoC4/BLE_eventHandler.c ****                 case CYBLE_CLIENT_STATE_CHAR_DISCOVERING:
1226:.\Generated_Source\PSoC4/BLE_eventHandler.c ****                     CyBle_ApplCallback(CYBLE_EVT_GATTC_CHAR_DISCOVERY_FAILED, NULL);
1227:.\Generated_Source\PSoC4/BLE_eventHandler.c ****                     break;
1228:.\Generated_Source\PSoC4/BLE_eventHandler.c ****                 case CYBLE_CLIENT_STATE_DESCR_DISCOVERING:
1229:.\Generated_Source\PSoC4/BLE_eventHandler.c ****                     CyBle_ApplCallback(CYBLE_EVT_GATTC_DESCR_DISCOVERY_FAILED, NULL);
1230:.\Generated_Source\PSoC4/BLE_eventHandler.c ****                     break;
1231:.\Generated_Source\PSoC4/BLE_eventHandler.c ****                 default:        /* Other states should not be set in Auto discovery mode */
1232:.\Generated_Source\PSoC4/BLE_eventHandler.c ****                     break;
 500              		.loc 1 1232 0
 501 002c 24E0     		b	.L30
 502              	.L26:
1217:.\Generated_Source\PSoC4/BLE_eventHandler.c ****             {
 503              		.loc 1 1217 0
 504 002e 032B     		cmp	r3, #3
 505 0030 12D0     		beq	.L28
 506 0032 042B     		cmp	r3, #4
 507 0034 18D0     		beq	.L29
 508              		.loc 1 1232 0
 509 0036 1FE0     		b	.L30
 510              	.L27:
1220:.\Generated_Source\PSoC4/BLE_eventHandler.c ****                     break;
 511              		.loc 1 1220 0
 512 0038 184B     		ldr	r3, .L31+8
 513 003a 1B68     		ldr	r3, [r3]
 514 003c 0822     		mov	r2, #8
 515 003e FF32     		add	r2, r2, #255
 516 0040 101C     		mov	r0, r2
 517 0042 0021     		mov	r1, #0
 518 0044 9847     		blx	r3
1221:.\Generated_Source\PSoC4/BLE_eventHandler.c ****                 case CYBLE_CLIENT_STATE_INCL_DISCOVERING:
 519              		.loc 1 1221 0
 520 0046 17E0     		b	.L30
 521              	.L25:
1223:.\Generated_Source\PSoC4/BLE_eventHandler.c ****                     break;
 522              		.loc 1 1223 0
 523 0048 144B     		ldr	r3, .L31+8
 524 004a 1B68     		ldr	r3, [r3]
 525 004c 8422     		mov	r2, #132
 526 004e 5200     		lsl	r2, r2, #1
ARM GAS  C:\Users\YBOURA~1\AppData\Local\Temp\cc3HigXd.s 			page 32


 527 0050 101C     		mov	r0, r2
 528 0052 0021     		mov	r1, #0
 529 0054 9847     		blx	r3
1224:.\Generated_Source\PSoC4/BLE_eventHandler.c ****                 case CYBLE_CLIENT_STATE_CHAR_DISCOVERING:
 530              		.loc 1 1224 0
 531 0056 0FE0     		b	.L30
 532              	.L28:
1226:.\Generated_Source\PSoC4/BLE_eventHandler.c ****                     break;
 533              		.loc 1 1226 0
 534 0058 104B     		ldr	r3, .L31+8
 535 005a 1B68     		ldr	r3, [r3]
 536 005c 0A22     		mov	r2, #10
 537 005e FF32     		add	r2, r2, #255
 538 0060 101C     		mov	r0, r2
 539 0062 0021     		mov	r1, #0
 540 0064 9847     		blx	r3
1227:.\Generated_Source\PSoC4/BLE_eventHandler.c ****                 case CYBLE_CLIENT_STATE_DESCR_DISCOVERING:
 541              		.loc 1 1227 0
 542 0066 07E0     		b	.L30
 543              	.L29:
1229:.\Generated_Source\PSoC4/BLE_eventHandler.c ****                     break;
 544              		.loc 1 1229 0
 545 0068 0C4B     		ldr	r3, .L31+8
 546 006a 1B68     		ldr	r3, [r3]
 547 006c 8522     		mov	r2, #133
 548 006e 5200     		lsl	r2, r2, #1
 549 0070 101C     		mov	r0, r2
 550 0072 0021     		mov	r1, #0
 551 0074 9847     		blx	r3
1230:.\Generated_Source\PSoC4/BLE_eventHandler.c ****                 default:        /* Other states should not be set in Auto discovery mode */
 552              		.loc 1 1230 0
 553 0076 C046     		mov	r8, r8
 554              	.L30:
1233:.\Generated_Source\PSoC4/BLE_eventHandler.c ****             }
1234:.\Generated_Source\PSoC4/BLE_eventHandler.c ****             cyBle_eventHandlerFlag &= (uint8)~CYBLE_AUTO_DISCOVERY;
 555              		.loc 1 1234 0
 556 0078 064B     		ldr	r3, .L31
 557 007a 1B78     		ldrb	r3, [r3]
 558 007c DBB2     		uxtb	r3, r3
 559 007e 0222     		mov	r2, #2
 560 0080 9343     		bic	r3, r2
 561 0082 DAB2     		uxtb	r2, r3
 562 0084 034B     		ldr	r3, .L31
 563 0086 1A70     		strb	r2, [r3]
1235:.\Generated_Source\PSoC4/BLE_eventHandler.c ****             CyBle_SetClientState(CYBLE_CLIENT_STATE_CONNECTED);
 564              		.loc 1 1235 0
 565 0088 034B     		ldr	r3, .L31+4
 566 008a 0022     		mov	r2, #0
 567 008c 1A70     		strb	r2, [r3]
 568              	.L23:
1236:.\Generated_Source\PSoC4/BLE_eventHandler.c ****         }
1237:.\Generated_Source\PSoC4/BLE_eventHandler.c ****     #endif /* CYBLE_GATT_ROLE_CLIENT */
1238:.\Generated_Source\PSoC4/BLE_eventHandler.c ****     #ifdef CYBLE_CPS_SERVER
1239:.\Generated_Source\PSoC4/BLE_eventHandler.c ****         CyBle_CpssTimeOutEventHandler();
1240:.\Generated_Source\PSoC4/BLE_eventHandler.c ****     #endif /* CYBLE_CPS_SERVER */
1241:.\Generated_Source\PSoC4/BLE_eventHandler.c ****     }
1242:.\Generated_Source\PSoC4/BLE_eventHandler.c ****     
ARM GAS  C:\Users\YBOURA~1\AppData\Local\Temp\cc3HigXd.s 			page 33


1243:.\Generated_Source\PSoC4/BLE_eventHandler.c ****     /* Connection procedure timeout */
1244:.\Generated_Source\PSoC4/BLE_eventHandler.c ****     if(*eventParam == CYBLE_GENERIC_TO)
1245:.\Generated_Source\PSoC4/BLE_eventHandler.c ****     {
1246:.\Generated_Source\PSoC4/BLE_eventHandler.c ****     #if(CYBLE_GAP_ROLE_CENTRAL)
1247:.\Generated_Source\PSoC4/BLE_eventHandler.c ****         if(CYBLE_STATE_CONNECTING == CyBle_GetState())
1248:.\Generated_Source\PSoC4/BLE_eventHandler.c ****         {
1249:.\Generated_Source\PSoC4/BLE_eventHandler.c ****             (void)CyBle_GapcCancelDeviceConnection();
1250:.\Generated_Source\PSoC4/BLE_eventHandler.c ****         }
1251:.\Generated_Source\PSoC4/BLE_eventHandler.c ****     #endif /* CYBLE_GAP_ROLE_CENTRAL */
1252:.\Generated_Source\PSoC4/BLE_eventHandler.c ****     }
1253:.\Generated_Source\PSoC4/BLE_eventHandler.c **** }
 569              		.loc 1 1253 0
 570 008e BD46     		mov	sp, r7
 571 0090 02B0     		add	sp, sp, #8
 572              		@ sp needed
 573 0092 80BD     		pop	{r7, pc}
 574              	.L32:
 575              		.align	2
 576              	.L31:
 577 0094 00000000 		.word	cyBle_eventHandlerFlag
 578 0098 00000000 		.word	cyBle_clientState
 579 009c 00000000 		.word	CyBle_ApplCallback
 580              		.cfi_endproc
 581              	.LFE9:
 582              		.size	CyBle_TimeOutEventHandler, .-CyBle_TimeOutEventHandler
 583              		.section	.text.CyBle_GattConnectReqHandler,"ax",%progbits
 584              		.align	2
 585              		.code	16
 586              		.thumb_func
 587              		.type	CyBle_GattConnectReqHandler, %function
 588              	CyBle_GattConnectReqHandler:
 589              	.LFB10:
1254:.\Generated_Source\PSoC4/BLE_eventHandler.c **** 
1255:.\Generated_Source\PSoC4/BLE_eventHandler.c **** 
1256:.\Generated_Source\PSoC4/BLE_eventHandler.c **** /****************************************************************************** 
1257:.\Generated_Source\PSoC4/BLE_eventHandler.c **** * Function Name: CyBle_GattConnectReqHandler
1258:.\Generated_Source\PSoC4/BLE_eventHandler.c **** ***************************************************************************//**
1259:.\Generated_Source\PSoC4/BLE_eventHandler.c **** * 
1260:.\Generated_Source\PSoC4/BLE_eventHandler.c **** *  Handles the GATT connect event from the BLE stack.
1261:.\Generated_Source\PSoC4/BLE_eventHandler.c **** * 
1262:.\Generated_Source\PSoC4/BLE_eventHandler.c **** * \return
1263:.\Generated_Source\PSoC4/BLE_eventHandler.c **** *  None
1264:.\Generated_Source\PSoC4/BLE_eventHandler.c **** * 
1265:.\Generated_Source\PSoC4/BLE_eventHandler.c **** ******************************************************************************/
1266:.\Generated_Source\PSoC4/BLE_eventHandler.c **** static void CyBle_GattConnectReqHandler(void)
1267:.\Generated_Source\PSoC4/BLE_eventHandler.c **** {
 590              		.loc 1 1267 0
 591              		.cfi_startproc
 592 0000 80B5     		push	{r7, lr}
 593              		.cfi_def_cfa_offset 8
 594              		.cfi_offset 7, -8
 595              		.cfi_offset 14, -4
 596 0002 00AF     		add	r7, sp, #0
 597              		.cfi_def_cfa_register 7
1268:.\Generated_Source\PSoC4/BLE_eventHandler.c ****     #ifdef CYBLE_CGMS_SERVER
1269:.\Generated_Source\PSoC4/BLE_eventHandler.c ****         CyBle_CgmsInit();
1270:.\Generated_Source\PSoC4/BLE_eventHandler.c ****     #endif /* CYBLE_CGMS_SERVER */
ARM GAS  C:\Users\YBOURA~1\AppData\Local\Temp\cc3HigXd.s 			page 34


1271:.\Generated_Source\PSoC4/BLE_eventHandler.c ****     
1272:.\Generated_Source\PSoC4/BLE_eventHandler.c ****     #ifdef CYBLE_CPS_SERVER
1273:.\Generated_Source\PSoC4/BLE_eventHandler.c ****         CyBle_CpssConnectEventHandler();
1274:.\Generated_Source\PSoC4/BLE_eventHandler.c ****     #endif /* CYBLE_CPS_SERVER */
1275:.\Generated_Source\PSoC4/BLE_eventHandler.c ****     
1276:.\Generated_Source\PSoC4/BLE_eventHandler.c ****     #ifdef CYBLE_CSCS_SERVER
1277:.\Generated_Source\PSoC4/BLE_eventHandler.c ****             CyBle_CscsInit();
1278:.\Generated_Source\PSoC4/BLE_eventHandler.c ****     #endif /* CYBLE_CSCS_SERVER */
1279:.\Generated_Source\PSoC4/BLE_eventHandler.c ****     
1280:.\Generated_Source\PSoC4/BLE_eventHandler.c ****     #ifdef CYBLE_LLS_SERVER
1281:.\Generated_Source\PSoC4/BLE_eventHandler.c ****         CyBle_LlssConnectEventHandler();
1282:.\Generated_Source\PSoC4/BLE_eventHandler.c ****     #endif /* CYBLE_LLS_SERVER */
1283:.\Generated_Source\PSoC4/BLE_eventHandler.c ****     
1284:.\Generated_Source\PSoC4/BLE_eventHandler.c ****     #ifdef CYBLE_HIDS_SERVER
1285:.\Generated_Source\PSoC4/BLE_eventHandler.c ****         CyBle_HidssOnDeviceConnected();
1286:.\Generated_Source\PSoC4/BLE_eventHandler.c ****     #endif /* CYBLE_HIDS_SERVER */
1287:.\Generated_Source\PSoC4/BLE_eventHandler.c **** 
1288:.\Generated_Source\PSoC4/BLE_eventHandler.c ****     #ifdef CYBLE_RSCS_SERVER
1289:.\Generated_Source\PSoC4/BLE_eventHandler.c ****         CyBle_RscsInit();
1290:.\Generated_Source\PSoC4/BLE_eventHandler.c ****     #endif /* CYBLE_RSCS_SERVER */
1291:.\Generated_Source\PSoC4/BLE_eventHandler.c **** }
 598              		.loc 1 1291 0
 599 0004 BD46     		mov	sp, r7
 600              		@ sp needed
 601 0006 80BD     		pop	{r7, pc}
 602              		.cfi_endproc
 603              	.LFE10:
 604              		.size	CyBle_GattConnectReqHandler, .-CyBle_GattConnectReqHandler
 605              		.section	.text.CyBle_IsDeviceAddressValid,"ax",%progbits
 606              		.align	2
 607              		.code	16
 608              		.thumb_func
 609              		.type	CyBle_IsDeviceAddressValid, %function
 610              	CyBle_IsDeviceAddressValid:
 611              	.LFB11:
1292:.\Generated_Source\PSoC4/BLE_eventHandler.c **** 
1293:.\Generated_Source\PSoC4/BLE_eventHandler.c **** 
1294:.\Generated_Source\PSoC4/BLE_eventHandler.c **** #if (CYBLE_GATT_ROLE_SERVER || CYBLE_GATT_ROLE_CLIENT)
1295:.\Generated_Source\PSoC4/BLE_eventHandler.c **** 
1296:.\Generated_Source\PSoC4/BLE_eventHandler.c **** /****************************************************************************** 
1297:.\Generated_Source\PSoC4/BLE_eventHandler.c **** * Function Name: CyBle_IsDeviceAddressValid
1298:.\Generated_Source\PSoC4/BLE_eventHandler.c **** ***************************************************************************//**
1299:.\Generated_Source\PSoC4/BLE_eventHandler.c **** * 
1300:.\Generated_Source\PSoC4/BLE_eventHandler.c **** *  This function verifies that BLE public address has been programmed to SFLASH 
1301:.\Generated_Source\PSoC4/BLE_eventHandler.c **** *  during manufacture.
1302:.\Generated_Source\PSoC4/BLE_eventHandler.c **** * 
1303:.\Generated_Source\PSoC4/BLE_eventHandler.c **** *  \param CYBLE_GAP_BD_ADDR_T *sflashDeviceAddress: the pointer to the BD address of 
1304:.\Generated_Source\PSoC4/BLE_eventHandler.c **** *                                            type CYBLE_GAP_BD_ADDR_T. 
1305:.\Generated_Source\PSoC4/BLE_eventHandler.c **** * 
1306:.\Generated_Source\PSoC4/BLE_eventHandler.c **** * \return
1307:.\Generated_Source\PSoC4/BLE_eventHandler.c **** *  Non zero value when a device address differs from the default SFLASH content.
1308:.\Generated_Source\PSoC4/BLE_eventHandler.c **** * 
1309:.\Generated_Source\PSoC4/BLE_eventHandler.c **** ******************************************************************************/
1310:.\Generated_Source\PSoC4/BLE_eventHandler.c **** static uint8 CyBle_IsDeviceAddressValid(const CYBLE_GAP_BD_ADDR_T *sflashDeviceAddress)
1311:.\Generated_Source\PSoC4/BLE_eventHandler.c **** {
 612              		.loc 1 1311 0
 613              		.cfi_startproc
ARM GAS  C:\Users\YBOURA~1\AppData\Local\Temp\cc3HigXd.s 			page 35


 614 0000 80B5     		push	{r7, lr}
 615              		.cfi_def_cfa_offset 8
 616              		.cfi_offset 7, -8
 617              		.cfi_offset 14, -4
 618 0002 84B0     		sub	sp, sp, #16
 619              		.cfi_def_cfa_offset 24
 620 0004 00AF     		add	r7, sp, #0
 621              		.cfi_def_cfa_register 7
 622 0006 7860     		str	r0, [r7, #4]
1312:.\Generated_Source\PSoC4/BLE_eventHandler.c ****     uint8 i;
1313:.\Generated_Source\PSoC4/BLE_eventHandler.c ****     uint8 sflashAddressValid = 0u;
 623              		.loc 1 1313 0
 624 0008 0E23     		mov	r3, #14
 625 000a FB18     		add	r3, r7, r3
 626 000c 0022     		mov	r2, #0
 627 000e 1A70     		strb	r2, [r3]
1314:.\Generated_Source\PSoC4/BLE_eventHandler.c ****     
1315:.\Generated_Source\PSoC4/BLE_eventHandler.c ****     if(sflashDeviceAddress -> type == CYBLE_GAP_ADDR_TYPE_PUBLIC)  
 628              		.loc 1 1315 0
 629 0010 7B68     		ldr	r3, [r7, #4]
 630 0012 9B79     		ldrb	r3, [r3, #6]
 631 0014 002B     		cmp	r3, #0
 632 0016 1CD1     		bne	.L35
1316:.\Generated_Source\PSoC4/BLE_eventHandler.c ****     {
1317:.\Generated_Source\PSoC4/BLE_eventHandler.c ****         for(i = 0u; i < CYBLE_GAP_BD_ADDR_SIZE; i++)
 633              		.loc 1 1317 0
 634 0018 0F23     		mov	r3, #15
 635 001a FB18     		add	r3, r7, r3
 636 001c 0022     		mov	r2, #0
 637 001e 1A70     		strb	r2, [r3]
 638 0020 12E0     		b	.L36
 639              	.L38:
1318:.\Generated_Source\PSoC4/BLE_eventHandler.c ****         {
1319:.\Generated_Source\PSoC4/BLE_eventHandler.c ****             if(sflashDeviceAddress->bdAddr[i] != 0u)
 640              		.loc 1 1319 0
 641 0022 0F23     		mov	r3, #15
 642 0024 FB18     		add	r3, r7, r3
 643 0026 1B78     		ldrb	r3, [r3]
 644 0028 7A68     		ldr	r2, [r7, #4]
 645 002a D35C     		ldrb	r3, [r2, r3]
 646 002c 002B     		cmp	r3, #0
 647 002e 04D0     		beq	.L37
1320:.\Generated_Source\PSoC4/BLE_eventHandler.c ****             {
1321:.\Generated_Source\PSoC4/BLE_eventHandler.c ****                 sflashAddressValid = 1u;
 648              		.loc 1 1321 0
 649 0030 0E23     		mov	r3, #14
 650 0032 FB18     		add	r3, r7, r3
 651 0034 0122     		mov	r2, #1
 652 0036 1A70     		strb	r2, [r3]
1322:.\Generated_Source\PSoC4/BLE_eventHandler.c ****                 break;
 653              		.loc 1 1322 0
 654 0038 0BE0     		b	.L35
 655              	.L37:
1317:.\Generated_Source\PSoC4/BLE_eventHandler.c ****         {
 656              		.loc 1 1317 0 discriminator 2
 657 003a 0F23     		mov	r3, #15
 658 003c FB18     		add	r3, r7, r3
ARM GAS  C:\Users\YBOURA~1\AppData\Local\Temp\cc3HigXd.s 			page 36


 659 003e 1A78     		ldrb	r2, [r3]
 660 0040 0F23     		mov	r3, #15
 661 0042 FB18     		add	r3, r7, r3
 662 0044 0132     		add	r2, r2, #1
 663 0046 1A70     		strb	r2, [r3]
 664              	.L36:
1317:.\Generated_Source\PSoC4/BLE_eventHandler.c ****         {
 665              		.loc 1 1317 0 is_stmt 0 discriminator 1
 666 0048 0F23     		mov	r3, #15
 667 004a FB18     		add	r3, r7, r3
 668 004c 1B78     		ldrb	r3, [r3]
 669 004e 052B     		cmp	r3, #5
 670 0050 E7D9     		bls	.L38
 671              	.L35:
1323:.\Generated_Source\PSoC4/BLE_eventHandler.c ****             }
1324:.\Generated_Source\PSoC4/BLE_eventHandler.c ****         }
1325:.\Generated_Source\PSoC4/BLE_eventHandler.c ****     }
1326:.\Generated_Source\PSoC4/BLE_eventHandler.c **** #if (CYBLE_M0S8BLESS_VERSION != 1)
1327:.\Generated_Source\PSoC4/BLE_eventHandler.c ****     sflashAddressValid = 0u;
1328:.\Generated_Source\PSoC4/BLE_eventHandler.c **** #endif
1329:.\Generated_Source\PSoC4/BLE_eventHandler.c ****     
1330:.\Generated_Source\PSoC4/BLE_eventHandler.c ****     return (sflashAddressValid);
 672              		.loc 1 1330 0 is_stmt 1
 673 0052 0E23     		mov	r3, #14
 674 0054 FB18     		add	r3, r7, r3
 675 0056 1B78     		ldrb	r3, [r3]
1331:.\Generated_Source\PSoC4/BLE_eventHandler.c **** }
 676              		.loc 1 1331 0
 677 0058 181C     		mov	r0, r3
 678 005a BD46     		mov	sp, r7
 679 005c 04B0     		add	sp, sp, #16
 680              		@ sp needed
 681 005e 80BD     		pop	{r7, pc}
 682              		.cfi_endproc
 683              	.LFE11:
 684              		.size	CyBle_IsDeviceAddressValid, .-CyBle_IsDeviceAddressValid
 685              		.section	.text.CyBle_L2Cap_ConnParamUpdateRspEventHandler,"ax",%progbits
 686              		.align	2
 687              		.code	16
 688              		.thumb_func
 689              		.type	CyBle_L2Cap_ConnParamUpdateRspEventHandler, %function
 690              	CyBle_L2Cap_ConnParamUpdateRspEventHandler:
 691              	.LFB12:
1332:.\Generated_Source\PSoC4/BLE_eventHandler.c **** #endif /* CYBLE_GATT_ROLE_SERVER || CYBLE_GATT_ROLE_CLIENT */
1333:.\Generated_Source\PSoC4/BLE_eventHandler.c **** 
1334:.\Generated_Source\PSoC4/BLE_eventHandler.c **** 
1335:.\Generated_Source\PSoC4/BLE_eventHandler.c **** /****************************************************************************** 
1336:.\Generated_Source\PSoC4/BLE_eventHandler.c **** * Function Name: CyBle_L2Cap_ConnParamUpdateRspHandler
1337:.\Generated_Source\PSoC4/BLE_eventHandler.c **** ***************************************************************************//**
1338:.\Generated_Source\PSoC4/BLE_eventHandler.c **** * 
1339:.\Generated_Source\PSoC4/BLE_eventHandler.c **** *  Handles the L2CAP connection parameter response event from
1340:.\Generated_Source\PSoC4/BLE_eventHandler.c **** *  the BLE stack.
1341:.\Generated_Source\PSoC4/BLE_eventHandler.c **** * 
1342:.\Generated_Source\PSoC4/BLE_eventHandler.c **** *  \param response:
1343:.\Generated_Source\PSoC4/BLE_eventHandler.c **** *      * Accepted = 0x0000
1344:.\Generated_Source\PSoC4/BLE_eventHandler.c **** *      * Rejected = 0x0001
1345:.\Generated_Source\PSoC4/BLE_eventHandler.c **** * 
ARM GAS  C:\Users\YBOURA~1\AppData\Local\Temp\cc3HigXd.s 			page 37


1346:.\Generated_Source\PSoC4/BLE_eventHandler.c **** * \return
1347:.\Generated_Source\PSoC4/BLE_eventHandler.c **** *  None
1348:.\Generated_Source\PSoC4/BLE_eventHandler.c **** * 
1349:.\Generated_Source\PSoC4/BLE_eventHandler.c **** ******************************************************************************/
1350:.\Generated_Source\PSoC4/BLE_eventHandler.c **** static void CyBle_L2Cap_ConnParamUpdateRspEventHandler(uint16 response)
1351:.\Generated_Source\PSoC4/BLE_eventHandler.c **** {
 692              		.loc 1 1351 0
 693              		.cfi_startproc
 694 0000 80B5     		push	{r7, lr}
 695              		.cfi_def_cfa_offset 8
 696              		.cfi_offset 7, -8
 697              		.cfi_offset 14, -4
 698 0002 82B0     		sub	sp, sp, #8
 699              		.cfi_def_cfa_offset 16
 700 0004 00AF     		add	r7, sp, #0
 701              		.cfi_def_cfa_register 7
 702 0006 021C     		mov	r2, r0
 703 0008 BB1D     		add	r3, r7, #6
 704 000a 1A80     		strh	r2, [r3]
1352:.\Generated_Source\PSoC4/BLE_eventHandler.c ****     #ifdef CYBLE_CPS_SERVER
1353:.\Generated_Source\PSoC4/BLE_eventHandler.c ****         CyBle_CpssConnParamUpdateRspEventHandler(response);
1354:.\Generated_Source\PSoC4/BLE_eventHandler.c ****     #endif /* CYBLE_CPS_SERVER */
1355:.\Generated_Source\PSoC4/BLE_eventHandler.c ****     
1356:.\Generated_Source\PSoC4/BLE_eventHandler.c ****     /* Unreferenced variable warning workaround */
1357:.\Generated_Source\PSoC4/BLE_eventHandler.c ****     if(response != 0u)
1358:.\Generated_Source\PSoC4/BLE_eventHandler.c ****     {
1359:.\Generated_Source\PSoC4/BLE_eventHandler.c ****     }
1360:.\Generated_Source\PSoC4/BLE_eventHandler.c **** }
 705              		.loc 1 1360 0
 706 000c BD46     		mov	sp, r7
 707 000e 02B0     		add	sp, sp, #8
 708              		@ sp needed
 709 0010 80BD     		pop	{r7, pc}
 710              		.cfi_endproc
 711              	.LFE12:
 712              		.size	CyBle_L2Cap_ConnParamUpdateRspEventHandler, .-CyBle_L2Cap_ConnParamUpdateRspEventHandler
 713 0012 C046     		.section	.text.CyBle_GapConnUpdateCompleteEventHandler,"ax",%progbits
 714              		.align	2
 715              		.code	16
 716              		.thumb_func
 717              		.type	CyBle_GapConnUpdateCompleteEventHandler, %function
 718              	CyBle_GapConnUpdateCompleteEventHandler:
 719              	.LFB13:
1361:.\Generated_Source\PSoC4/BLE_eventHandler.c **** 
1362:.\Generated_Source\PSoC4/BLE_eventHandler.c **** 
1363:.\Generated_Source\PSoC4/BLE_eventHandler.c **** /****************************************************************************** 
1364:.\Generated_Source\PSoC4/BLE_eventHandler.c **** * Function Name: CyBle_GapConnUpdateCompleteEventHandler
1365:.\Generated_Source\PSoC4/BLE_eventHandler.c **** ***************************************************************************//**
1366:.\Generated_Source\PSoC4/BLE_eventHandler.c **** * 
1367:.\Generated_Source\PSoC4/BLE_eventHandler.c **** *  Handles the CYBLE_EVT_GAP_CONNECTION_UPDATE_COMPLETE event from
1368:.\Generated_Source\PSoC4/BLE_eventHandler.c **** *  the BLE stack.
1369:.\Generated_Source\PSoC4/BLE_eventHandler.c **** * 
1370:.\Generated_Source\PSoC4/BLE_eventHandler.c **** *  \param eventParam: The pointer to the data structure specified by the event.
1371:.\Generated_Source\PSoC4/BLE_eventHandler.c **** * 
1372:.\Generated_Source\PSoC4/BLE_eventHandler.c **** * \return
1373:.\Generated_Source\PSoC4/BLE_eventHandler.c **** *  None
1374:.\Generated_Source\PSoC4/BLE_eventHandler.c **** * 
ARM GAS  C:\Users\YBOURA~1\AppData\Local\Temp\cc3HigXd.s 			page 38


1375:.\Generated_Source\PSoC4/BLE_eventHandler.c **** ******************************************************************************/
1376:.\Generated_Source\PSoC4/BLE_eventHandler.c **** static void CyBle_GapConnUpdateCompleteEventHandler(const CYBLE_GAP_CONN_PARAM_UPDATED_IN_CONTROLLE
1377:.\Generated_Source\PSoC4/BLE_eventHandler.c **** {
 720              		.loc 1 1377 0
 721              		.cfi_startproc
 722 0000 80B5     		push	{r7, lr}
 723              		.cfi_def_cfa_offset 8
 724              		.cfi_offset 7, -8
 725              		.cfi_offset 14, -4
 726 0002 82B0     		sub	sp, sp, #8
 727              		.cfi_def_cfa_offset 16
 728 0004 00AF     		add	r7, sp, #0
 729              		.cfi_def_cfa_register 7
 730 0006 7860     		str	r0, [r7, #4]
1378:.\Generated_Source\PSoC4/BLE_eventHandler.c ****     #ifdef CYBLE_CPS_SERVER
1379:.\Generated_Source\PSoC4/BLE_eventHandler.c ****         CyBle_CpssConnUpdateCompleteEventHandler(eventParam);
1380:.\Generated_Source\PSoC4/BLE_eventHandler.c ****     #endif /* CYBLE_CPS_SERVER */
1381:.\Generated_Source\PSoC4/BLE_eventHandler.c ****     
1382:.\Generated_Source\PSoC4/BLE_eventHandler.c ****     /* Unreferenced variable warning workaround */
1383:.\Generated_Source\PSoC4/BLE_eventHandler.c ****     if(eventParam != 0u)
1384:.\Generated_Source\PSoC4/BLE_eventHandler.c ****     {
1385:.\Generated_Source\PSoC4/BLE_eventHandler.c ****     }
1386:.\Generated_Source\PSoC4/BLE_eventHandler.c **** }
 731              		.loc 1 1386 0
 732 0008 BD46     		mov	sp, r7
 733 000a 02B0     		add	sp, sp, #8
 734              		@ sp needed
 735 000c 80BD     		pop	{r7, pc}
 736              		.cfi_endproc
 737              	.LFE13:
 738              		.size	CyBle_GapConnUpdateCompleteEventHandler, .-CyBle_GapConnUpdateCompleteEventHandler
 739              		.section	.text.CyBle_EventHandler,"ax",%progbits
 740              		.align	2
 741              		.global	CyBle_EventHandler
 742              		.code	16
 743              		.thumb_func
 744              		.type	CyBle_EventHandler, %function
 745              	CyBle_EventHandler:
 746              	.LFB14:
1387:.\Generated_Source\PSoC4/BLE_eventHandler.c **** 
1388:.\Generated_Source\PSoC4/BLE_eventHandler.c **** 
1389:.\Generated_Source\PSoC4/BLE_eventHandler.c **** /****************************************************************************** 
1390:.\Generated_Source\PSoC4/BLE_eventHandler.c **** * Function Name: CyBle_EventHandler
1391:.\Generated_Source\PSoC4/BLE_eventHandler.c **** ***************************************************************************//**
1392:.\Generated_Source\PSoC4/BLE_eventHandler.c **** * 
1393:.\Generated_Source\PSoC4/BLE_eventHandler.c **** *  Handles the events from the BLE stack
1394:.\Generated_Source\PSoC4/BLE_eventHandler.c **** * 
1395:.\Generated_Source\PSoC4/BLE_eventHandler.c **** *  \param eventCode:    the event code
1396:.\Generated_Source\PSoC4/BLE_eventHandler.c **** *  \param eventParam:  the event parameters
1397:.\Generated_Source\PSoC4/BLE_eventHandler.c **** * 
1398:.\Generated_Source\PSoC4/BLE_eventHandler.c **** * \return
1399:.\Generated_Source\PSoC4/BLE_eventHandler.c **** *  None.
1400:.\Generated_Source\PSoC4/BLE_eventHandler.c **** * 
1401:.\Generated_Source\PSoC4/BLE_eventHandler.c **** ******************************************************************************/
1402:.\Generated_Source\PSoC4/BLE_eventHandler.c **** void CyBle_EventHandler(uint8 eventCode, void *eventParam)
1403:.\Generated_Source\PSoC4/BLE_eventHandler.c **** {
 747              		.loc 1 1403 0
ARM GAS  C:\Users\YBOURA~1\AppData\Local\Temp\cc3HigXd.s 			page 39


 748              		.cfi_startproc
 749 0000 80B5     		push	{r7, lr}
 750              		.cfi_def_cfa_offset 8
 751              		.cfi_offset 7, -8
 752              		.cfi_offset 14, -4
 753 0002 84B0     		sub	sp, sp, #16
 754              		.cfi_def_cfa_offset 24
 755 0004 00AF     		add	r7, sp, #0
 756              		.cfi_def_cfa_register 7
 757 0006 021C     		mov	r2, r0
 758 0008 3960     		str	r1, [r7]
 759 000a FB1D     		add	r3, r7, #7
 760 000c 1A70     		strb	r2, [r3]
1404:.\Generated_Source\PSoC4/BLE_eventHandler.c ****     cyBle_eventHandlerFlag |= CYBLE_CALLBACK;
 761              		.loc 1 1404 0
 762 000e AC4B     		ldr	r3, .L87
 763 0010 1B78     		ldrb	r3, [r3]
 764 0012 DBB2     		uxtb	r3, r3
 765 0014 0122     		mov	r2, #1
 766 0016 1343     		orr	r3, r2
 767 0018 DAB2     		uxtb	r2, r3
 768 001a A94B     		ldr	r3, .L87
 769 001c 1A70     		strb	r2, [r3]
1405:.\Generated_Source\PSoC4/BLE_eventHandler.c **** 
1406:.\Generated_Source\PSoC4/BLE_eventHandler.c ****     /* Common Profile event handling */
1407:.\Generated_Source\PSoC4/BLE_eventHandler.c ****     switch(eventCode)
 770              		.loc 1 1407 0
 771 001e FB1D     		add	r3, r7, #7
 772 0020 1B78     		ldrb	r3, [r3]
 773 0022 712B     		cmp	r3, #113
 774 0024 00D9     		bls	.LCB659
 775 0026 2FE1     		b	.L86	@long jump
 776              	.LCB659:
 777 0028 9A00     		lsl	r2, r3, #2
 778 002a A64B     		ldr	r3, .L87+4
 779 002c D318     		add	r3, r2, r3
 780 002e 1B68     		ldr	r3, [r3]
 781 0030 9F46     		mov	pc, r3
 782              		.section	.rodata
 783              		.align	2
 784              	.L45:
 785 0000 88020000 		.word	.L86
 786 0004 32000000 		.word	.L44
 787 0008 AE000000 		.word	.L46
 788 000c 88020000 		.word	.L86
 789 0010 88020000 		.word	.L86
 790 0014 B8000000 		.word	.L47
 791 0018 88020000 		.word	.L86
 792 001c 88020000 		.word	.L86
 793 0020 88020000 		.word	.L86
 794 0024 88020000 		.word	.L86
 795 0028 88020000 		.word	.L86
 796 002c 88020000 		.word	.L86
 797 0030 88020000 		.word	.L86
 798 0034 88020000 		.word	.L86
 799 0038 88020000 		.word	.L86
 800 003c 88020000 		.word	.L86
ARM GAS  C:\Users\YBOURA~1\AppData\Local\Temp\cc3HigXd.s 			page 40


 801 0040 88020000 		.word	.L86
 802 0044 88020000 		.word	.L86
 803 0048 88020000 		.word	.L86
 804 004c 88020000 		.word	.L86
 805 0050 88020000 		.word	.L86
 806 0054 88020000 		.word	.L86
 807 0058 88020000 		.word	.L86
 808 005c 88020000 		.word	.L86
 809 0060 88020000 		.word	.L86
 810 0064 88020000 		.word	.L86
 811 0068 88020000 		.word	.L86
 812 006c 88020000 		.word	.L86
 813 0070 88020000 		.word	.L86
 814 0074 88020000 		.word	.L86
 815 0078 88020000 		.word	.L86
 816 007c 88020000 		.word	.L86
 817 0080 88020000 		.word	.L86
 818 0084 C2000000 		.word	.L49
 819 0088 88020000 		.word	.L86
 820 008c 88020000 		.word	.L86
 821 0090 88020000 		.word	.L86
 822 0094 88020000 		.word	.L86
 823 0098 88020000 		.word	.L86
 824 009c EC000000 		.word	.L51
 825 00a0 FC000000 		.word	.L52
 826 00a4 88020000 		.word	.L86
 827 00a8 E2000000 		.word	.L53
 828 00ac 04010000 		.word	.L54
 829 00b0 88020000 		.word	.L86
 830 00b4 88020000 		.word	.L86
 831 00b8 88020000 		.word	.L86
 832 00bc 88020000 		.word	.L86
 833 00c0 88020000 		.word	.L86
 834 00c4 88020000 		.word	.L86
 835 00c8 88020000 		.word	.L86
 836 00cc 88020000 		.word	.L86
 837 00d0 88020000 		.word	.L86
 838 00d4 88020000 		.word	.L86
 839 00d8 88020000 		.word	.L86
 840 00dc 88020000 		.word	.L86
 841 00e0 88020000 		.word	.L86
 842 00e4 88020000 		.word	.L86
 843 00e8 88020000 		.word	.L86
 844 00ec 88020000 		.word	.L86
 845 00f0 88020000 		.word	.L86
 846 00f4 88020000 		.word	.L86
 847 00f8 88020000 		.word	.L86
 848 00fc 88020000 		.word	.L86
 849 0100 36020000 		.word	.L55
 850 0104 84010000 		.word	.L56
 851 0108 C4010000 		.word	.L57
 852 010c CA010000 		.word	.L58
 853 0110 88020000 		.word	.L86
 854 0114 18020000 		.word	.L59
 855 0118 22020000 		.word	.L60
 856 011c 2C020000 		.word	.L61
 857 0120 88020000 		.word	.L86
ARM GAS  C:\Users\YBOURA~1\AppData\Local\Temp\cc3HigXd.s 			page 41


 858 0124 74020000 		.word	.L62
 859 0128 88020000 		.word	.L86
 860 012c 88020000 		.word	.L86
 861 0130 04020000 		.word	.L64
 862 0134 7E020000 		.word	.L65
 863 0138 88020000 		.word	.L86
 864 013c 88020000 		.word	.L86
 865 0140 88020000 		.word	.L86
 866 0144 88020000 		.word	.L86
 867 0148 40020000 		.word	.L70
 868 014c 4A020000 		.word	.L71
 869 0150 0E020000 		.word	.L72
 870 0154 88020000 		.word	.L86
 871 0158 88020000 		.word	.L86
 872 015c 88020000 		.word	.L86
 873 0160 88020000 		.word	.L86
 874 0164 88020000 		.word	.L86
 875 0168 88020000 		.word	.L86
 876 016c 88020000 		.word	.L86
 877 0170 88020000 		.word	.L86
 878 0174 88020000 		.word	.L86
 879 0178 88020000 		.word	.L86
 880 017c 88020000 		.word	.L86
 881 0180 88020000 		.word	.L86
 882 0184 88020000 		.word	.L86
 883 0188 88020000 		.word	.L86
 884 018c 88020000 		.word	.L86
 885 0190 88020000 		.word	.L86
 886 0194 88020000 		.word	.L86
 887 0198 88020000 		.word	.L86
 888 019c 88020000 		.word	.L86
 889 01a0 88020000 		.word	.L86
 890 01a4 88020000 		.word	.L86
 891 01a8 88020000 		.word	.L86
 892 01ac 88020000 		.word	.L86
 893 01b0 88020000 		.word	.L86
 894 01b4 88020000 		.word	.L86
 895 01b8 88020000 		.word	.L86
 896 01bc 88020000 		.word	.L86
 897 01c0 88020000 		.word	.L86
 898 01c4 78010000 		.word	.L74
 899              		.section	.text.CyBle_EventHandler
 900              	.L44:
 901              	.LBB4:
1408:.\Generated_Source\PSoC4/BLE_eventHandler.c ****     {
1409:.\Generated_Source\PSoC4/BLE_eventHandler.c ****         /**********************************************************
1410:.\Generated_Source\PSoC4/BLE_eventHandler.c ****         * General events
1411:.\Generated_Source\PSoC4/BLE_eventHandler.c ****         ************************************************************/
1412:.\Generated_Source\PSoC4/BLE_eventHandler.c ****         case CYBLE_EVT_STACK_ON:
1413:.\Generated_Source\PSoC4/BLE_eventHandler.c ****         #if(CYBLE_MODE_PROFILE)
1414:.\Generated_Source\PSoC4/BLE_eventHandler.c ****         {
1415:.\Generated_Source\PSoC4/BLE_eventHandler.c ****             CYBLE_BLESS_PWR_IN_DB_T bleSsPowerLevel;
1416:.\Generated_Source\PSoC4/BLE_eventHandler.c ****             
1417:.\Generated_Source\PSoC4/BLE_eventHandler.c ****             /* Set Tx Power Level for advertising and connection channels */
1418:.\Generated_Source\PSoC4/BLE_eventHandler.c ****             bleSsPowerLevel.blePwrLevelInDbm = CYBLE_TX_POWER_LEVEL_ADV;
 902              		.loc 1 1418 0
 903 0032 0C23     		mov	r3, #12
ARM GAS  C:\Users\YBOURA~1\AppData\Local\Temp\cc3HigXd.s 			page 42


 904 0034 FB18     		add	r3, r7, r3
 905 0036 0822     		mov	r2, #8
 906 0038 1A70     		strb	r2, [r3]
1419:.\Generated_Source\PSoC4/BLE_eventHandler.c ****             bleSsPowerLevel.bleSsChId = CYBLE_LL_ADV_CH_TYPE;
 907              		.loc 1 1419 0
 908 003a 0C23     		mov	r3, #12
 909 003c FB18     		add	r3, r7, r3
 910 003e 0022     		mov	r2, #0
 911 0040 5A70     		strb	r2, [r3, #1]
1420:.\Generated_Source\PSoC4/BLE_eventHandler.c ****             (void) CyBle_SetTxPowerLevel (&bleSsPowerLevel);
 912              		.loc 1 1420 0
 913 0042 0C23     		mov	r3, #12
 914 0044 FB18     		add	r3, r7, r3
 915 0046 181C     		mov	r0, r3
 916 0048 FFF7FEFF 		bl	CyBle_SetTxPowerLevel
1421:.\Generated_Source\PSoC4/BLE_eventHandler.c ****             bleSsPowerLevel.blePwrLevelInDbm = CYBLE_TX_POWER_LEVEL_CONN;
 917              		.loc 1 1421 0
 918 004c 0C23     		mov	r3, #12
 919 004e FB18     		add	r3, r7, r3
 920 0050 0822     		mov	r2, #8
 921 0052 1A70     		strb	r2, [r3]
1422:.\Generated_Source\PSoC4/BLE_eventHandler.c ****             bleSsPowerLevel.bleSsChId = CYBLE_LL_CONN_CH_TYPE;
 922              		.loc 1 1422 0
 923 0054 0C23     		mov	r3, #12
 924 0056 FB18     		add	r3, r7, r3
 925 0058 0122     		mov	r2, #1
 926 005a 5A70     		strb	r2, [r3, #1]
1423:.\Generated_Source\PSoC4/BLE_eventHandler.c ****             (void) CyBle_SetTxPowerLevel (&bleSsPowerLevel);
 927              		.loc 1 1423 0
 928 005c 0C23     		mov	r3, #12
 929 005e FB18     		add	r3, r7, r3
 930 0060 181C     		mov	r0, r3
 931 0062 FFF7FEFF 		bl	CyBle_SetTxPowerLevel
 932              	.LBE4:
1424:.\Generated_Source\PSoC4/BLE_eventHandler.c ****         }
1425:.\Generated_Source\PSoC4/BLE_eventHandler.c ****         #endif /* CYBLE_MODE_PROFILE */
1426:.\Generated_Source\PSoC4/BLE_eventHandler.c ****         #if (CYBLE_GATT_ROLE_SERVER || CYBLE_GATT_ROLE_CLIENT)
1427:.\Generated_Source\PSoC4/BLE_eventHandler.c ****             /* Set device Address  */
1428:.\Generated_Source\PSoC4/BLE_eventHandler.c ****             if(CyBle_IsDeviceAddressValid(cyBle_sflashDeviceAddress) != 0u)
 933              		.loc 1 1428 0
 934 0066 984B     		ldr	r3, .L87+8
 935 0068 1B68     		ldr	r3, [r3]
 936 006a 181C     		mov	r0, r3
 937 006c FFF7FEFF 		bl	CyBle_IsDeviceAddressValid
 938 0070 031E     		sub	r3, r0, #0
 939 0072 05D0     		beq	.L75
1429:.\Generated_Source\PSoC4/BLE_eventHandler.c ****             {
1430:.\Generated_Source\PSoC4/BLE_eventHandler.c ****                 (void) CyBle_SetDeviceAddress(cyBle_sflashDeviceAddress);
 940              		.loc 1 1430 0
 941 0074 944B     		ldr	r3, .L87+8
 942 0076 1B68     		ldr	r3, [r3]
 943 0078 181C     		mov	r0, r3
 944 007a FFF7FEFF 		bl	CyBle_SetDeviceAddress
 945 007e 0FE0     		b	.L76
 946              	.L75:
1431:.\Generated_Source\PSoC4/BLE_eventHandler.c ****                 #if(CYBLE_GAP_ROLE_PERIPHERAL || CYBLE_GAP_ROLE_BROADCASTER)
1432:.\Generated_Source\PSoC4/BLE_eventHandler.c ****                     CyBle_ChangeAdDeviceAddress(cyBle_sflashDeviceAddress, 0u);
ARM GAS  C:\Users\YBOURA~1\AppData\Local\Temp\cc3HigXd.s 			page 43


1433:.\Generated_Source\PSoC4/BLE_eventHandler.c ****                     CyBle_ChangeAdDeviceAddress(cyBle_sflashDeviceAddress, 1u);
1434:.\Generated_Source\PSoC4/BLE_eventHandler.c ****                 #endif /* CYBLE_GAP_ROLE_PERIPHERAL || CYBLE_GAP_ROLE_BROADCASTER */    
1435:.\Generated_Source\PSoC4/BLE_eventHandler.c ****             }
1436:.\Generated_Source\PSoC4/BLE_eventHandler.c ****             else
1437:.\Generated_Source\PSoC4/BLE_eventHandler.c ****             {
1438:.\Generated_Source\PSoC4/BLE_eventHandler.c ****             #if (SILICON_GENERATED_DEVICE_ADDRESS != 0u)
1439:.\Generated_Source\PSoC4/BLE_eventHandler.c ****                 cyBle_deviceAddress.bdAddr[0] = CYBLE_SFLASH_DIE_X_REG;
 947              		.loc 1 1439 0
 948 0080 924B     		ldr	r3, .L87+12
 949 0082 1A78     		ldrb	r2, [r3]
 950 0084 924B     		ldr	r3, .L87+16
 951 0086 1A70     		strb	r2, [r3]
1440:.\Generated_Source\PSoC4/BLE_eventHandler.c ****                 cyBle_deviceAddress.bdAddr[1] = CYBLE_SFLASH_DIE_Y_REG;
 952              		.loc 1 1440 0
 953 0088 924B     		ldr	r3, .L87+20
 954 008a 1A78     		ldrb	r2, [r3]
 955 008c 904B     		ldr	r3, .L87+16
 956 008e 5A70     		strb	r2, [r3, #1]
1441:.\Generated_Source\PSoC4/BLE_eventHandler.c ****                 cyBle_deviceAddress.bdAddr[2] = CYBLE_SFLASH_DIE_WAFER_REG;
 957              		.loc 1 1441 0
 958 0090 914B     		ldr	r3, .L87+24
 959 0092 1A78     		ldrb	r2, [r3]
 960 0094 8E4B     		ldr	r3, .L87+16
 961 0096 9A70     		strb	r2, [r3, #2]
1442:.\Generated_Source\PSoC4/BLE_eventHandler.c ****             #endif /* SILICON_GENERATED_DEVICE_ADDRESS != 0u */
1443:.\Generated_Source\PSoC4/BLE_eventHandler.c ****                 (void) CyBle_SetDeviceAddress(&cyBle_deviceAddress);
 962              		.loc 1 1443 0
 963 0098 8D4B     		ldr	r3, .L87+16
 964 009a 181C     		mov	r0, r3
 965 009c FFF7FEFF 		bl	CyBle_SetDeviceAddress
 966              	.L76:
1444:.\Generated_Source\PSoC4/BLE_eventHandler.c ****                 #if(CYBLE_GAP_ROLE_PERIPHERAL || CYBLE_GAP_ROLE_BROADCASTER)
1445:.\Generated_Source\PSoC4/BLE_eventHandler.c ****                     CyBle_ChangeAdDeviceAddress(&cyBle_deviceAddress, 0u);
1446:.\Generated_Source\PSoC4/BLE_eventHandler.c ****                     CyBle_ChangeAdDeviceAddress(&cyBle_deviceAddress, 1u);
1447:.\Generated_Source\PSoC4/BLE_eventHandler.c ****                 #endif /* CYBLE_GAP_ROLE_PERIPHERAL || CYBLE_GAP_ROLE_BROADCASTER */    
1448:.\Generated_Source\PSoC4/BLE_eventHandler.c ****             }
1449:.\Generated_Source\PSoC4/BLE_eventHandler.c ****             /* Set device IO Capability  */
1450:.\Generated_Source\PSoC4/BLE_eventHandler.c ****             (void) CyBle_GapSetIoCap(CYBLE_IO_CAPABILITY);    
 967              		.loc 1 1450 0
 968 00a0 0020     		mov	r0, #0
 969 00a2 FFF7FEFF 		bl	CyBle_GapSetIoCap
1451:.\Generated_Source\PSoC4/BLE_eventHandler.c ****         #endif /* CYBLE_GATT_ROLE_SERVER || CYBLE_GATT_ROLE_CLIENT */
1452:.\Generated_Source\PSoC4/BLE_eventHandler.c ****             CyBle_SetState(CYBLE_STATE_DISCONNECTED);
 970              		.loc 1 1452 0
 971 00a6 8D4B     		ldr	r3, .L87+28
 972 00a8 0422     		mov	r2, #4
 973 00aa 1A70     		strb	r2, [r3]
1453:.\Generated_Source\PSoC4/BLE_eventHandler.c ****             break;
 974              		.loc 1 1453 0
 975 00ac EDE0     		b	.L77
 976              	.L46:
1454:.\Generated_Source\PSoC4/BLE_eventHandler.c ****         case CYBLE_EVT_TIMEOUT:
1455:.\Generated_Source\PSoC4/BLE_eventHandler.c ****             CyBle_TimeOutEventHandler((CYBLE_TO_REASON_CODE_T *)eventParam);
 977              		.loc 1 1455 0
 978 00ae 3B68     		ldr	r3, [r7]
 979 00b0 181C     		mov	r0, r3
 980 00b2 FFF7FEFF 		bl	CyBle_TimeOutEventHandler
ARM GAS  C:\Users\YBOURA~1\AppData\Local\Temp\cc3HigXd.s 			page 44


1456:.\Generated_Source\PSoC4/BLE_eventHandler.c ****             break;
 981              		.loc 1 1456 0
 982 00b6 E8E0     		b	.L77
 983              	.L47:
1457:.\Generated_Source\PSoC4/BLE_eventHandler.c ****     	case CYBLE_EVT_STACK_BUSY_STATUS:
1458:.\Generated_Source\PSoC4/BLE_eventHandler.c ****             cyBle_busyStatus = *(uint8 *)eventParam;
 984              		.loc 1 1458 0
 985 00b8 3B68     		ldr	r3, [r7]
 986 00ba 1A78     		ldrb	r2, [r3]
 987 00bc 884B     		ldr	r3, .L87+32
 988 00be 1A70     		strb	r2, [r3]
1459:.\Generated_Source\PSoC4/BLE_eventHandler.c ****             break;
 989              		.loc 1 1459 0
 990 00c0 E3E0     		b	.L77
 991              	.L49:
1460:.\Generated_Source\PSoC4/BLE_eventHandler.c **** 
1461:.\Generated_Source\PSoC4/BLE_eventHandler.c ****         /**********************************************************
1462:.\Generated_Source\PSoC4/BLE_eventHandler.c ****         * GAP events
1463:.\Generated_Source\PSoC4/BLE_eventHandler.c ****         ************************************************************/
1464:.\Generated_Source\PSoC4/BLE_eventHandler.c ****         case CYBLE_EVT_GAP_AUTH_REQ:
1465:.\Generated_Source\PSoC4/BLE_eventHandler.c ****         #if(CYBLE_MODE_PROFILE)
1466:.\Generated_Source\PSoC4/BLE_eventHandler.c ****             if(0u == (cyBle_eventHandlerFlag & CYBLE_DISABLE_AUTOMATIC_AUTH))
 992              		.loc 1 1466 0
 993 00c2 7F4B     		ldr	r3, .L87
 994 00c4 1B78     		ldrb	r3, [r3]
 995 00c6 DBB2     		uxtb	r3, r3
 996 00c8 1A1C     		mov	r2, r3
 997 00ca 2023     		mov	r3, #32
 998 00cc 1340     		and	r3, r2
 999 00ce 07D1     		bne	.L78
1467:.\Generated_Source\PSoC4/BLE_eventHandler.c ****             {
1468:.\Generated_Source\PSoC4/BLE_eventHandler.c ****                 /* If the responding device does not support pairing then the responding 
1469:.\Generated_Source\PSoC4/BLE_eventHandler.c ****                    device shall respond using the Pairing Failed message with the error 
1470:.\Generated_Source\PSoC4/BLE_eventHandler.c ****                    code "Pairing Not Supported" otherwise it responds with a Pairing 
1471:.\Generated_Source\PSoC4/BLE_eventHandler.c ****                    Response message.
1472:.\Generated_Source\PSoC4/BLE_eventHandler.c ****                 */
1473:.\Generated_Source\PSoC4/BLE_eventHandler.c ****                 if(cyBle_authInfo.security == (CYBLE_GAP_SEC_MODE_1 | CYBLE_GAP_SEC_LEVEL_1))
 1000              		.loc 1 1473 0
 1001 00d0 844B     		ldr	r3, .L87+36
 1002 00d2 1B78     		ldrb	r3, [r3]
 1003 00d4 102B     		cmp	r3, #16
 1004 00d6 03D1     		bne	.L78
1474:.\Generated_Source\PSoC4/BLE_eventHandler.c ****                 {
1475:.\Generated_Source\PSoC4/BLE_eventHandler.c ****                     cyBle_authInfo.authErr = CYBLE_GAP_AUTH_ERROR_PAIRING_NOT_SUPPORTED;
 1005              		.loc 1 1475 0
 1006 00d8 824B     		ldr	r3, .L87+36
 1007 00da 0522     		mov	r2, #5
 1008 00dc DA70     		strb	r2, [r3, #3]
1476:.\Generated_Source\PSoC4/BLE_eventHandler.c ****                 }    
1477:.\Generated_Source\PSoC4/BLE_eventHandler.c ****             #if(CYBLE_GAP_ROLE_PERIPHERAL)
1478:.\Generated_Source\PSoC4/BLE_eventHandler.c ****                 (void)CyBle_GappAuthReqReply(cyBle_connHandle.bdHandle, &cyBle_authInfo);
1479:.\Generated_Source\PSoC4/BLE_eventHandler.c ****             #endif /* CYBLE_GAP_ROLE_PERIPHERAL */
1480:.\Generated_Source\PSoC4/BLE_eventHandler.c ****             #if (CYBLE_GAP_ROLE_CENTRAL)
1481:.\Generated_Source\PSoC4/BLE_eventHandler.c ****                 (void)CyBle_GapAuthReq(cyBle_connHandle.bdHandle, &cyBle_authInfo);
1482:.\Generated_Source\PSoC4/BLE_eventHandler.c ****             #endif /* CYBLE_GAP_ROLE_CENTRAL */
1483:.\Generated_Source\PSoC4/BLE_eventHandler.c ****             }
1484:.\Generated_Source\PSoC4/BLE_eventHandler.c ****         #endif /* CYBLE_MODE_PROFILE */
ARM GAS  C:\Users\YBOURA~1\AppData\Local\Temp\cc3HigXd.s 			page 45


1485:.\Generated_Source\PSoC4/BLE_eventHandler.c ****             break;
 1009              		.loc 1 1485 0
 1010 00de D4E0     		b	.L77
 1011              	.L78:
 1012 00e0 D3E0     		b	.L77
 1013              	.L53:
1486:.\Generated_Source\PSoC4/BLE_eventHandler.c ****         
1487:.\Generated_Source\PSoC4/BLE_eventHandler.c ****         case CYBLE_EVT_GAP_AUTH_COMPLETE:
1488:.\Generated_Source\PSoC4/BLE_eventHandler.c ****         #if((CYBLE_GAP_ROLE_PERIPHERAL || CYBLE_GAP_ROLE_CENTRAL) && (CYBLE_BONDING_REQUIREMENT == 
1489:.\Generated_Source\PSoC4/BLE_eventHandler.c ****             cyBle_peerBonding = ((CYBLE_GAP_AUTH_INFO_T *)eventParam)->bonding;
1490:.\Generated_Source\PSoC4/BLE_eventHandler.c ****         #endif  /* CYBLE_BONDING_REQUIREMENT == CYBLE_BONDING_YES */
1491:.\Generated_Source\PSoC4/BLE_eventHandler.c ****             break;
1492:.\Generated_Source\PSoC4/BLE_eventHandler.c ****         
1493:.\Generated_Source\PSoC4/BLE_eventHandler.c ****         case CYBLE_EVT_GAP_CONNECTION_UPDATE_COMPLETE:
1494:.\Generated_Source\PSoC4/BLE_eventHandler.c ****             CyBle_GapConnUpdateCompleteEventHandler((const CYBLE_GAP_CONN_PARAM_UPDATED_IN_CONTROLL
 1014              		.loc 1 1494 0
 1015 00e2 3B68     		ldr	r3, [r7]
 1016 00e4 181C     		mov	r0, r3
 1017 00e6 FFF7FEFF 		bl	CyBle_GapConnUpdateCompleteEventHandler
1495:.\Generated_Source\PSoC4/BLE_eventHandler.c ****             break;
 1018              		.loc 1 1495 0
 1019 00ea CEE0     		b	.L77
 1020              	.L51:
1496:.\Generated_Source\PSoC4/BLE_eventHandler.c ****             
1497:.\Generated_Source\PSoC4/BLE_eventHandler.c ****         case CYBLE_EVT_GAP_DEVICE_CONNECTED:
1498:.\Generated_Source\PSoC4/BLE_eventHandler.c ****             CyBle_GapConnUpdateCompleteEventHandler((const CYBLE_GAP_CONN_PARAM_UPDATED_IN_CONTROLL
 1021              		.loc 1 1498 0
 1022 00ec 3B68     		ldr	r3, [r7]
 1023 00ee 181C     		mov	r0, r3
 1024 00f0 FFF7FEFF 		bl	CyBle_GapConnUpdateCompleteEventHandler
1499:.\Generated_Source\PSoC4/BLE_eventHandler.c ****             #if(CYBLE_GAP_ROLE_CENTRAL)
1500:.\Generated_Source\PSoC4/BLE_eventHandler.c ****                 if(cyBle_connectingTimeout != 0u)
1501:.\Generated_Source\PSoC4/BLE_eventHandler.c ****                 {
1502:.\Generated_Source\PSoC4/BLE_eventHandler.c ****                    (void)CyBle_StopTimer();
1503:.\Generated_Source\PSoC4/BLE_eventHandler.c ****                 }
1504:.\Generated_Source\PSoC4/BLE_eventHandler.c ****             #endif /* CYBLE_GAP_ROLE_CENTRAL */
1505:.\Generated_Source\PSoC4/BLE_eventHandler.c ****             CyBle_SetState(CYBLE_STATE_CONNECTED);
 1025              		.loc 1 1505 0
 1026 00f4 794B     		ldr	r3, .L87+28
 1027 00f6 0222     		mov	r2, #2
 1028 00f8 1A70     		strb	r2, [r3]
1506:.\Generated_Source\PSoC4/BLE_eventHandler.c ****             break;
 1029              		.loc 1 1506 0
 1030 00fa C6E0     		b	.L77
 1031              	.L52:
1507:.\Generated_Source\PSoC4/BLE_eventHandler.c **** 
1508:.\Generated_Source\PSoC4/BLE_eventHandler.c ****         case CYBLE_EVT_GAP_DEVICE_DISCONNECTED:
1509:.\Generated_Source\PSoC4/BLE_eventHandler.c ****             CyBle_SetState(CYBLE_STATE_DISCONNECTED);
 1032              		.loc 1 1509 0
 1033 00fc 774B     		ldr	r3, .L87+28
 1034 00fe 0422     		mov	r2, #4
 1035 0100 1A70     		strb	r2, [r3]
1510:.\Generated_Source\PSoC4/BLE_eventHandler.c ****             break;
 1036              		.loc 1 1510 0
 1037 0102 C2E0     		b	.L77
 1038              	.L54:
1511:.\Generated_Source\PSoC4/BLE_eventHandler.c ****         #if(CYBLE_GAP_ROLE_PERIPHERAL || CYBLE_GAP_ROLE_BROADCASTER)
ARM GAS  C:\Users\YBOURA~1\AppData\Local\Temp\cc3HigXd.s 			page 46


1512:.\Generated_Source\PSoC4/BLE_eventHandler.c ****             
1513:.\Generated_Source\PSoC4/BLE_eventHandler.c ****         case CYBLE_EVT_GAPP_ADVERTISEMENT_START_STOP:
1514:.\Generated_Source\PSoC4/BLE_eventHandler.c ****             #ifdef CYBLE_CPS_SERVER
1515:.\Generated_Source\PSoC4/BLE_eventHandler.c ****                 #if(CYBLE_GAP_ROLE_BROADCASTER)
1516:.\Generated_Source\PSoC4/BLE_eventHandler.c ****                     CyBle_CpssAdvertisementStartStopEventHandler();
1517:.\Generated_Source\PSoC4/BLE_eventHandler.c ****                 #endif /* CYBLE_GAP_ROLE_BROADCASTER */
1518:.\Generated_Source\PSoC4/BLE_eventHandler.c ****             #endif /* CYBLE_CPS_SERVER */
1519:.\Generated_Source\PSoC4/BLE_eventHandler.c ****             
1520:.\Generated_Source\PSoC4/BLE_eventHandler.c ****             if((CYBLE_STATE_CONNECTED != CyBle_GetState()) && ((cyBle_eventHandlerFlag & CYBLE_CALL
1521:.\Generated_Source\PSoC4/BLE_eventHandler.c ****             {
1522:.\Generated_Source\PSoC4/BLE_eventHandler.c ****                 /* After CyBle_GappStartAdvertisement first event indicates that advertising has be
1523:.\Generated_Source\PSoC4/BLE_eventHandler.c ****                 if(0u != (cyBle_eventHandlerFlag & CYBLE_START_FLAG))
1524:.\Generated_Source\PSoC4/BLE_eventHandler.c ****                 {
1525:.\Generated_Source\PSoC4/BLE_eventHandler.c ****                     CyBle_SetState(CYBLE_STATE_ADVERTISING);
1526:.\Generated_Source\PSoC4/BLE_eventHandler.c ****                     cyBle_eventHandlerFlag &= (uint8)~CYBLE_START_FLAG;
1527:.\Generated_Source\PSoC4/BLE_eventHandler.c ****                 }
1528:.\Generated_Source\PSoC4/BLE_eventHandler.c ****                 /* When application initiated stop advertisement */
1529:.\Generated_Source\PSoC4/BLE_eventHandler.c ****                 else if(0u != (cyBle_eventHandlerFlag & CYBLE_STOP_FLAG))
1530:.\Generated_Source\PSoC4/BLE_eventHandler.c ****                 {
1531:.\Generated_Source\PSoC4/BLE_eventHandler.c ****                     CyBle_SetState(CYBLE_STATE_DISCONNECTED);  
1532:.\Generated_Source\PSoC4/BLE_eventHandler.c ****                     cyBle_eventHandlerFlag &= (uint8)~CYBLE_STOP_FLAG;
1533:.\Generated_Source\PSoC4/BLE_eventHandler.c ****                 }
1534:.\Generated_Source\PSoC4/BLE_eventHandler.c ****                 else /* Following event indicates that advertising has been stopped */
1535:.\Generated_Source\PSoC4/BLE_eventHandler.c ****                 {
1536:.\Generated_Source\PSoC4/BLE_eventHandler.c ****                     if(CYBLE_STATE_ADVERTISING == CyBle_GetState())
1537:.\Generated_Source\PSoC4/BLE_eventHandler.c ****                     {
1538:.\Generated_Source\PSoC4/BLE_eventHandler.c ****                         CyBle_SetState(CYBLE_STATE_DISCONNECTED);
1539:.\Generated_Source\PSoC4/BLE_eventHandler.c ****                     #if ((CYBLE_SLOW_ADV_ENABLED != 0u) && (CYBLE_FAST_ADV_TIMEOUT != 0u))
1540:.\Generated_Source\PSoC4/BLE_eventHandler.c ****                         if(cyBle_advertisingIntervalType == CYBLE_ADVERTISING_FAST)
1541:.\Generated_Source\PSoC4/BLE_eventHandler.c ****                         {
1542:.\Generated_Source\PSoC4/BLE_eventHandler.c ****                             /* When fast advertising time out occur: Start slow advertising */
1543:.\Generated_Source\PSoC4/BLE_eventHandler.c ****                             if(CYBLE_ERROR_OK == CyBle_GappStartAdvertisement(CYBLE_ADVERTISING_SLO
1544:.\Generated_Source\PSoC4/BLE_eventHandler.c ****                             {
1545:.\Generated_Source\PSoC4/BLE_eventHandler.c ****                                 CyBle_SetState(CYBLE_STATE_ADVERTISING);
1546:.\Generated_Source\PSoC4/BLE_eventHandler.c ****                             }
1547:.\Generated_Source\PSoC4/BLE_eventHandler.c ****                         }
1548:.\Generated_Source\PSoC4/BLE_eventHandler.c ****                     #endif /* CYBLE_SLOW_ADV_ENABLED */
1549:.\Generated_Source\PSoC4/BLE_eventHandler.c ****                     }
1550:.\Generated_Source\PSoC4/BLE_eventHandler.c ****                 }
1551:.\Generated_Source\PSoC4/BLE_eventHandler.c ****             }
1552:.\Generated_Source\PSoC4/BLE_eventHandler.c ****             break;
1553:.\Generated_Source\PSoC4/BLE_eventHandler.c ****         #endif /* CYBLE_GAP_ROLE_PERIPHERAL || CYBLE_GAP_ROLE_BROADCASTER */
1554:.\Generated_Source\PSoC4/BLE_eventHandler.c ****         
1555:.\Generated_Source\PSoC4/BLE_eventHandler.c ****         #if(CYBLE_GAP_ROLE_CENTRAL || CYBLE_GAP_ROLE_OBSERVER)    
1556:.\Generated_Source\PSoC4/BLE_eventHandler.c ****         case CYBLE_EVT_GAPC_SCAN_START_STOP:
1557:.\Generated_Source\PSoC4/BLE_eventHandler.c ****             #ifdef CYBLE_CPS_CLIENT
1558:.\Generated_Source\PSoC4/BLE_eventHandler.c ****                 CyBle_CpscScanStartStopEventHandler();
1559:.\Generated_Source\PSoC4/BLE_eventHandler.c ****             #endif /* CYBLE_CPS_CLIENT */
1560:.\Generated_Source\PSoC4/BLE_eventHandler.c ****             
1561:.\Generated_Source\PSoC4/BLE_eventHandler.c ****             if((CYBLE_STATE_CONNECTED != CyBle_GetState()) && ((cyBle_eventHandlerFlag & CYBLE_CALL
 1039              		.loc 1 1561 0
 1040 0104 754B     		ldr	r3, .L87+28
 1041 0106 1B78     		ldrb	r3, [r3]
 1042 0108 022B     		cmp	r3, #2
 1043 010a 34D0     		beq	.L79
 1044              		.loc 1 1561 0 is_stmt 0 discriminator 1
 1045 010c 6C4B     		ldr	r3, .L87
ARM GAS  C:\Users\YBOURA~1\AppData\Local\Temp\cc3HigXd.s 			page 47


 1046 010e 1B78     		ldrb	r3, [r3]
 1047 0110 DBB2     		uxtb	r3, r3
 1048 0112 1A1C     		mov	r2, r3
 1049 0114 0123     		mov	r3, #1
 1050 0116 1340     		and	r3, r2
 1051 0118 2DD0     		beq	.L79
1562:.\Generated_Source\PSoC4/BLE_eventHandler.c ****             {
1563:.\Generated_Source\PSoC4/BLE_eventHandler.c ****                 /* After CyBle_GapcStartScan first event indicates that scanning has been started *
1564:.\Generated_Source\PSoC4/BLE_eventHandler.c ****                 if(0u != (cyBle_eventHandlerFlag & CYBLE_START_FLAG))
 1052              		.loc 1 1564 0 is_stmt 1
 1053 011a 694B     		ldr	r3, .L87
 1054 011c 1B78     		ldrb	r3, [r3]
 1055 011e DBB2     		uxtb	r3, r3
 1056 0120 1A1C     		mov	r2, r3
 1057 0122 0423     		mov	r3, #4
 1058 0124 1340     		and	r3, r2
 1059 0126 0BD0     		beq	.L80
1565:.\Generated_Source\PSoC4/BLE_eventHandler.c ****                 {
1566:.\Generated_Source\PSoC4/BLE_eventHandler.c ****                     CyBle_SetState(CYBLE_STATE_SCANNING);
 1060              		.loc 1 1566 0
 1061 0128 6C4B     		ldr	r3, .L87+28
 1062 012a 0322     		mov	r2, #3
 1063 012c 1A70     		strb	r2, [r3]
1567:.\Generated_Source\PSoC4/BLE_eventHandler.c ****                     cyBle_eventHandlerFlag &= (uint8)~CYBLE_START_FLAG;
 1064              		.loc 1 1567 0
 1065 012e 644B     		ldr	r3, .L87
 1066 0130 1B78     		ldrb	r3, [r3]
 1067 0132 DBB2     		uxtb	r3, r3
 1068 0134 0422     		mov	r2, #4
 1069 0136 9343     		bic	r3, r2
 1070 0138 DAB2     		uxtb	r2, r3
 1071 013a 614B     		ldr	r3, .L87
 1072 013c 1A70     		strb	r2, [r3]
 1073 013e 1AE0     		b	.L79
 1074              	.L80:
1568:.\Generated_Source\PSoC4/BLE_eventHandler.c ****                 }
1569:.\Generated_Source\PSoC4/BLE_eventHandler.c ****                 /* When application initiated stop scanning */
1570:.\Generated_Source\PSoC4/BLE_eventHandler.c ****                 else if(0u != (cyBle_eventHandlerFlag & CYBLE_STOP_FLAG))
 1075              		.loc 1 1570 0
 1076 0140 5F4B     		ldr	r3, .L87
 1077 0142 1B78     		ldrb	r3, [r3]
 1078 0144 DBB2     		uxtb	r3, r3
 1079 0146 1A1C     		mov	r2, r3
 1080 0148 0823     		mov	r3, #8
 1081 014a 1340     		and	r3, r2
 1082 014c 0BD0     		beq	.L81
1571:.\Generated_Source\PSoC4/BLE_eventHandler.c ****                 {
1572:.\Generated_Source\PSoC4/BLE_eventHandler.c ****                     CyBle_SetState(CYBLE_STATE_DISCONNECTED);  
 1083              		.loc 1 1572 0
 1084 014e 634B     		ldr	r3, .L87+28
 1085 0150 0422     		mov	r2, #4
 1086 0152 1A70     		strb	r2, [r3]
1573:.\Generated_Source\PSoC4/BLE_eventHandler.c ****                     cyBle_eventHandlerFlag &= (uint8)~CYBLE_STOP_FLAG;
 1087              		.loc 1 1573 0
 1088 0154 5A4B     		ldr	r3, .L87
 1089 0156 1B78     		ldrb	r3, [r3]
 1090 0158 DBB2     		uxtb	r3, r3
ARM GAS  C:\Users\YBOURA~1\AppData\Local\Temp\cc3HigXd.s 			page 48


 1091 015a 0822     		mov	r2, #8
 1092 015c 9343     		bic	r3, r2
 1093 015e DAB2     		uxtb	r2, r3
 1094 0160 574B     		ldr	r3, .L87
 1095 0162 1A70     		strb	r2, [r3]
 1096 0164 07E0     		b	.L79
 1097              	.L81:
1574:.\Generated_Source\PSoC4/BLE_eventHandler.c ****                 }
1575:.\Generated_Source\PSoC4/BLE_eventHandler.c ****                 else /* Following event indicates that scanning has been stopped by stack */
1576:.\Generated_Source\PSoC4/BLE_eventHandler.c ****                 {
1577:.\Generated_Source\PSoC4/BLE_eventHandler.c ****                     if(CYBLE_STATE_SCANNING == CyBle_GetState())
 1098              		.loc 1 1577 0
 1099 0166 5D4B     		ldr	r3, .L87+28
 1100 0168 1B78     		ldrb	r3, [r3]
 1101 016a 032B     		cmp	r3, #3
 1102 016c 03D1     		bne	.L79
1578:.\Generated_Source\PSoC4/BLE_eventHandler.c ****                     {
1579:.\Generated_Source\PSoC4/BLE_eventHandler.c ****                         CyBle_SetState(CYBLE_STATE_DISCONNECTED);  
 1103              		.loc 1 1579 0
 1104 016e 5B4B     		ldr	r3, .L87+28
 1105 0170 0422     		mov	r2, #4
 1106 0172 1A70     		strb	r2, [r3]
1580:.\Generated_Source\PSoC4/BLE_eventHandler.c ****                     #if ((CYBLE_SLOW_SCAN_ENABLED != 0u) && (CYBLE_FAST_SCAN_TIMEOUT != 0u))
1581:.\Generated_Source\PSoC4/BLE_eventHandler.c ****                         if(cyBle_scanningIntervalType == CYBLE_SCANNING_FAST)
1582:.\Generated_Source\PSoC4/BLE_eventHandler.c ****                         {
1583:.\Generated_Source\PSoC4/BLE_eventHandler.c ****                             /* When fast scanning time out occur: Start slow scanning */
1584:.\Generated_Source\PSoC4/BLE_eventHandler.c ****                             if(CYBLE_ERROR_OK == CyBle_GapcStartScan(CYBLE_SCANNING_SLOW))
1585:.\Generated_Source\PSoC4/BLE_eventHandler.c ****                             {
1586:.\Generated_Source\PSoC4/BLE_eventHandler.c ****                                 CyBle_SetState(CYBLE_STATE_SCANNING);
1587:.\Generated_Source\PSoC4/BLE_eventHandler.c ****                             }
1588:.\Generated_Source\PSoC4/BLE_eventHandler.c ****                         }
1589:.\Generated_Source\PSoC4/BLE_eventHandler.c ****                     #endif /* CYBLE_SLOW_SCAN_ENABLED */
1590:.\Generated_Source\PSoC4/BLE_eventHandler.c ****                     }
1591:.\Generated_Source\PSoC4/BLE_eventHandler.c ****                 }
1592:.\Generated_Source\PSoC4/BLE_eventHandler.c ****             }
1593:.\Generated_Source\PSoC4/BLE_eventHandler.c ****             break;
 1107              		.loc 1 1593 0
 1108 0174 89E0     		b	.L77
 1109              	.L79:
 1110 0176 88E0     		b	.L77
 1111              	.L74:
1594:.\Generated_Source\PSoC4/BLE_eventHandler.c ****         #endif /* CYBLE_GAP_ROLE_CENTRAL || CYBLE_GAP_ROLE_OBSERVER */
1595:.\Generated_Source\PSoC4/BLE_eventHandler.c **** 
1596:.\Generated_Source\PSoC4/BLE_eventHandler.c ****         /**********************************************************
1597:.\Generated_Source\PSoC4/BLE_eventHandler.c ****         * L2AP events 
1598:.\Generated_Source\PSoC4/BLE_eventHandler.c ****         ************************************************************/
1599:.\Generated_Source\PSoC4/BLE_eventHandler.c ****         case CYBLE_EVT_L2CAP_CONN_PARAM_UPDATE_RSP:
1600:.\Generated_Source\PSoC4/BLE_eventHandler.c ****             CyBle_L2Cap_ConnParamUpdateRspEventHandler(*(uint16 *)eventParam);
 1112              		.loc 1 1600 0
 1113 0178 3B68     		ldr	r3, [r7]
 1114 017a 1B88     		ldrh	r3, [r3]
 1115 017c 181C     		mov	r0, r3
 1116 017e FFF7FEFF 		bl	CyBle_L2Cap_ConnParamUpdateRspEventHandler
1601:.\Generated_Source\PSoC4/BLE_eventHandler.c ****             break;
 1117              		.loc 1 1601 0
 1118 0182 82E0     		b	.L77
 1119              	.L56:
ARM GAS  C:\Users\YBOURA~1\AppData\Local\Temp\cc3HigXd.s 			page 49


1602:.\Generated_Source\PSoC4/BLE_eventHandler.c ****         
1603:.\Generated_Source\PSoC4/BLE_eventHandler.c ****         /**********************************************************
1604:.\Generated_Source\PSoC4/BLE_eventHandler.c ****         * GATT events
1605:.\Generated_Source\PSoC4/BLE_eventHandler.c ****         ************************************************************/        
1606:.\Generated_Source\PSoC4/BLE_eventHandler.c ****         case CYBLE_EVT_GATT_CONNECT_IND:
1607:.\Generated_Source\PSoC4/BLE_eventHandler.c ****             cyBle_connHandle = *(CYBLE_CONN_HANDLE_T *)eventParam;
 1120              		.loc 1 1607 0
 1121 0184 584A     		ldr	r2, .L87+40
 1122 0186 3B68     		ldr	r3, [r7]
 1123 0188 111C     		mov	r1, r2
 1124 018a 1A1C     		mov	r2, r3
 1125 018c 0223     		mov	r3, #2
 1126 018e 081C     		mov	r0, r1
 1127 0190 111C     		mov	r1, r2
 1128 0192 1A1C     		mov	r2, r3
 1129 0194 FFF7FEFF 		bl	memcpy
1608:.\Generated_Source\PSoC4/BLE_eventHandler.c ****             
1609:.\Generated_Source\PSoC4/BLE_eventHandler.c ****         #if((CYBLE_GATT_ROLE_SERVER) && (CYBLE_GATT_DB_CCCD_COUNT != 0u))
1610:.\Generated_Source\PSoC4/BLE_eventHandler.c ****             /* Init CCCD values in RAM */
1611:.\Generated_Source\PSoC4/BLE_eventHandler.c ****         	(void) memcpy (cyBle_attValuesCCCD, cyBle_flashStorage.attValuesCCCDFlashMemory[cyBle_conn
 1130              		.loc 1 1611 0
 1131 0198 534B     		ldr	r3, .L87+40
 1132 019a 1B78     		ldrb	r3, [r3]
 1133 019c B433     		add	r3, r3, #180
 1134 019e 5A00     		lsl	r2, r3, #1
 1135 01a0 524B     		ldr	r3, .L87+44
 1136 01a2 D318     		add	r3, r2, r3
 1137 01a4 0533     		add	r3, r3, #5
 1138 01a6 524A     		ldr	r2, .L87+48
 1139 01a8 111C     		mov	r1, r2
 1140 01aa 1A1C     		mov	r2, r3
 1141 01ac 0223     		mov	r3, #2
 1142 01ae 081C     		mov	r0, r1
 1143 01b0 111C     		mov	r1, r2
 1144 01b2 1A1C     		mov	r2, r3
 1145 01b4 FFF7FEFF 		bl	memcpy
1612:.\Generated_Source\PSoC4/BLE_eventHandler.c ****                             CYBLE_GATT_DB_CCCD_COUNT);
1613:.\Generated_Source\PSoC4/BLE_eventHandler.c ****         #endif /* CYBLE_GATT_ROLE_SERVER */
1614:.\Generated_Source\PSoC4/BLE_eventHandler.c ****         
1615:.\Generated_Source\PSoC4/BLE_eventHandler.c ****         #if (CYBLE_GATT_ROLE_CLIENT)
1616:.\Generated_Source\PSoC4/BLE_eventHandler.c ****             CyBle_SetClientState(CYBLE_CLIENT_STATE_CONNECTED);
 1146              		.loc 1 1616 0
 1147 01b8 4E4B     		ldr	r3, .L87+52
 1148 01ba 0022     		mov	r2, #0
 1149 01bc 1A70     		strb	r2, [r3]
1617:.\Generated_Source\PSoC4/BLE_eventHandler.c ****         #endif /* CYBLE_GATT_ROLE_CLIENT */
1618:.\Generated_Source\PSoC4/BLE_eventHandler.c ****         
1619:.\Generated_Source\PSoC4/BLE_eventHandler.c ****             CyBle_GattConnectReqHandler();
 1150              		.loc 1 1619 0
 1151 01be FFF7FEFF 		bl	CyBle_GattConnectReqHandler
1620:.\Generated_Source\PSoC4/BLE_eventHandler.c ****             break;
 1152              		.loc 1 1620 0
 1153 01c2 62E0     		b	.L77
 1154              	.L57:
1621:.\Generated_Source\PSoC4/BLE_eventHandler.c **** 
1622:.\Generated_Source\PSoC4/BLE_eventHandler.c ****         case CYBLE_EVT_GATT_DISCONNECT_IND:
1623:.\Generated_Source\PSoC4/BLE_eventHandler.c ****             CyBle_GattDisconnectEventHandler();
ARM GAS  C:\Users\YBOURA~1\AppData\Local\Temp\cc3HigXd.s 			page 50


 1155              		.loc 1 1623 0
 1156 01c4 FFF7FEFF 		bl	CyBle_GattDisconnectEventHandler
1624:.\Generated_Source\PSoC4/BLE_eventHandler.c ****             break;
 1157              		.loc 1 1624 0
 1158 01c8 5FE0     		b	.L77
 1159              	.L58:
 1160              	.LBB5:
1625:.\Generated_Source\PSoC4/BLE_eventHandler.c **** 
1626:.\Generated_Source\PSoC4/BLE_eventHandler.c ****     #if((CYBLE_GATT_ROLE_SERVER) || (CYBLE_GATT_ROLE_CLIENT))
1627:.\Generated_Source\PSoC4/BLE_eventHandler.c ****         case CYBLE_EVT_GATTS_XCNHG_MTU_REQ:
1628:.\Generated_Source\PSoC4/BLE_eventHandler.c ****             {
1629:.\Generated_Source\PSoC4/BLE_eventHandler.c ****                 uint16 cyBle_mtuSize;
1630:.\Generated_Source\PSoC4/BLE_eventHandler.c ****                 if(CYBLE_GATT_MTU > ((CYBLE_GATT_XCHG_MTU_PARAM_T *)eventParam)->mtu)
 1161              		.loc 1 1630 0
 1162 01ca 3B68     		ldr	r3, [r7]
 1163 01cc 5B88     		ldrh	r3, [r3, #2]
 1164 01ce 162B     		cmp	r3, #22
 1165 01d0 05D8     		bhi	.L82
1631:.\Generated_Source\PSoC4/BLE_eventHandler.c ****                 {
1632:.\Generated_Source\PSoC4/BLE_eventHandler.c ****                     cyBle_mtuSize = ((CYBLE_GATT_XCHG_MTU_PARAM_T *)eventParam)->mtu;
 1166              		.loc 1 1632 0
 1167 01d2 0E23     		mov	r3, #14
 1168 01d4 FB18     		add	r3, r7, r3
 1169 01d6 3A68     		ldr	r2, [r7]
 1170 01d8 5288     		ldrh	r2, [r2, #2]
 1171 01da 1A80     		strh	r2, [r3]
 1172 01dc 03E0     		b	.L83
 1173              	.L82:
1633:.\Generated_Source\PSoC4/BLE_eventHandler.c ****                 }
1634:.\Generated_Source\PSoC4/BLE_eventHandler.c ****                 else
1635:.\Generated_Source\PSoC4/BLE_eventHandler.c ****                 {
1636:.\Generated_Source\PSoC4/BLE_eventHandler.c ****                     cyBle_mtuSize = CYBLE_GATT_MTU;
 1174              		.loc 1 1636 0
 1175 01de 0E23     		mov	r3, #14
 1176 01e0 FB18     		add	r3, r7, r3
 1177 01e2 1722     		mov	r2, #23
 1178 01e4 1A80     		strh	r2, [r3]
 1179              	.L83:
1637:.\Generated_Source\PSoC4/BLE_eventHandler.c ****                 }
1638:.\Generated_Source\PSoC4/BLE_eventHandler.c ****                 (void)CyBle_GattsExchangeMtuRsp(((CYBLE_GATT_XCHG_MTU_PARAM_T *)eventParam)->connHa
 1180              		.loc 1 1638 0
 1181 01e6 3B68     		ldr	r3, [r7]
 1182 01e8 0E22     		mov	r2, #14
 1183 01ea BA18     		add	r2, r7, r2
 1184 01ec 1188     		ldrh	r1, [r2]
 1185 01ee 1A88     		ldrh	r2, [r3]
 1186 01f0 0023     		mov	r3, #0
 1187 01f2 1204     		lsl	r2, r2, #16
 1188 01f4 120C     		lsr	r2, r2, #16
 1189 01f6 1B0C     		lsr	r3, r3, #16
 1190 01f8 1B04     		lsl	r3, r3, #16
 1191 01fa 1343     		orr	r3, r2
 1192 01fc 181C     		mov	r0, r3
 1193 01fe FFF7FEFF 		bl	CyBle_GattsExchangeMtuRsp
 1194              	.LBE5:
1639:.\Generated_Source\PSoC4/BLE_eventHandler.c ****             }
1640:.\Generated_Source\PSoC4/BLE_eventHandler.c ****             break;
ARM GAS  C:\Users\YBOURA~1\AppData\Local\Temp\cc3HigXd.s 			page 51


 1195              		.loc 1 1640 0
 1196 0202 42E0     		b	.L77
 1197              	.L64:
1641:.\Generated_Source\PSoC4/BLE_eventHandler.c ****     #endif /* CYBLE_GATT_ROLE_SERVER || CYBLE_GATT_ROLE_CLIENT */
1642:.\Generated_Source\PSoC4/BLE_eventHandler.c ****     
1643:.\Generated_Source\PSoC4/BLE_eventHandler.c ****     #if (CYBLE_GATT_ROLE_CLIENT)
1644:.\Generated_Source\PSoC4/BLE_eventHandler.c ****         case CYBLE_EVT_GAPC_SCAN_PROGRESS_RESULT:
1645:.\Generated_Source\PSoC4/BLE_eventHandler.c ****         #ifdef CYBLE_CPS_CLIENT
1646:.\Generated_Source\PSoC4/BLE_eventHandler.c ****                 CyBle_CpscScanProcessEventHandler((CYBLE_GAPC_ADV_REPORT_T *)eventParam);
1647:.\Generated_Source\PSoC4/BLE_eventHandler.c ****         #endif /* CYBLE_CPS_CLIENT */
1648:.\Generated_Source\PSoC4/BLE_eventHandler.c ****             break;
1649:.\Generated_Source\PSoC4/BLE_eventHandler.c ****     #endif /* CYBLE_GATT_ROLE_CLIENT */
1650:.\Generated_Source\PSoC4/BLE_eventHandler.c **** 
1651:.\Generated_Source\PSoC4/BLE_eventHandler.c ****     #if(CYBLE_GATT_ROLE_SERVER)
1652:.\Generated_Source\PSoC4/BLE_eventHandler.c ****         case CYBLE_EVT_GATTS_WRITE_REQ:
1653:.\Generated_Source\PSoC4/BLE_eventHandler.c ****             CyBle_WriteReqHandler((CYBLE_GATTS_WRITE_REQ_PARAM_T *)eventParam);
 1198              		.loc 1 1653 0
 1199 0204 3B68     		ldr	r3, [r7]
 1200 0206 181C     		mov	r0, r3
 1201 0208 FFF7FEFF 		bl	CyBle_WriteReqHandler
1654:.\Generated_Source\PSoC4/BLE_eventHandler.c ****             break;
 1202              		.loc 1 1654 0
 1203 020c 3DE0     		b	.L77
 1204              	.L72:
1655:.\Generated_Source\PSoC4/BLE_eventHandler.c **** 
1656:.\Generated_Source\PSoC4/BLE_eventHandler.c ****         case CYBLE_EVT_GATTS_WRITE_CMD_REQ:
1657:.\Generated_Source\PSoC4/BLE_eventHandler.c ****         #ifdef CYBLE_IAS_SERVER
1658:.\Generated_Source\PSoC4/BLE_eventHandler.c ****             if((cyBle_eventHandlerFlag & CYBLE_CALLBACK) != 0u)
1659:.\Generated_Source\PSoC4/BLE_eventHandler.c ****             {
1660:.\Generated_Source\PSoC4/BLE_eventHandler.c ****                 (void)CyBle_IassWriteCmdEventHandler((CYBLE_GATTS_WRITE_REQ_PARAM_T *)eventParam);
1661:.\Generated_Source\PSoC4/BLE_eventHandler.c ****             }
1662:.\Generated_Source\PSoC4/BLE_eventHandler.c ****         #endif /* CYBLE_IAS_SERVER */
1663:.\Generated_Source\PSoC4/BLE_eventHandler.c ****         #ifdef CYBLE_HIDS_SERVER
1664:.\Generated_Source\PSoC4/BLE_eventHandler.c ****             if((cyBle_eventHandlerFlag & CYBLE_CALLBACK) != 0u)
1665:.\Generated_Source\PSoC4/BLE_eventHandler.c ****             {
1666:.\Generated_Source\PSoC4/BLE_eventHandler.c ****                 (void)CyBle_HidssWriteEventHandler((CYBLE_GATTS_WRITE_REQ_PARAM_T *)eventParam);
1667:.\Generated_Source\PSoC4/BLE_eventHandler.c ****             }
1668:.\Generated_Source\PSoC4/BLE_eventHandler.c ****         #endif /* CYBLE_HIDS_SERVER */
1669:.\Generated_Source\PSoC4/BLE_eventHandler.c ****         #ifdef CYBLE_PASS_SERVER
1670:.\Generated_Source\PSoC4/BLE_eventHandler.c ****             if((cyBle_eventHandlerFlag & CYBLE_CALLBACK) != 0u)
1671:.\Generated_Source\PSoC4/BLE_eventHandler.c ****             {
1672:.\Generated_Source\PSoC4/BLE_eventHandler.c ****                 (void)CyBle_PasssWriteCmdEventHandler((CYBLE_GATTS_WRITE_REQ_PARAM_T *)eventParam);
1673:.\Generated_Source\PSoC4/BLE_eventHandler.c ****             }
1674:.\Generated_Source\PSoC4/BLE_eventHandler.c ****         #endif /* CYBLE_PASS_SERVER */
1675:.\Generated_Source\PSoC4/BLE_eventHandler.c ****         #ifdef CYBLE_RTUS_SERVER
1676:.\Generated_Source\PSoC4/BLE_eventHandler.c ****             if((cyBle_eventHandlerFlag & CYBLE_CALLBACK) != 0u)
1677:.\Generated_Source\PSoC4/BLE_eventHandler.c ****             {
1678:.\Generated_Source\PSoC4/BLE_eventHandler.c ****                 (void)CyBle_RtussWriteCmdEventHandler((CYBLE_GATTS_WRITE_REQ_PARAM_T *)eventParam);
1679:.\Generated_Source\PSoC4/BLE_eventHandler.c ****             }
1680:.\Generated_Source\PSoC4/BLE_eventHandler.c ****         #endif /* CYBLE_RTUS_SERVER */
1681:.\Generated_Source\PSoC4/BLE_eventHandler.c ****         #ifdef CYBLE_SCPS_SERVER
1682:.\Generated_Source\PSoC4/BLE_eventHandler.c ****             if((cyBle_eventHandlerFlag & CYBLE_CALLBACK) != 0u)
1683:.\Generated_Source\PSoC4/BLE_eventHandler.c ****             {
1684:.\Generated_Source\PSoC4/BLE_eventHandler.c ****                 (void)CyBle_ScpssWriteEventHandler((CYBLE_GATTS_WRITE_REQ_PARAM_T *)eventParam);
1685:.\Generated_Source\PSoC4/BLE_eventHandler.c ****             }
1686:.\Generated_Source\PSoC4/BLE_eventHandler.c ****         #endif /* CYBLE_SCPS_SERVER */
1687:.\Generated_Source\PSoC4/BLE_eventHandler.c ****             break;
ARM GAS  C:\Users\YBOURA~1\AppData\Local\Temp\cc3HigXd.s 			page 52


1688:.\Generated_Source\PSoC4/BLE_eventHandler.c ****         
1689:.\Generated_Source\PSoC4/BLE_eventHandler.c ****         case CYBLE_EVT_GATTS_PREP_WRITE_REQ:
1690:.\Generated_Source\PSoC4/BLE_eventHandler.c ****         #ifdef CYBLE_BMS_SERVER
1691:.\Generated_Source\PSoC4/BLE_eventHandler.c ****             CyBle_BmssPrepareWriteRequestEventHandler((CYBLE_GATTS_PREP_WRITE_REQ_PARAM_T *)eventPa
1692:.\Generated_Source\PSoC4/BLE_eventHandler.c ****         #endif /* CYBLE_BMS_SERVER */
1693:.\Generated_Source\PSoC4/BLE_eventHandler.c ****         #ifdef CYBLE_BTS_SERVER
1694:.\Generated_Source\PSoC4/BLE_eventHandler.c ****             if((cyBle_eventHandlerFlag & CYBLE_CALLBACK) != 0u)
1695:.\Generated_Source\PSoC4/BLE_eventHandler.c ****             {
1696:.\Generated_Source\PSoC4/BLE_eventHandler.c ****                 CyBle_BtssPrepareWriteRequestEventHandler((CYBLE_GATTS_PREP_WRITE_REQ_PARAM_T *)eve
1697:.\Generated_Source\PSoC4/BLE_eventHandler.c ****             }
1698:.\Generated_Source\PSoC4/BLE_eventHandler.c ****         #endif /* CYBLE_BTS_SERVER */
1699:.\Generated_Source\PSoC4/BLE_eventHandler.c ****         #ifdef CYBLE_ESS_SERVER
1700:.\Generated_Source\PSoC4/BLE_eventHandler.c ****             if((cyBle_eventHandlerFlag & CYBLE_CALLBACK) != 0u)
1701:.\Generated_Source\PSoC4/BLE_eventHandler.c ****             {
1702:.\Generated_Source\PSoC4/BLE_eventHandler.c ****                 CyBle_EsssPrepareWriteRequestEventHandler((CYBLE_GATTS_PREP_WRITE_REQ_PARAM_T *)eve
1703:.\Generated_Source\PSoC4/BLE_eventHandler.c ****             }
1704:.\Generated_Source\PSoC4/BLE_eventHandler.c ****         #endif /* CYBLE_ESS_SERVER */
1705:.\Generated_Source\PSoC4/BLE_eventHandler.c **** 		#ifdef CYBLE_UDS_SERVER
1706:.\Generated_Source\PSoC4/BLE_eventHandler.c ****             if((cyBle_eventHandlerFlag & CYBLE_CALLBACK) != 0u)
1707:.\Generated_Source\PSoC4/BLE_eventHandler.c ****             {
1708:.\Generated_Source\PSoC4/BLE_eventHandler.c ****                 CyBle_UdssPrepareWriteRequestEventHandler((CYBLE_GATTS_PREP_WRITE_REQ_PARAM_T *)eve
1709:.\Generated_Source\PSoC4/BLE_eventHandler.c ****             }
1710:.\Generated_Source\PSoC4/BLE_eventHandler.c ****         #endif /* CYBLE_UDS_SERVER */
1711:.\Generated_Source\PSoC4/BLE_eventHandler.c ****             break;
1712:.\Generated_Source\PSoC4/BLE_eventHandler.c **** 
1713:.\Generated_Source\PSoC4/BLE_eventHandler.c ****         case CYBLE_EVT_GATTS_EXEC_WRITE_REQ:
1714:.\Generated_Source\PSoC4/BLE_eventHandler.c ****         #ifdef CYBLE_BMS_SERVER
1715:.\Generated_Source\PSoC4/BLE_eventHandler.c ****             CyBle_BmssExecuteWriteRequestEventHandler((CYBLE_GATTS_EXEC_WRITE_REQ_T *)eventParam);
1716:.\Generated_Source\PSoC4/BLE_eventHandler.c ****         #endif /* CYBLE_BMS_SERVER */
1717:.\Generated_Source\PSoC4/BLE_eventHandler.c ****         #ifdef CYBLE_BTS_SERVER
1718:.\Generated_Source\PSoC4/BLE_eventHandler.c ****             CyBle_BtssExecuteWriteRequestEventHandler((CYBLE_GATTS_EXEC_WRITE_REQ_T *)eventParam);
1719:.\Generated_Source\PSoC4/BLE_eventHandler.c ****         #endif /* CYBLE_BTS_SERVER */
1720:.\Generated_Source\PSoC4/BLE_eventHandler.c ****         #ifdef CYBLE_ESS_SERVER
1721:.\Generated_Source\PSoC4/BLE_eventHandler.c ****             CyBle_EsssExecuteWriteRequestEventHandler((CYBLE_GATTS_EXEC_WRITE_REQ_T *)eventParam);
1722:.\Generated_Source\PSoC4/BLE_eventHandler.c ****         #endif /* CYBLE_ESS_SERVER */
1723:.\Generated_Source\PSoC4/BLE_eventHandler.c **** 		#ifdef CYBLE_UDS_SERVER
1724:.\Generated_Source\PSoC4/BLE_eventHandler.c ****             CyBle_UdssExecuteWriteRequestEventHandler((CYBLE_GATTS_EXEC_WRITE_REQ_T *)eventParam);
1725:.\Generated_Source\PSoC4/BLE_eventHandler.c ****         #endif /* CYBLE_UDS_SERVER */
1726:.\Generated_Source\PSoC4/BLE_eventHandler.c ****             break;
1727:.\Generated_Source\PSoC4/BLE_eventHandler.c ****         
1728:.\Generated_Source\PSoC4/BLE_eventHandler.c ****         case CYBLE_EVT_GATTS_HANDLE_VALUE_CNF:
1729:.\Generated_Source\PSoC4/BLE_eventHandler.c ****             CyBle_ValueConfirmation((CYBLE_CONN_HANDLE_T *)eventParam);
 1205              		.loc 1 1729 0
 1206 020e 3B68     		ldr	r3, [r7]
 1207 0210 181C     		mov	r0, r3
 1208 0212 FFF7FEFF 		bl	CyBle_ValueConfirmation
1730:.\Generated_Source\PSoC4/BLE_eventHandler.c ****             break;
 1209              		.loc 1 1730 0
 1210 0216 38E0     		b	.L77
 1211              	.L59:
1731:.\Generated_Source\PSoC4/BLE_eventHandler.c ****             
1732:.\Generated_Source\PSoC4/BLE_eventHandler.c ****         case CYBLE_EVT_GATTS_READ_CHAR_VAL_ACCESS_REQ:
1733:.\Generated_Source\PSoC4/BLE_eventHandler.c ****         #ifdef CYBLE_UDS_SERVER
1734:.\Generated_Source\PSoC4/BLE_eventHandler.c ****             CyBle_UdssReadRequestEventHandler((CYBLE_GATTS_CHAR_VAL_READ_REQ_T *)eventParam);
1735:.\Generated_Source\PSoC4/BLE_eventHandler.c ****         #endif /* CYBLE_UDS_SERVER */
1736:.\Generated_Source\PSoC4/BLE_eventHandler.c ****             break;
1737:.\Generated_Source\PSoC4/BLE_eventHandler.c ****             
ARM GAS  C:\Users\YBOURA~1\AppData\Local\Temp\cc3HigXd.s 			page 53


1738:.\Generated_Source\PSoC4/BLE_eventHandler.c ****     #endif /* CYBLE_GATT_ROLE_SERVER */
1739:.\Generated_Source\PSoC4/BLE_eventHandler.c **** 
1740:.\Generated_Source\PSoC4/BLE_eventHandler.c ****     #if (CYBLE_GATT_ROLE_CLIENT)
1741:.\Generated_Source\PSoC4/BLE_eventHandler.c ****         
1742:.\Generated_Source\PSoC4/BLE_eventHandler.c ****         case CYBLE_EVT_GATTC_READ_BY_GROUP_TYPE_RSP:
1743:.\Generated_Source\PSoC4/BLE_eventHandler.c ****             CyBle_ReadByGroupEventHandler((CYBLE_GATTC_READ_BY_GRP_RSP_PARAM_T *)eventParam);
 1212              		.loc 1 1743 0
 1213 0218 3B68     		ldr	r3, [r7]
 1214 021a 181C     		mov	r0, r3
 1215 021c FFF7FEFF 		bl	CyBle_ReadByGroupEventHandler
1744:.\Generated_Source\PSoC4/BLE_eventHandler.c ****             break;
 1216              		.loc 1 1744 0
 1217 0220 33E0     		b	.L77
 1218              	.L60:
1745:.\Generated_Source\PSoC4/BLE_eventHandler.c **** 
1746:.\Generated_Source\PSoC4/BLE_eventHandler.c ****         case CYBLE_EVT_GATTC_READ_BY_TYPE_RSP:
1747:.\Generated_Source\PSoC4/BLE_eventHandler.c ****             CyBle_ReadByTypeEventHandler((CYBLE_GATTC_READ_BY_TYPE_RSP_PARAM_T *)eventParam);
 1219              		.loc 1 1747 0
 1220 0222 3B68     		ldr	r3, [r7]
 1221 0224 181C     		mov	r0, r3
 1222 0226 FFF7FEFF 		bl	CyBle_ReadByTypeEventHandler
1748:.\Generated_Source\PSoC4/BLE_eventHandler.c ****             break;
 1223              		.loc 1 1748 0
 1224 022a 2EE0     		b	.L77
 1225              	.L61:
1749:.\Generated_Source\PSoC4/BLE_eventHandler.c **** 
1750:.\Generated_Source\PSoC4/BLE_eventHandler.c ****         case CYBLE_EVT_GATTC_READ_BLOB_RSP:
1751:.\Generated_Source\PSoC4/BLE_eventHandler.c ****         #ifdef CYBLE_ESS_CLIENT
1752:.\Generated_Source\PSoC4/BLE_eventHandler.c ****             CyBle_EsscReadLongRespEventHandler((CYBLE_GATTC_READ_RSP_PARAM_T *)eventParam);
1753:.\Generated_Source\PSoC4/BLE_eventHandler.c ****         #endif /* CYBLE_ESS_CLIENT */
1754:.\Generated_Source\PSoC4/BLE_eventHandler.c ****         #ifdef CYBLE_UDS_CLIENT
1755:.\Generated_Source\PSoC4/BLE_eventHandler.c ****             if((cyBle_eventHandlerFlag & CYBLE_CALLBACK) != 0u)
1756:.\Generated_Source\PSoC4/BLE_eventHandler.c ****             {
1757:.\Generated_Source\PSoC4/BLE_eventHandler.c ****                 CyBle_UdscReadLongRespEventHandler((CYBLE_GATTC_READ_RSP_PARAM_T *)eventParam);
1758:.\Generated_Source\PSoC4/BLE_eventHandler.c ****             }
1759:.\Generated_Source\PSoC4/BLE_eventHandler.c ****         #endif /* CYBLE_UDS_CLIENT */
1760:.\Generated_Source\PSoC4/BLE_eventHandler.c ****             break;
1761:.\Generated_Source\PSoC4/BLE_eventHandler.c ****         
1762:.\Generated_Source\PSoC4/BLE_eventHandler.c ****         case CYBLE_EVT_GATTC_FIND_INFO_RSP:
1763:.\Generated_Source\PSoC4/BLE_eventHandler.c ****             CyBle_FindInfoEventHandler((CYBLE_GATTC_FIND_INFO_RSP_PARAM_T *)eventParam);
 1226              		.loc 1 1763 0
 1227 022c 3B68     		ldr	r3, [r7]
 1228 022e 181C     		mov	r0, r3
 1229 0230 FFF7FEFF 		bl	CyBle_FindInfoEventHandler
1764:.\Generated_Source\PSoC4/BLE_eventHandler.c ****             break;
 1230              		.loc 1 1764 0
 1231 0234 29E0     		b	.L77
 1232              	.L55:
1765:.\Generated_Source\PSoC4/BLE_eventHandler.c **** 
1766:.\Generated_Source\PSoC4/BLE_eventHandler.c ****         case CYBLE_EVT_GATTC_ERROR_RSP:
1767:.\Generated_Source\PSoC4/BLE_eventHandler.c ****             CyBle_ErrorResponseEventHandler((CYBLE_GATTC_ERR_RSP_PARAM_T *)eventParam);
 1233              		.loc 1 1767 0
 1234 0236 3B68     		ldr	r3, [r7]
 1235 0238 181C     		mov	r0, r3
 1236 023a FFF7FEFF 		bl	CyBle_ErrorResponseEventHandler
1768:.\Generated_Source\PSoC4/BLE_eventHandler.c ****             break;
 1237              		.loc 1 1768 0
ARM GAS  C:\Users\YBOURA~1\AppData\Local\Temp\cc3HigXd.s 			page 54


 1238 023e 24E0     		b	.L77
 1239              	.L70:
1769:.\Generated_Source\PSoC4/BLE_eventHandler.c **** 
1770:.\Generated_Source\PSoC4/BLE_eventHandler.c ****         case CYBLE_EVT_GATTC_HANDLE_VALUE_NTF:
1771:.\Generated_Source\PSoC4/BLE_eventHandler.c ****             CyBle_NotificationEventHandler((CYBLE_GATTC_HANDLE_VALUE_NTF_PARAM_T *)eventParam);
 1240              		.loc 1 1771 0
 1241 0240 3B68     		ldr	r3, [r7]
 1242 0242 181C     		mov	r0, r3
 1243 0244 FFF7FEFF 		bl	CyBle_NotificationEventHandler
1772:.\Generated_Source\PSoC4/BLE_eventHandler.c ****             break;
 1244              		.loc 1 1772 0
 1245 0248 1FE0     		b	.L77
 1246              	.L71:
1773:.\Generated_Source\PSoC4/BLE_eventHandler.c **** 
1774:.\Generated_Source\PSoC4/BLE_eventHandler.c ****         case CYBLE_EVT_GATTC_HANDLE_VALUE_IND:
1775:.\Generated_Source\PSoC4/BLE_eventHandler.c ****             CyBle_GattcIndicationEventHandler((CYBLE_GATTC_HANDLE_VALUE_IND_PARAM_T *)eventParam);
 1247              		.loc 1 1775 0
 1248 024a 3B68     		ldr	r3, [r7]
 1249 024c 181C     		mov	r0, r3
 1250 024e FFF7FEFF 		bl	CyBle_GattcIndicationEventHandler
1776:.\Generated_Source\PSoC4/BLE_eventHandler.c ****             CyBle_IndicationEventHandler((CYBLE_GATTC_HANDLE_VALUE_IND_PARAM_T *)eventParam);
 1251              		.loc 1 1776 0
 1252 0252 3B68     		ldr	r3, [r7]
 1253 0254 181C     		mov	r0, r3
 1254 0256 FFF7FEFF 		bl	CyBle_IndicationEventHandler
1777:.\Generated_Source\PSoC4/BLE_eventHandler.c ****         
1778:.\Generated_Source\PSoC4/BLE_eventHandler.c ****             /* Respond with a Handle Value Confirmation when request handled */
1779:.\Generated_Source\PSoC4/BLE_eventHandler.c ****             if((cyBle_eventHandlerFlag & CYBLE_CALLBACK) == 0u)
 1255              		.loc 1 1779 0
 1256 025a 194B     		ldr	r3, .L87
 1257 025c 1B78     		ldrb	r3, [r3]
 1258 025e DBB2     		uxtb	r3, r3
 1259 0260 1A1C     		mov	r2, r3
 1260 0262 0123     		mov	r3, #1
 1261 0264 1340     		and	r3, r2
 1262 0266 04D1     		bne	.L84
1780:.\Generated_Source\PSoC4/BLE_eventHandler.c ****             {
1781:.\Generated_Source\PSoC4/BLE_eventHandler.c ****                 (void)CyBle_GattcConfirmation(((CYBLE_GATTC_HANDLE_VALUE_IND_PARAM_T *)eventParam)-
 1263              		.loc 1 1781 0
 1264 0268 3B68     		ldr	r3, [r7]
 1265 026a 1868     		ldr	r0, [r3]
 1266 026c FFF7FEFF 		bl	CyBle_GattcConfirmation
1782:.\Generated_Source\PSoC4/BLE_eventHandler.c ****             }
1783:.\Generated_Source\PSoC4/BLE_eventHandler.c ****             break;
 1267              		.loc 1 1783 0
 1268 0270 0BE0     		b	.L77
 1269              	.L84:
 1270 0272 0AE0     		b	.L77
 1271              	.L62:
1784:.\Generated_Source\PSoC4/BLE_eventHandler.c ****         
1785:.\Generated_Source\PSoC4/BLE_eventHandler.c ****         case CYBLE_EVT_GATTC_READ_RSP:
1786:.\Generated_Source\PSoC4/BLE_eventHandler.c ****             CyBle_ReadResponseEventHandler((CYBLE_GATTC_READ_RSP_PARAM_T *)eventParam);
 1272              		.loc 1 1786 0
 1273 0274 3B68     		ldr	r3, [r7]
 1274 0276 181C     		mov	r0, r3
 1275 0278 FFF7FEFF 		bl	CyBle_ReadResponseEventHandler
1787:.\Generated_Source\PSoC4/BLE_eventHandler.c ****             break;
ARM GAS  C:\Users\YBOURA~1\AppData\Local\Temp\cc3HigXd.s 			page 55


 1276              		.loc 1 1787 0
 1277 027c 05E0     		b	.L77
 1278              	.L65:
1788:.\Generated_Source\PSoC4/BLE_eventHandler.c **** 
1789:.\Generated_Source\PSoC4/BLE_eventHandler.c ****         case CYBLE_EVT_GATTC_WRITE_RSP:
1790:.\Generated_Source\PSoC4/BLE_eventHandler.c ****             CyBle_GattcWriteResponseEventHandler((CYBLE_CONN_HANDLE_T *)eventParam);
 1279              		.loc 1 1790 0
 1280 027e 3B68     		ldr	r3, [r7]
 1281 0280 181C     		mov	r0, r3
 1282 0282 FFF7FEFF 		bl	CyBle_GattcWriteResponseEventHandler
1791:.\Generated_Source\PSoC4/BLE_eventHandler.c ****             break;
 1283              		.loc 1 1791 0
 1284 0286 00E0     		b	.L77
 1285              	.L86:
1792:.\Generated_Source\PSoC4/BLE_eventHandler.c ****             
1793:.\Generated_Source\PSoC4/BLE_eventHandler.c ****         case CYBLE_EVT_GATTC_EXEC_WRITE_RSP:
1794:.\Generated_Source\PSoC4/BLE_eventHandler.c ****         #ifdef CYBLE_BMS_CLIENT
1795:.\Generated_Source\PSoC4/BLE_eventHandler.c ****             CyBle_BmscExecuteWriteResponseEventHandler((CYBLE_GATTC_EXEC_WRITE_RSP_T *)eventParam);
1796:.\Generated_Source\PSoC4/BLE_eventHandler.c ****         #endif /* CYBLE_BMS_CLIENT */
1797:.\Generated_Source\PSoC4/BLE_eventHandler.c ****         #ifdef CYBLE_ESS_CLIENT
1798:.\Generated_Source\PSoC4/BLE_eventHandler.c ****             if((cyBle_eventHandlerFlag & CYBLE_CALLBACK) != 0u)
1799:.\Generated_Source\PSoC4/BLE_eventHandler.c ****             {
1800:.\Generated_Source\PSoC4/BLE_eventHandler.c ****                 CyBle_EsscExecuteWriteResponseEventHandler((CYBLE_GATTC_EXEC_WRITE_RSP_T *)eventPar
1801:.\Generated_Source\PSoC4/BLE_eventHandler.c ****             }
1802:.\Generated_Source\PSoC4/BLE_eventHandler.c ****         #endif /* CYBLE_ESS_CLIENT */
1803:.\Generated_Source\PSoC4/BLE_eventHandler.c ****         #ifdef CYBLE_UDS_CLIENT
1804:.\Generated_Source\PSoC4/BLE_eventHandler.c ****             if((cyBle_eventHandlerFlag & CYBLE_CALLBACK) != 0u)
1805:.\Generated_Source\PSoC4/BLE_eventHandler.c ****             {
1806:.\Generated_Source\PSoC4/BLE_eventHandler.c ****                 CyBle_UdscExecuteWriteResponseEventHandler((CYBLE_GATTC_EXEC_WRITE_RSP_T *)eventPar
1807:.\Generated_Source\PSoC4/BLE_eventHandler.c ****             }
1808:.\Generated_Source\PSoC4/BLE_eventHandler.c ****         #endif /* CYBLE_UDS_CLIENT */
1809:.\Generated_Source\PSoC4/BLE_eventHandler.c ****             break;
1810:.\Generated_Source\PSoC4/BLE_eventHandler.c ****             
1811:.\Generated_Source\PSoC4/BLE_eventHandler.c ****     #endif /* CYBLE_GATT_ROLE_CLIENT */
1812:.\Generated_Source\PSoC4/BLE_eventHandler.c **** 
1813:.\Generated_Source\PSoC4/BLE_eventHandler.c ****     #if((CYBLE_GAP_ROLE_PERIPHERAL || CYBLE_GAP_ROLE_CENTRAL) && (CYBLE_BONDING_REQUIREMENT == CYBL
1814:.\Generated_Source\PSoC4/BLE_eventHandler.c **** 
1815:.\Generated_Source\PSoC4/BLE_eventHandler.c ****         case CYBLE_EVT_PENDING_FLASH_WRITE:
1816:.\Generated_Source\PSoC4/BLE_eventHandler.c ****             cyBle_pendingFlashWrite |= CYBLE_PENDING_STACK_FLASH_WRITE_BIT;
1817:.\Generated_Source\PSoC4/BLE_eventHandler.c ****             break;
1818:.\Generated_Source\PSoC4/BLE_eventHandler.c ****         
1819:.\Generated_Source\PSoC4/BLE_eventHandler.c ****     #endif  /* (CYBLE_BONDING_REQUIREMENT == CYBLE_BONDING_YES) */
1820:.\Generated_Source\PSoC4/BLE_eventHandler.c ****     
1821:.\Generated_Source\PSoC4/BLE_eventHandler.c ****         default:
1822:.\Generated_Source\PSoC4/BLE_eventHandler.c ****             break;
 1286              		.loc 1 1822 0
 1287 0288 C046     		mov	r8, r8
 1288              	.L77:
1823:.\Generated_Source\PSoC4/BLE_eventHandler.c ****     }
1824:.\Generated_Source\PSoC4/BLE_eventHandler.c **** 
1825:.\Generated_Source\PSoC4/BLE_eventHandler.c ****     if(0u != (cyBle_eventHandlerFlag & (CYBLE_CALLBACK | CYBLE_ENABLE_ALL_EVENTS))) 
 1289              		.loc 1 1825 0
 1290 028a 0D4B     		ldr	r3, .L87
 1291 028c 1B78     		ldrb	r3, [r3]
 1292 028e DBB2     		uxtb	r3, r3
 1293 0290 1A1C     		mov	r2, r3
 1294 0292 1123     		mov	r3, #17
ARM GAS  C:\Users\YBOURA~1\AppData\Local\Temp\cc3HigXd.s 			page 56


 1295 0294 1340     		and	r3, r2
 1296 0296 0FD0     		beq	.L42
1826:.\Generated_Source\PSoC4/BLE_eventHandler.c ****     {
1827:.\Generated_Source\PSoC4/BLE_eventHandler.c ****         cyBle_eventHandlerFlag &= (uint8)~CYBLE_CALLBACK;
 1297              		.loc 1 1827 0
 1298 0298 094B     		ldr	r3, .L87
 1299 029a 1B78     		ldrb	r3, [r3]
 1300 029c DBB2     		uxtb	r3, r3
 1301 029e 0122     		mov	r2, #1
 1302 02a0 9343     		bic	r3, r2
 1303 02a2 DAB2     		uxtb	r2, r3
 1304 02a4 064B     		ldr	r3, .L87
 1305 02a6 1A70     		strb	r2, [r3]
1828:.\Generated_Source\PSoC4/BLE_eventHandler.c ****         CyBle_ApplCallback((uint32)eventCode, eventParam);
 1306              		.loc 1 1828 0
 1307 02a8 134B     		ldr	r3, .L87+56
 1308 02aa 1B68     		ldr	r3, [r3]
 1309 02ac FA1D     		add	r2, r7, #7
 1310 02ae 1178     		ldrb	r1, [r2]
 1311 02b0 3A68     		ldr	r2, [r7]
 1312 02b2 081C     		mov	r0, r1
 1313 02b4 111C     		mov	r1, r2
 1314 02b6 9847     		blx	r3
 1315              	.L42:
1829:.\Generated_Source\PSoC4/BLE_eventHandler.c ****     }
1830:.\Generated_Source\PSoC4/BLE_eventHandler.c **** }
 1316              		.loc 1 1830 0
 1317 02b8 BD46     		mov	sp, r7
 1318 02ba 04B0     		add	sp, sp, #16
 1319              		@ sp needed
 1320 02bc 80BD     		pop	{r7, pc}
 1321              	.L88:
 1322 02be C046     		.align	2
 1323              	.L87:
 1324 02c0 00000000 		.word	cyBle_eventHandlerFlag
 1325 02c4 00000000 		.word	.L45
 1326 02c8 00000000 		.word	cyBle_sflashDeviceAddress
 1327 02cc 7CF1FF0F 		.word	268431740
 1328 02d0 00000000 		.word	cyBle_deviceAddress
 1329 02d4 7DF1FF0F 		.word	268431741
 1330 02d8 7BF1FF0F 		.word	268431739
 1331 02dc 00000000 		.word	cyBle_state
 1332 02e0 00000000 		.word	cyBle_busyStatus
 1333 02e4 00000000 		.word	cyBle_authInfo
 1334 02e8 00000000 		.word	cyBle_connHandle
 1335 02ec 00000000 		.word	cyBle_flashStorage
 1336 02f0 00000000 		.word	cyBle_attValuesCCCD
 1337 02f4 00000000 		.word	cyBle_clientState
 1338 02f8 00000000 		.word	CyBle_ApplCallback
 1339              		.cfi_endproc
 1340              	.LFE14:
 1341              		.size	CyBle_EventHandler, .-CyBle_EventHandler
 1342              		.section	.text.CyBle_ReadByGroupEventHandler,"ax",%progbits
 1343              		.align	2
 1344              		.global	CyBle_ReadByGroupEventHandler
 1345              		.code	16
 1346              		.thumb_func
ARM GAS  C:\Users\YBOURA~1\AppData\Local\Temp\cc3HigXd.s 			page 57


 1347              		.type	CyBle_ReadByGroupEventHandler, %function
 1348              	CyBle_ReadByGroupEventHandler:
 1349              	.LFB15:
1831:.\Generated_Source\PSoC4/BLE_eventHandler.c **** 
1832:.\Generated_Source\PSoC4/BLE_eventHandler.c **** 
1833:.\Generated_Source\PSoC4/BLE_eventHandler.c **** #if (CYBLE_GATT_ROLE_CLIENT)
1834:.\Generated_Source\PSoC4/BLE_eventHandler.c **** 
1835:.\Generated_Source\PSoC4/BLE_eventHandler.c **** 
1836:.\Generated_Source\PSoC4/BLE_eventHandler.c **** /****************************************************************************** 
1837:.\Generated_Source\PSoC4/BLE_eventHandler.c **** * Function Name: CyBle_ReadByGroupEventHandler
1838:.\Generated_Source\PSoC4/BLE_eventHandler.c **** ***************************************************************************//**
1839:.\Generated_Source\PSoC4/BLE_eventHandler.c **** * 
1840:.\Generated_Source\PSoC4/BLE_eventHandler.c **** *  Handles the Read By Group Response Event during an automatic server discovery
1841:.\Generated_Source\PSoC4/BLE_eventHandler.c **** *  process.
1842:.\Generated_Source\PSoC4/BLE_eventHandler.c **** * 
1843:.\Generated_Source\PSoC4/BLE_eventHandler.c **** *  \param eventParam:  the event parameters for a Read By Group Response
1844:.\Generated_Source\PSoC4/BLE_eventHandler.c **** * 
1845:.\Generated_Source\PSoC4/BLE_eventHandler.c **** * \return
1846:.\Generated_Source\PSoC4/BLE_eventHandler.c **** *  None
1847:.\Generated_Source\PSoC4/BLE_eventHandler.c **** * 
1848:.\Generated_Source\PSoC4/BLE_eventHandler.c **** ******************************************************************************/
1849:.\Generated_Source\PSoC4/BLE_eventHandler.c **** void CyBle_ReadByGroupEventHandler(CYBLE_GATTC_READ_BY_GRP_RSP_PARAM_T *eventParam)
1850:.\Generated_Source\PSoC4/BLE_eventHandler.c **** {
 1350              		.loc 1 1850 0
 1351              		.cfi_startproc
 1352 0000 80B5     		push	{r7, lr}
 1353              		.cfi_def_cfa_offset 8
 1354              		.cfi_offset 7, -8
 1355              		.cfi_offset 14, -4
 1356 0002 86B0     		sub	sp, sp, #24
 1357              		.cfi_def_cfa_offset 32
 1358 0004 00AF     		add	r7, sp, #0
 1359              		.cfi_def_cfa_register 7
 1360 0006 7860     		str	r0, [r7, #4]
1851:.\Generated_Source\PSoC4/BLE_eventHandler.c ****     uint16 j;
1852:.\Generated_Source\PSoC4/BLE_eventHandler.c ****     uint16 dataLength;
1853:.\Generated_Source\PSoC4/BLE_eventHandler.c ****     uint16 attrLength;
1854:.\Generated_Source\PSoC4/BLE_eventHandler.c ****     uint16 i;
1855:.\Generated_Source\PSoC4/BLE_eventHandler.c ****     CYBLE_DISC_SRVC128_INFO_T* discServInfo = NULL;
 1361              		.loc 1 1855 0
 1362 0008 0023     		mov	r3, #0
 1363 000a 3B61     		str	r3, [r7, #16]
1856:.\Generated_Source\PSoC4/BLE_eventHandler.c ****     uint8 flag;
1857:.\Generated_Source\PSoC4/BLE_eventHandler.c ****     if((CYBLE_CLIENT_STATE_SRVC_DISCOVERING == CyBle_GetClientState()) &&
 1364              		.loc 1 1857 0
 1365 000c 694B     		ldr	r3, .L103
 1366 000e 1B78     		ldrb	r3, [r3]
 1367 0010 012B     		cmp	r3, #1
 1368 0012 00D0     		beq	.LCB1120
 1369 0014 CAE0     		b	.L89	@long jump
 1370              	.LCB1120:
1858:.\Generated_Source\PSoC4/BLE_eventHandler.c ****         ((cyBle_eventHandlerFlag & CYBLE_AUTO_DISCOVERY) != 0u))
 1371              		.loc 1 1858 0 discriminator 1
 1372 0016 684B     		ldr	r3, .L103+4
 1373 0018 1B78     		ldrb	r3, [r3]
 1374 001a DBB2     		uxtb	r3, r3
 1375 001c 1A1C     		mov	r2, r3
ARM GAS  C:\Users\YBOURA~1\AppData\Local\Temp\cc3HigXd.s 			page 58


 1376 001e 0223     		mov	r3, #2
 1377 0020 1340     		and	r3, r2
1857:.\Generated_Source\PSoC4/BLE_eventHandler.c ****         ((cyBle_eventHandlerFlag & CYBLE_AUTO_DISCOVERY) != 0u))
 1378              		.loc 1 1857 0 discriminator 1
 1379 0022 00D1     		bne	.LCB1128
 1380 0024 C2E0     		b	.L89	@long jump
 1381              	.LCB1128:
1859:.\Generated_Source\PSoC4/BLE_eventHandler.c ****     {
1860:.\Generated_Source\PSoC4/BLE_eventHandler.c ****         dataLength = eventParam->attrData.length;
 1382              		.loc 1 1860 0
 1383 0026 0C23     		mov	r3, #12
 1384 0028 FB18     		add	r3, r7, r3
 1385 002a 7A68     		ldr	r2, [r7, #4]
 1386 002c 1289     		ldrh	r2, [r2, #8]
 1387 002e 1A80     		strh	r2, [r3]
1861:.\Generated_Source\PSoC4/BLE_eventHandler.c **** 
1862:.\Generated_Source\PSoC4/BLE_eventHandler.c ****         if((dataLength == CYBLE_DISC_SRVC_INFO_LEN) || (dataLength == CYBLE_DISC_SRVC_INFO_128_LEN)
 1388              		.loc 1 1862 0
 1389 0030 0C23     		mov	r3, #12
 1390 0032 FB18     		add	r3, r7, r3
 1391 0034 1B88     		ldrh	r3, [r3]
 1392 0036 062B     		cmp	r3, #6
 1393 0038 05D0     		beq	.L91
 1394              		.loc 1 1862 0 is_stmt 0 discriminator 1
 1395 003a 0C23     		mov	r3, #12
 1396 003c FB18     		add	r3, r7, r3
 1397 003e 1B88     		ldrh	r3, [r3]
 1398 0040 142B     		cmp	r3, #20
 1399 0042 00D0     		beq	.LCB1143
 1400 0044 ABE0     		b	.L92	@long jump
 1401              	.LCB1143:
 1402              	.L91:
1863:.\Generated_Source\PSoC4/BLE_eventHandler.c ****         {
1864:.\Generated_Source\PSoC4/BLE_eventHandler.c ****             attrLength = eventParam->attrData.attrLen;
 1403              		.loc 1 1864 0 is_stmt 1
 1404 0046 0A23     		mov	r3, #10
 1405 0048 FB18     		add	r3, r7, r3
 1406 004a 7A68     		ldr	r2, [r7, #4]
 1407 004c 5289     		ldrh	r2, [r2, #10]
 1408 004e 1A80     		strh	r2, [r3]
1865:.\Generated_Source\PSoC4/BLE_eventHandler.c **** 
1866:.\Generated_Source\PSoC4/BLE_eventHandler.c ****             for(i = 0u; i < attrLength; i += dataLength)
 1409              		.loc 1 1866 0
 1410 0050 1423     		mov	r3, #20
 1411 0052 FB18     		add	r3, r7, r3
 1412 0054 0022     		mov	r2, #0
 1413 0056 1A80     		strh	r2, [r3]
 1414 0058 81E0     		b	.L93
 1415              	.L101:
1867:.\Generated_Source\PSoC4/BLE_eventHandler.c ****             {
1868:.\Generated_Source\PSoC4/BLE_eventHandler.c ****                 discServInfo = (CYBLE_DISC_SRVC128_INFO_T *)(eventParam->attrData.attrValue + i);
 1416              		.loc 1 1868 0
 1417 005a 7B68     		ldr	r3, [r7, #4]
 1418 005c 5A68     		ldr	r2, [r3, #4]
 1419 005e 1423     		mov	r3, #20
 1420 0060 FB18     		add	r3, r7, r3
 1421 0062 1B88     		ldrh	r3, [r3]
ARM GAS  C:\Users\YBOURA~1\AppData\Local\Temp\cc3HigXd.s 			page 59


 1422 0064 D318     		add	r3, r2, r3
 1423 0066 3B61     		str	r3, [r7, #16]
1869:.\Generated_Source\PSoC4/BLE_eventHandler.c ****                 flag = 0u;
 1424              		.loc 1 1869 0
 1425 0068 0F23     		mov	r3, #15
 1426 006a FB18     		add	r3, r7, r3
 1427 006c 0022     		mov	r2, #0
 1428 006e 1A70     		strb	r2, [r3]
1870:.\Generated_Source\PSoC4/BLE_eventHandler.c **** 
1871:.\Generated_Source\PSoC4/BLE_eventHandler.c ****                 if(dataLength == CYBLE_DISC_SRVC_INFO_LEN)
 1429              		.loc 1 1871 0
 1430 0070 0C23     		mov	r3, #12
 1431 0072 FB18     		add	r3, r7, r3
 1432 0074 1B88     		ldrh	r3, [r3]
 1433 0076 062B     		cmp	r3, #6
 1434 0078 63D1     		bne	.L94
1872:.\Generated_Source\PSoC4/BLE_eventHandler.c ****                 {
1873:.\Generated_Source\PSoC4/BLE_eventHandler.c **** 					for(j = 0u; (j < (uint16)CYBLE_SRVI_COUNT) && (flag == 0u); j++)
 1435              		.loc 1 1873 0
 1436 007a 1623     		mov	r3, #22
 1437 007c FB18     		add	r3, r7, r3
 1438 007e 0022     		mov	r2, #0
 1439 0080 1A80     		strh	r2, [r3]
 1440 0082 53E0     		b	.L95
 1441              	.L100:
1874:.\Generated_Source\PSoC4/BLE_eventHandler.c ****                     {
1875:.\Generated_Source\PSoC4/BLE_eventHandler.c ****                         if(cyBle_serverInfo[j].uuid == discServInfo->uuid.uuid16)
 1442              		.loc 1 1875 0
 1443 0084 1623     		mov	r3, #22
 1444 0086 FB18     		add	r3, r7, r3
 1445 0088 1A88     		ldrh	r2, [r3]
 1446 008a 4C49     		ldr	r1, .L103+8
 1447 008c 131C     		mov	r3, r2
 1448 008e 5B00     		lsl	r3, r3, #1
 1449 0090 9B18     		add	r3, r3, r2
 1450 0092 5B00     		lsl	r3, r3, #1
 1451 0094 CB18     		add	r3, r1, r3
 1452 0096 9A88     		ldrh	r2, [r3, #4]
 1453 0098 3B69     		ldr	r3, [r7, #16]
 1454 009a 9B88     		ldrh	r3, [r3, #4]
 1455 009c 9A42     		cmp	r2, r3
 1456 009e 3ED1     		bne	.L96
1876:.\Generated_Source\PSoC4/BLE_eventHandler.c ****                         {
1877:.\Generated_Source\PSoC4/BLE_eventHandler.c ****                             if(cyBle_serverInfo[j].range.startHandle == CYBLE_GATT_INVALID_ATTR_HAN
 1457              		.loc 1 1877 0
 1458 00a0 1623     		mov	r3, #22
 1459 00a2 FB18     		add	r3, r7, r3
 1460 00a4 1A88     		ldrh	r2, [r3]
 1461 00a6 4549     		ldr	r1, .L103+8
 1462 00a8 131C     		mov	r3, r2
 1463 00aa 5B00     		lsl	r3, r3, #1
 1464 00ac 9B18     		add	r3, r3, r2
 1465 00ae 5B00     		lsl	r3, r3, #1
 1466 00b0 5B5A     		ldrh	r3, [r3, r1]
 1467 00b2 002B     		cmp	r3, #0
 1468 00b4 13D1     		bne	.L97
1878:.\Generated_Source\PSoC4/BLE_eventHandler.c ****                             {
ARM GAS  C:\Users\YBOURA~1\AppData\Local\Temp\cc3HigXd.s 			page 60


1879:.\Generated_Source\PSoC4/BLE_eventHandler.c ****                                 cyBle_serverInfo[j].range = discServInfo->range;
 1469              		.loc 1 1879 0
 1470 00b6 1623     		mov	r3, #22
 1471 00b8 FB18     		add	r3, r7, r3
 1472 00ba 1A88     		ldrh	r2, [r3]
 1473 00bc 3F49     		ldr	r1, .L103+8
 1474 00be 131C     		mov	r3, r2
 1475 00c0 5B00     		lsl	r3, r3, #1
 1476 00c2 9B18     		add	r3, r3, r2
 1477 00c4 5B00     		lsl	r3, r3, #1
 1478 00c6 3A69     		ldr	r2, [r7, #16]
 1479 00c8 CB18     		add	r3, r1, r3
 1480 00ca 111C     		mov	r1, r2
 1481 00cc 0422     		mov	r2, #4
 1482 00ce 181C     		mov	r0, r3
 1483 00d0 FFF7FEFF 		bl	memcpy
1880:.\Generated_Source\PSoC4/BLE_eventHandler.c ****                                 flag = 1u;
 1484              		.loc 1 1880 0
 1485 00d4 0F23     		mov	r3, #15
 1486 00d6 FB18     		add	r3, r7, r3
 1487 00d8 0122     		mov	r2, #1
 1488 00da 1A70     		strb	r2, [r3]
 1489 00dc 1FE0     		b	.L96
 1490              	.L97:
1881:.\Generated_Source\PSoC4/BLE_eventHandler.c ****                             }
1882:.\Generated_Source\PSoC4/BLE_eventHandler.c ****                             else    /* Duplication of service */
1883:.\Generated_Source\PSoC4/BLE_eventHandler.c ****                             {
1884:.\Generated_Source\PSoC4/BLE_eventHandler.c ****                                 /* For multiple service support next service has the same uuid */
1885:.\Generated_Source\PSoC4/BLE_eventHandler.c ****                                 if((j >= (CYBLE_SRVI_COUNT - 1u)) || 
 1491              		.loc 1 1885 0
 1492 00de 1623     		mov	r3, #22
 1493 00e0 FB18     		add	r3, r7, r3
 1494 00e2 1B88     		ldrh	r3, [r3]
 1495 00e4 012B     		cmp	r3, #1
 1496 00e6 0ED8     		bhi	.L98
1886:.\Generated_Source\PSoC4/BLE_eventHandler.c ****                                    (cyBle_serverInfo[j + 1u].uuid != discServInfo->uuid.uuid16))
 1497              		.loc 1 1886 0 discriminator 1
 1498 00e8 1623     		mov	r3, #22
 1499 00ea FB18     		add	r3, r7, r3
 1500 00ec 1B88     		ldrh	r3, [r3]
 1501 00ee 5A1C     		add	r2, r3, #1
 1502 00f0 3249     		ldr	r1, .L103+8
 1503 00f2 131C     		mov	r3, r2
 1504 00f4 5B00     		lsl	r3, r3, #1
 1505 00f6 9B18     		add	r3, r3, r2
 1506 00f8 5B00     		lsl	r3, r3, #1
 1507 00fa CB18     		add	r3, r1, r3
 1508 00fc 9A88     		ldrh	r2, [r3, #4]
 1509 00fe 3B69     		ldr	r3, [r7, #16]
 1510 0100 9B88     		ldrh	r3, [r3, #4]
1885:.\Generated_Source\PSoC4/BLE_eventHandler.c ****                                    (cyBle_serverInfo[j + 1u].uuid != discServInfo->uuid.uuid16))
 1511              		.loc 1 1885 0 discriminator 1
 1512 0102 9A42     		cmp	r2, r3
 1513 0104 0BD0     		beq	.L96
 1514              	.L98:
1887:.\Generated_Source\PSoC4/BLE_eventHandler.c ****                                 {
1888:.\Generated_Source\PSoC4/BLE_eventHandler.c ****                                     CyBle_ApplCallback(CYBLE_EVT_GATTC_SRVC_DUPLICATION, &discServI
ARM GAS  C:\Users\YBOURA~1\AppData\Local\Temp\cc3HigXd.s 			page 61


 1515              		.loc 1 1888 0
 1516 0106 2E4B     		ldr	r3, .L103+12
 1517 0108 1B68     		ldr	r3, [r3]
 1518 010a 3A69     		ldr	r2, [r7, #16]
 1519 010c 111D     		add	r1, r2, #4
 1520 010e 0C22     		mov	r2, #12
 1521 0110 FF32     		add	r2, r2, #255
 1522 0112 101C     		mov	r0, r2
 1523 0114 9847     		blx	r3
1889:.\Generated_Source\PSoC4/BLE_eventHandler.c ****                                     flag = 1u;
 1524              		.loc 1 1889 0
 1525 0116 0F23     		mov	r3, #15
 1526 0118 FB18     		add	r3, r7, r3
 1527 011a 0122     		mov	r2, #1
 1528 011c 1A70     		strb	r2, [r3]
 1529              	.L96:
1873:.\Generated_Source\PSoC4/BLE_eventHandler.c ****                     {
 1530              		.loc 1 1873 0 discriminator 2
 1531 011e 1623     		mov	r3, #22
 1532 0120 FB18     		add	r3, r7, r3
 1533 0122 1A88     		ldrh	r2, [r3]
 1534 0124 1623     		mov	r3, #22
 1535 0126 FB18     		add	r3, r7, r3
 1536 0128 0132     		add	r2, r2, #1
 1537 012a 1A80     		strh	r2, [r3]
 1538              	.L95:
1873:.\Generated_Source\PSoC4/BLE_eventHandler.c ****                     {
 1539              		.loc 1 1873 0 is_stmt 0 discriminator 1
 1540 012c 1623     		mov	r3, #22
 1541 012e FB18     		add	r3, r7, r3
 1542 0130 1B88     		ldrh	r3, [r3]
 1543 0132 022B     		cmp	r3, #2
 1544 0134 09D8     		bhi	.L99
1873:.\Generated_Source\PSoC4/BLE_eventHandler.c ****                     {
 1545              		.loc 1 1873 0 discriminator 3
 1546 0136 0F23     		mov	r3, #15
 1547 0138 FB18     		add	r3, r7, r3
 1548 013a 1B78     		ldrb	r3, [r3]
 1549 013c 002B     		cmp	r3, #0
 1550 013e A1D0     		beq	.L100
 1551 0140 03E0     		b	.L99
 1552              	.L94:
1890:.\Generated_Source\PSoC4/BLE_eventHandler.c ****                                 }
1891:.\Generated_Source\PSoC4/BLE_eventHandler.c ****                             }
1892:.\Generated_Source\PSoC4/BLE_eventHandler.c ****                         }
1893:.\Generated_Source\PSoC4/BLE_eventHandler.c ****                     }
1894:.\Generated_Source\PSoC4/BLE_eventHandler.c ****                 }
1895:.\Generated_Source\PSoC4/BLE_eventHandler.c ****                 else  /* Received 128 bit service UUID */
1896:.\Generated_Source\PSoC4/BLE_eventHandler.c ****                 {
1897:.\Generated_Source\PSoC4/BLE_eventHandler.c ****                 #ifdef CYBLE_ANCS_CLIENT
1898:.\Generated_Source\PSoC4/BLE_eventHandler.c ****                     CyBle_AncscDiscoverServiceEventHandler(discServInfo);
1899:.\Generated_Source\PSoC4/BLE_eventHandler.c ****                 #endif /* CYBLE_CUSTOM_CLIENT */
1900:.\Generated_Source\PSoC4/BLE_eventHandler.c ****                 #ifdef CYBLE_CUSTOM_CLIENT
1901:.\Generated_Source\PSoC4/BLE_eventHandler.c ****                     CyBle_CustomcDiscoverServiceEventHandler(discServInfo);
 1553              		.loc 1 1901 0 is_stmt 1
 1554 0142 3B69     		ldr	r3, [r7, #16]
 1555 0144 181C     		mov	r0, r3
ARM GAS  C:\Users\YBOURA~1\AppData\Local\Temp\cc3HigXd.s 			page 62


 1556 0146 FFF7FEFF 		bl	CyBle_CustomcDiscoverServiceEventHandler
 1557              	.L99:
1866:.\Generated_Source\PSoC4/BLE_eventHandler.c ****             {
 1558              		.loc 1 1866 0 discriminator 2
 1559 014a 1423     		mov	r3, #20
 1560 014c FB18     		add	r3, r7, r3
 1561 014e 1422     		mov	r2, #20
 1562 0150 B918     		add	r1, r7, r2
 1563 0152 0C22     		mov	r2, #12
 1564 0154 BA18     		add	r2, r7, r2
 1565 0156 0988     		ldrh	r1, [r1]
 1566 0158 1288     		ldrh	r2, [r2]
 1567 015a 8A18     		add	r2, r1, r2
 1568 015c 1A80     		strh	r2, [r3]
 1569              	.L93:
1866:.\Generated_Source\PSoC4/BLE_eventHandler.c ****             {
 1570              		.loc 1 1866 0 is_stmt 0 discriminator 1
 1571 015e 1423     		mov	r3, #20
 1572 0160 FA18     		add	r2, r7, r3
 1573 0162 0A23     		mov	r3, #10
 1574 0164 FB18     		add	r3, r7, r3
 1575 0166 1288     		ldrh	r2, [r2]
 1576 0168 1B88     		ldrh	r3, [r3]
 1577 016a 9A42     		cmp	r2, r3
 1578 016c 00D2     		bcs	.LCB1311
 1579 016e 74E7     		b	.L101	@long jump
 1580              	.LCB1311:
1902:.\Generated_Source\PSoC4/BLE_eventHandler.c ****                 #endif /* CYBLE_CUSTOM_CLIENT */
1903:.\Generated_Source\PSoC4/BLE_eventHandler.c ****                 }
1904:.\Generated_Source\PSoC4/BLE_eventHandler.c ****             }
1905:.\Generated_Source\PSoC4/BLE_eventHandler.c **** 
1906:.\Generated_Source\PSoC4/BLE_eventHandler.c ****             if((discServInfo != NULL) && (discServInfo->range.endHandle == CYBLE_GATT_ATTR_HANDLE_E
 1581              		.loc 1 1906 0 is_stmt 1
 1582 0170 3B69     		ldr	r3, [r7, #16]
 1583 0172 002B     		cmp	r3, #0
 1584 0174 0AD0     		beq	.L102
 1585              		.loc 1 1906 0 is_stmt 0 discriminator 1
 1586 0176 3B69     		ldr	r3, [r7, #16]
 1587 0178 5B88     		ldrh	r3, [r3, #2]
 1588 017a 124A     		ldr	r2, .L103+16
 1589 017c 9342     		cmp	r3, r2
 1590 017e 05D1     		bne	.L102
1907:.\Generated_Source\PSoC4/BLE_eventHandler.c ****             {
1908:.\Generated_Source\PSoC4/BLE_eventHandler.c ****             #if(CYBLE_STACK_MODE_DEBUG)
1909:.\Generated_Source\PSoC4/BLE_eventHandler.c ****                 CyBle_ApplCallback(CYBLE_EVT_GATTC_SRVC_DISCOVERY_COMPLETE, NULL);
1910:.\Generated_Source\PSoC4/BLE_eventHandler.c ****             #endif /* CYBLE_STACK_MODE_DEBUG */   
1911:.\Generated_Source\PSoC4/BLE_eventHandler.c ****                 CyBle_SetClientState(CYBLE_CLIENT_STATE_INCL_DISCOVERING);
 1591              		.loc 1 1911 0 is_stmt 1
 1592 0180 0C4B     		ldr	r3, .L103
 1593 0182 0222     		mov	r2, #2
 1594 0184 1A70     		strb	r2, [r3]
1912:.\Generated_Source\PSoC4/BLE_eventHandler.c ****                 CyBle_NextInclDiscovery(CYBLE_DISCOVERY_INIT);
 1595              		.loc 1 1912 0
 1596 0186 0020     		mov	r0, #0
 1597 0188 FFF7FEFF 		bl	CyBle_NextInclDiscovery
 1598              	.L102:
1913:.\Generated_Source\PSoC4/BLE_eventHandler.c ****             }
ARM GAS  C:\Users\YBOURA~1\AppData\Local\Temp\cc3HigXd.s 			page 63


1914:.\Generated_Source\PSoC4/BLE_eventHandler.c ****             cyBle_eventHandlerFlag &= (uint8)~CYBLE_CALLBACK;
 1599              		.loc 1 1914 0
 1600 018c 0A4B     		ldr	r3, .L103+4
 1601 018e 1B78     		ldrb	r3, [r3]
 1602 0190 DBB2     		uxtb	r3, r3
 1603 0192 0122     		mov	r2, #1
 1604 0194 9343     		bic	r3, r2
 1605 0196 DAB2     		uxtb	r2, r3
 1606 0198 074B     		ldr	r3, .L103+4
 1607 019a 1A70     		strb	r2, [r3]
 1608 019c 06E0     		b	.L89
 1609              	.L92:
1915:.\Generated_Source\PSoC4/BLE_eventHandler.c ****         }
1916:.\Generated_Source\PSoC4/BLE_eventHandler.c ****         else
1917:.\Generated_Source\PSoC4/BLE_eventHandler.c ****         {
1918:.\Generated_Source\PSoC4/BLE_eventHandler.c ****             CyBle_ApplCallback(CYBLE_EVT_GATTC_SRVC_DISCOVERY_FAILED, NULL);
 1610              		.loc 1 1918 0
 1611 019e 084B     		ldr	r3, .L103+12
 1612 01a0 1B68     		ldr	r3, [r3]
 1613 01a2 0822     		mov	r2, #8
 1614 01a4 FF32     		add	r2, r2, #255
 1615 01a6 101C     		mov	r0, r2
 1616 01a8 0021     		mov	r1, #0
 1617 01aa 9847     		blx	r3
 1618              	.L89:
1919:.\Generated_Source\PSoC4/BLE_eventHandler.c ****         }
1920:.\Generated_Source\PSoC4/BLE_eventHandler.c ****     }
1921:.\Generated_Source\PSoC4/BLE_eventHandler.c **** }
 1619              		.loc 1 1921 0
 1620 01ac BD46     		mov	sp, r7
 1621 01ae 06B0     		add	sp, sp, #24
 1622              		@ sp needed
 1623 01b0 80BD     		pop	{r7, pc}
 1624              	.L104:
 1625 01b2 C046     		.align	2
 1626              	.L103:
 1627 01b4 00000000 		.word	cyBle_clientState
 1628 01b8 00000000 		.word	cyBle_eventHandlerFlag
 1629 01bc 00000000 		.word	cyBle_serverInfo
 1630 01c0 00000000 		.word	CyBle_ApplCallback
 1631 01c4 FFFF0000 		.word	65535
 1632              		.cfi_endproc
 1633              	.LFE15:
 1634              		.size	CyBle_ReadByGroupEventHandler, .-CyBle_ReadByGroupEventHandler
 1635              		.section	.text.CyBle_NextInclDiscovery,"ax",%progbits
 1636              		.align	2
 1637              		.global	CyBle_NextInclDiscovery
 1638              		.code	16
 1639              		.thumb_func
 1640              		.type	CyBle_NextInclDiscovery, %function
 1641              	CyBle_NextInclDiscovery:
 1642              	.LFB16:
1922:.\Generated_Source\PSoC4/BLE_eventHandler.c **** 
1923:.\Generated_Source\PSoC4/BLE_eventHandler.c **** 
1924:.\Generated_Source\PSoC4/BLE_eventHandler.c **** /****************************************************************************** 
1925:.\Generated_Source\PSoC4/BLE_eventHandler.c **** * Function Name: CyBle_NextInclDiscovery
1926:.\Generated_Source\PSoC4/BLE_eventHandler.c **** ***************************************************************************//**
ARM GAS  C:\Users\YBOURA~1\AppData\Local\Temp\cc3HigXd.s 			page 64


1927:.\Generated_Source\PSoC4/BLE_eventHandler.c **** * 
1928:.\Generated_Source\PSoC4/BLE_eventHandler.c **** *  Looks for the included services in the current service (pointed by
1929:.\Generated_Source\PSoC4/BLE_eventHandler.c **** *   cyBle_disCount). If the current service handle range is invalid (any of start
1930:.\Generated_Source\PSoC4/BLE_eventHandler.c **** *   or end handle is invalid), then increment the cyBle_disCount and check
1931:.\Generated_Source\PSoC4/BLE_eventHandler.c **** *   the next service range and does so until a valid range is caught or the end of
1932:.\Generated_Source\PSoC4/BLE_eventHandler.c **** *   the service set is reached.
1933:.\Generated_Source\PSoC4/BLE_eventHandler.c **** * 
1934:.\Generated_Source\PSoC4/BLE_eventHandler.c **** *  \param incrementIndex: Not zero value indicates that service index should be 
1935:.\Generated_Source\PSoC4/BLE_eventHandler.c **** *                         incremented.
1936:.\Generated_Source\PSoC4/BLE_eventHandler.c **** * 
1937:.\Generated_Source\PSoC4/BLE_eventHandler.c **** * \return
1938:.\Generated_Source\PSoC4/BLE_eventHandler.c **** *  None.
1939:.\Generated_Source\PSoC4/BLE_eventHandler.c **** * 
1940:.\Generated_Source\PSoC4/BLE_eventHandler.c **** ******************************************************************************/
1941:.\Generated_Source\PSoC4/BLE_eventHandler.c **** void CyBle_NextInclDiscovery(uint8 incrementIndex)
1942:.\Generated_Source\PSoC4/BLE_eventHandler.c **** {
 1643              		.loc 1 1942 0
 1644              		.cfi_startproc
 1645 0000 80B5     		push	{r7, lr}
 1646              		.cfi_def_cfa_offset 8
 1647              		.cfi_offset 7, -8
 1648              		.cfi_offset 14, -4
 1649 0002 82B0     		sub	sp, sp, #8
 1650              		.cfi_def_cfa_offset 16
 1651 0004 00AF     		add	r7, sp, #0
 1652              		.cfi_def_cfa_register 7
 1653 0006 021C     		mov	r2, r0
 1654 0008 FB1D     		add	r3, r7, #7
 1655 000a 1A70     		strb	r2, [r3]
1943:.\Generated_Source\PSoC4/BLE_eventHandler.c **** 
1944:.\Generated_Source\PSoC4/BLE_eventHandler.c ****     if(incrementIndex != CYBLE_DISCOVERY_INIT)
 1656              		.loc 1 1944 0
 1657 000c FB1D     		add	r3, r7, #7
 1658 000e 1B78     		ldrb	r3, [r3]
 1659 0010 002B     		cmp	r3, #0
 1660 0012 06D0     		beq	.L106
1945:.\Generated_Source\PSoC4/BLE_eventHandler.c ****     {
1946:.\Generated_Source\PSoC4/BLE_eventHandler.c ****         cyBle_disCount++;
 1661              		.loc 1 1946 0
 1662 0014 2C4B     		ldr	r3, .L114
 1663 0016 1B78     		ldrb	r3, [r3]
 1664 0018 0133     		add	r3, r3, #1
 1665 001a DAB2     		uxtb	r2, r3
 1666 001c 2A4B     		ldr	r3, .L114
 1667 001e 1A70     		strb	r2, [r3]
 1668 0020 05E0     		b	.L107
 1669              	.L106:
1947:.\Generated_Source\PSoC4/BLE_eventHandler.c ****     }
1948:.\Generated_Source\PSoC4/BLE_eventHandler.c ****     else
1949:.\Generated_Source\PSoC4/BLE_eventHandler.c ****     {
1950:.\Generated_Source\PSoC4/BLE_eventHandler.c ****         cyBle_disCount = 0u;
 1670              		.loc 1 1950 0
 1671 0022 294B     		ldr	r3, .L114
 1672 0024 0022     		mov	r2, #0
 1673 0026 1A70     		strb	r2, [r3]
1951:.\Generated_Source\PSoC4/BLE_eventHandler.c ****         cyBle_discInclInfo.inclDefHandle = 0u;
 1674              		.loc 1 1951 0
ARM GAS  C:\Users\YBOURA~1\AppData\Local\Temp\cc3HigXd.s 			page 65


 1675 0028 284B     		ldr	r3, .L114+4
 1676 002a 0022     		mov	r2, #0
 1677 002c 1A80     		strh	r2, [r3]
 1678              	.L107:
1952:.\Generated_Source\PSoC4/BLE_eventHandler.c ****     }
1953:.\Generated_Source\PSoC4/BLE_eventHandler.c **** 
1954:.\Generated_Source\PSoC4/BLE_eventHandler.c ****     /* Skip not existing services */
1955:.\Generated_Source\PSoC4/BLE_eventHandler.c ****     while((cyBle_disCount < (uint8) CYBLE_SRVI_COUNT) &&
 1679              		.loc 1 1955 0
 1680 002e 05E0     		b	.L108
 1681              	.L110:
1956:.\Generated_Source\PSoC4/BLE_eventHandler.c ****           (cyBle_serverInfo[cyBle_disCount].range.startHandle == CYBLE_GATT_INVALID_ATTR_HANDLE_VAL
1957:.\Generated_Source\PSoC4/BLE_eventHandler.c ****     {
1958:.\Generated_Source\PSoC4/BLE_eventHandler.c ****         cyBle_disCount++;
 1682              		.loc 1 1958 0
 1683 0030 254B     		ldr	r3, .L114
 1684 0032 1B78     		ldrb	r3, [r3]
 1685 0034 0133     		add	r3, r3, #1
 1686 0036 DAB2     		uxtb	r2, r3
 1687 0038 234B     		ldr	r3, .L114
 1688 003a 1A70     		strb	r2, [r3]
 1689              	.L108:
1955:.\Generated_Source\PSoC4/BLE_eventHandler.c ****           (cyBle_serverInfo[cyBle_disCount].range.startHandle == CYBLE_GATT_INVALID_ATTR_HANDLE_VAL
 1690              		.loc 1 1955 0
 1691 003c 224B     		ldr	r3, .L114
 1692 003e 1B78     		ldrb	r3, [r3]
 1693 0040 022B     		cmp	r3, #2
 1694 0042 0AD8     		bhi	.L109
1956:.\Generated_Source\PSoC4/BLE_eventHandler.c ****           (cyBle_serverInfo[cyBle_disCount].range.startHandle == CYBLE_GATT_INVALID_ATTR_HANDLE_VAL
 1695              		.loc 1 1956 0 discriminator 1
 1696 0044 204B     		ldr	r3, .L114
 1697 0046 1B78     		ldrb	r3, [r3]
 1698 0048 191C     		mov	r1, r3
 1699 004a 214A     		ldr	r2, .L114+8
 1700 004c 0B1C     		mov	r3, r1
 1701 004e 5B00     		lsl	r3, r3, #1
 1702 0050 5B18     		add	r3, r3, r1
 1703 0052 5B00     		lsl	r3, r3, #1
 1704 0054 9B5A     		ldrh	r3, [r3, r2]
1955:.\Generated_Source\PSoC4/BLE_eventHandler.c ****           (cyBle_serverInfo[cyBle_disCount].range.startHandle == CYBLE_GATT_INVALID_ATTR_HANDLE_VAL
 1705              		.loc 1 1955 0 discriminator 1
 1706 0056 002B     		cmp	r3, #0
 1707 0058 EAD0     		beq	.L110
 1708              	.L109:
1959:.\Generated_Source\PSoC4/BLE_eventHandler.c ****     }
1960:.\Generated_Source\PSoC4/BLE_eventHandler.c **** 
1961:.\Generated_Source\PSoC4/BLE_eventHandler.c ****     if(cyBle_disCount < (uint8) CYBLE_SRVI_COUNT)
 1709              		.loc 1 1961 0
 1710 005a 1B4B     		ldr	r3, .L114
 1711 005c 1B78     		ldrb	r3, [r3]
 1712 005e 022B     		cmp	r3, #2
 1713 0060 28D8     		bhi	.L111
1962:.\Generated_Source\PSoC4/BLE_eventHandler.c ****     {
1963:.\Generated_Source\PSoC4/BLE_eventHandler.c ****         if(CYBLE_ERROR_OK != CyBle_GattcFindIncludedServices(cyBle_connHandle, &cyBle_serverInfo[cy
 1714              		.loc 1 1963 0
 1715 0062 194B     		ldr	r3, .L114
 1716 0064 1B78     		ldrb	r3, [r3]
ARM GAS  C:\Users\YBOURA~1\AppData\Local\Temp\cc3HigXd.s 			page 66


 1717 0066 1A1C     		mov	r2, r3
 1718 0068 131C     		mov	r3, r2
 1719 006a 5B00     		lsl	r3, r3, #1
 1720 006c 9B18     		add	r3, r3, r2
 1721 006e 5B00     		lsl	r3, r3, #1
 1722 0070 174A     		ldr	r2, .L114+8
 1723 0072 9918     		add	r1, r3, r2
 1724 0074 174B     		ldr	r3, .L114+12
 1725 0076 1A78     		ldrb	r2, [r3]
 1726 0078 5B78     		ldrb	r3, [r3, #1]
 1727 007a 1B02     		lsl	r3, r3, #8
 1728 007c 1A43     		orr	r2, r3
 1729 007e 0023     		mov	r3, #0
 1730 0080 1204     		lsl	r2, r2, #16
 1731 0082 120C     		lsr	r2, r2, #16
 1732 0084 1B0C     		lsr	r3, r3, #16
 1733 0086 1B04     		lsl	r3, r3, #16
 1734 0088 1343     		orr	r3, r2
 1735 008a 181C     		mov	r0, r3
 1736 008c FFF7FEFF 		bl	CyBle_GattcFindIncludedServices
 1737 0090 031E     		sub	r3, r0, #0
 1738 0092 15D0     		beq	.L105
1964:.\Generated_Source\PSoC4/BLE_eventHandler.c ****         {
1965:.\Generated_Source\PSoC4/BLE_eventHandler.c ****             CyBle_ApplCallback(CYBLE_EVT_GATTC_INCL_DISCOVERY_FAILED, NULL);
 1739              		.loc 1 1965 0
 1740 0094 104B     		ldr	r3, .L114+16
 1741 0096 1B68     		ldr	r3, [r3]
 1742 0098 8422     		mov	r2, #132
 1743 009a 5200     		lsl	r2, r2, #1
 1744 009c 101C     		mov	r0, r2
 1745 009e 0021     		mov	r1, #0
 1746 00a0 9847     		blx	r3
1966:.\Generated_Source\PSoC4/BLE_eventHandler.c ****             cyBle_eventHandlerFlag &= (uint8)~CYBLE_AUTO_DISCOVERY;
 1747              		.loc 1 1966 0
 1748 00a2 0E4B     		ldr	r3, .L114+20
 1749 00a4 1B78     		ldrb	r3, [r3]
 1750 00a6 DBB2     		uxtb	r3, r3
 1751 00a8 0222     		mov	r2, #2
 1752 00aa 9343     		bic	r3, r2
 1753 00ac DAB2     		uxtb	r2, r3
 1754 00ae 0B4B     		ldr	r3, .L114+20
 1755 00b0 1A70     		strb	r2, [r3]
 1756 00b2 05E0     		b	.L105
 1757              	.L111:
1967:.\Generated_Source\PSoC4/BLE_eventHandler.c ****         }
1968:.\Generated_Source\PSoC4/BLE_eventHandler.c ****     }
1969:.\Generated_Source\PSoC4/BLE_eventHandler.c ****     else /* Included service discovery procedure is done, start characteristic discovery procedure 
1970:.\Generated_Source\PSoC4/BLE_eventHandler.c ****     {
1971:.\Generated_Source\PSoC4/BLE_eventHandler.c ****         #if(CYBLE_STACK_MODE_DEBUG)
1972:.\Generated_Source\PSoC4/BLE_eventHandler.c ****             CyBle_ApplCallback(CYBLE_EVT_GATTC_INCL_DISCOVERY_COMPLETE, NULL);
1973:.\Generated_Source\PSoC4/BLE_eventHandler.c ****         #endif /* CYBLE_STACK_MODE_DEBUG */
1974:.\Generated_Source\PSoC4/BLE_eventHandler.c ****             CyBle_SetClientState(CYBLE_CLIENT_STATE_CHAR_DISCOVERING);
 1758              		.loc 1 1974 0
 1759 00b4 0A4B     		ldr	r3, .L114+24
 1760 00b6 0322     		mov	r2, #3
 1761 00b8 1A70     		strb	r2, [r3]
1975:.\Generated_Source\PSoC4/BLE_eventHandler.c ****             CyBle_NextCharDiscovery(CYBLE_DISCOVERY_INIT);
ARM GAS  C:\Users\YBOURA~1\AppData\Local\Temp\cc3HigXd.s 			page 67


 1762              		.loc 1 1975 0
 1763 00ba 0020     		mov	r0, #0
 1764 00bc FFF7FEFF 		bl	CyBle_NextCharDiscovery
 1765              	.L105:
1976:.\Generated_Source\PSoC4/BLE_eventHandler.c ****     }
1977:.\Generated_Source\PSoC4/BLE_eventHandler.c **** }
 1766              		.loc 1 1977 0
 1767 00c0 BD46     		mov	sp, r7
 1768 00c2 02B0     		add	sp, sp, #8
 1769              		@ sp needed
 1770 00c4 80BD     		pop	{r7, pc}
 1771              	.L115:
 1772 00c6 C046     		.align	2
 1773              	.L114:
 1774 00c8 00000000 		.word	cyBle_disCount
 1775 00cc 04000000 		.word	cyBle_discInclInfo
 1776 00d0 00000000 		.word	cyBle_serverInfo
 1777 00d4 00000000 		.word	cyBle_connHandle
 1778 00d8 00000000 		.word	CyBle_ApplCallback
 1779 00dc 00000000 		.word	cyBle_eventHandlerFlag
 1780 00e0 00000000 		.word	cyBle_clientState
 1781              		.cfi_endproc
 1782              	.LFE16:
 1783              		.size	CyBle_NextInclDiscovery, .-CyBle_NextInclDiscovery
 1784              		.section	.text.CyBle_GapcDiscoverCharacteristicsEventHandler,"ax",%progbits
 1785              		.align	2
 1786              		.code	16
 1787              		.thumb_func
 1788              		.type	CyBle_GapcDiscoverCharacteristicsEventHandler, %function
 1789              	CyBle_GapcDiscoverCharacteristicsEventHandler:
 1790              	.LFB17:
1978:.\Generated_Source\PSoC4/BLE_eventHandler.c **** 
1979:.\Generated_Source\PSoC4/BLE_eventHandler.c **** 
1980:.\Generated_Source\PSoC4/BLE_eventHandler.c **** /****************************************************************************** 
1981:.\Generated_Source\PSoC4/BLE_eventHandler.c **** * Function Name: CyBle_GapcDiscoverCharacteristicsEventHandler
1982:.\Generated_Source\PSoC4/BLE_eventHandler.c **** ***************************************************************************//**
1983:.\Generated_Source\PSoC4/BLE_eventHandler.c **** * 
1984:.\Generated_Source\PSoC4/BLE_eventHandler.c **** *  This function is called on receiving a "CYBLE_EVT_GATTC_READ_BY_TYPE_RSP"
1985:.\Generated_Source\PSoC4/BLE_eventHandler.c **** *  event. Based on the service UUID, an appropriate data structure is populated
1986:.\Generated_Source\PSoC4/BLE_eventHandler.c **** *  using the data received as part of the callback.
1987:.\Generated_Source\PSoC4/BLE_eventHandler.c **** * 
1988:.\Generated_Source\PSoC4/BLE_eventHandler.c **** *  \param discCharInfo:  the pointer to a characteristic information structure.
1989:.\Generated_Source\PSoC4/BLE_eventHandler.c **** * 
1990:.\Generated_Source\PSoC4/BLE_eventHandler.c **** * \return
1991:.\Generated_Source\PSoC4/BLE_eventHandler.c **** *  None
1992:.\Generated_Source\PSoC4/BLE_eventHandler.c **** * 
1993:.\Generated_Source\PSoC4/BLE_eventHandler.c **** ******************************************************************************/
1994:.\Generated_Source\PSoC4/BLE_eventHandler.c **** static void CyBle_GapcDiscoverCharacteristicsEventHandler(CYBLE_DISC_CHAR_INFO_T *discCharInfo)
1995:.\Generated_Source\PSoC4/BLE_eventHandler.c **** {
 1791              		.loc 1 1995 0
 1792              		.cfi_startproc
 1793 0000 80B5     		push	{r7, lr}
 1794              		.cfi_def_cfa_offset 8
 1795              		.cfi_offset 7, -8
 1796              		.cfi_offset 14, -4
 1797 0002 82B0     		sub	sp, sp, #8
 1798              		.cfi_def_cfa_offset 16
ARM GAS  C:\Users\YBOURA~1\AppData\Local\Temp\cc3HigXd.s 			page 68


 1799 0004 00AF     		add	r7, sp, #0
 1800              		.cfi_def_cfa_register 7
 1801 0006 7860     		str	r0, [r7, #4]
1996:.\Generated_Source\PSoC4/BLE_eventHandler.c ****     switch(discCharInfo->uuid.uuid16)
 1802              		.loc 1 1996 0
 1803 0008 7B68     		ldr	r3, [r7, #4]
 1804 000a DB88     		ldrh	r3, [r3, #6]
 1805 000c 334A     		ldr	r2, .L136
 1806 000e 9446     		mov	ip, r2
 1807 0010 6344     		add	r3, r3, ip
 1808 0012 042B     		cmp	r3, #4
 1809 0014 5ED8     		bhi	.L135
 1810 0016 9A00     		lsl	r2, r3, #2
 1811 0018 314B     		ldr	r3, .L136+4
 1812 001a D318     		add	r3, r2, r3
 1813 001c 1B68     		ldr	r3, [r3]
 1814 001e 9F46     		mov	pc, r3
 1815              		.section	.rodata
 1816              		.align	2
 1817              	.L119:
 1818 01c8 20000000 		.word	.L118
 1819 01cc 44000000 		.word	.L120
 1820 01d0 68000000 		.word	.L121
 1821 01d4 8C000000 		.word	.L122
 1822 01d8 B0000000 		.word	.L123
 1823              		.section	.text.CyBle_GapcDiscoverCharacteristicsEventHandler
 1824              	.L118:
1997:.\Generated_Source\PSoC4/BLE_eventHandler.c ****     {
1998:.\Generated_Source\PSoC4/BLE_eventHandler.c ****     case CYBLE_UUID_CHAR_DEVICE_NAME:
1999:.\Generated_Source\PSoC4/BLE_eventHandler.c ****         CYBLE_GapcCheckCharHandle(cyBle_gapc.deviceNameCharHandle, discCharInfo);
 1825              		.loc 1 1999 0
 1826 0020 304B     		ldr	r3, .L136+8
 1827 0022 1B88     		ldrh	r3, [r3]
 1828 0024 002B     		cmp	r3, #0
 1829 0026 04D1     		bne	.L124
 1830              		.loc 1 1999 0 is_stmt 0 discriminator 1
 1831 0028 7B68     		ldr	r3, [r7, #4]
 1832 002a 9A88     		ldrh	r2, [r3, #4]
 1833 002c 2D4B     		ldr	r3, .L136+8
 1834 002e 1A80     		strh	r2, [r3]
2000:.\Generated_Source\PSoC4/BLE_eventHandler.c ****         break;
 1835              		.loc 1 2000 0 is_stmt 1 discriminator 1
 1836 0030 51E0     		b	.L116
 1837              	.L124:
1999:.\Generated_Source\PSoC4/BLE_eventHandler.c ****         break;
 1838              		.loc 1 1999 0 discriminator 2
 1839 0032 2D4B     		ldr	r3, .L136+12
 1840 0034 1B68     		ldr	r3, [r3]
 1841 0036 7A68     		ldr	r2, [r7, #4]
 1842 0038 911D     		add	r1, r2, #6
 1843 003a 8622     		mov	r2, #134
 1844 003c 5200     		lsl	r2, r2, #1
 1845 003e 101C     		mov	r0, r2
 1846 0040 9847     		blx	r3
 1847              		.loc 1 2000 0 discriminator 2
 1848 0042 48E0     		b	.L116
 1849              	.L120:
ARM GAS  C:\Users\YBOURA~1\AppData\Local\Temp\cc3HigXd.s 			page 69


2001:.\Generated_Source\PSoC4/BLE_eventHandler.c **** 
2002:.\Generated_Source\PSoC4/BLE_eventHandler.c ****     case CYBLE_UUID_CHAR_APPEARANCE:
2003:.\Generated_Source\PSoC4/BLE_eventHandler.c ****         CYBLE_GapcCheckCharHandle(cyBle_gapc.appearanceCharHandle, discCharInfo);
 1850              		.loc 1 2003 0
 1851 0044 274B     		ldr	r3, .L136+8
 1852 0046 5B88     		ldrh	r3, [r3, #2]
 1853 0048 002B     		cmp	r3, #0
 1854 004a 04D1     		bne	.L127
 1855              		.loc 1 2003 0 is_stmt 0 discriminator 1
 1856 004c 7B68     		ldr	r3, [r7, #4]
 1857 004e 9A88     		ldrh	r2, [r3, #4]
 1858 0050 244B     		ldr	r3, .L136+8
 1859 0052 5A80     		strh	r2, [r3, #2]
2004:.\Generated_Source\PSoC4/BLE_eventHandler.c ****         break;
 1860              		.loc 1 2004 0 is_stmt 1 discriminator 1
 1861 0054 3FE0     		b	.L116
 1862              	.L127:
2003:.\Generated_Source\PSoC4/BLE_eventHandler.c ****         break;
 1863              		.loc 1 2003 0 discriminator 2
 1864 0056 244B     		ldr	r3, .L136+12
 1865 0058 1B68     		ldr	r3, [r3]
 1866 005a 7A68     		ldr	r2, [r7, #4]
 1867 005c 911D     		add	r1, r2, #6
 1868 005e 8622     		mov	r2, #134
 1869 0060 5200     		lsl	r2, r2, #1
 1870 0062 101C     		mov	r0, r2
 1871 0064 9847     		blx	r3
 1872              		.loc 1 2004 0 discriminator 2
 1873 0066 36E0     		b	.L116
 1874              	.L121:
2005:.\Generated_Source\PSoC4/BLE_eventHandler.c **** 
2006:.\Generated_Source\PSoC4/BLE_eventHandler.c ****     case CYBLE_UUID_CHAR_PERIPH_PRIVCY_FLAG:
2007:.\Generated_Source\PSoC4/BLE_eventHandler.c ****         CYBLE_GapcCheckCharHandle(cyBle_gapc.periphPrivacyCharHandle, discCharInfo);
 1875              		.loc 1 2007 0
 1876 0068 1E4B     		ldr	r3, .L136+8
 1877 006a 9B88     		ldrh	r3, [r3, #4]
 1878 006c 002B     		cmp	r3, #0
 1879 006e 04D1     		bne	.L129
 1880              		.loc 1 2007 0 is_stmt 0 discriminator 1
 1881 0070 7B68     		ldr	r3, [r7, #4]
 1882 0072 9A88     		ldrh	r2, [r3, #4]
 1883 0074 1B4B     		ldr	r3, .L136+8
 1884 0076 9A80     		strh	r2, [r3, #4]
2008:.\Generated_Source\PSoC4/BLE_eventHandler.c ****         break;
 1885              		.loc 1 2008 0 is_stmt 1 discriminator 1
 1886 0078 2DE0     		b	.L116
 1887              	.L129:
2007:.\Generated_Source\PSoC4/BLE_eventHandler.c ****         break;
 1888              		.loc 1 2007 0 discriminator 2
 1889 007a 1B4B     		ldr	r3, .L136+12
 1890 007c 1B68     		ldr	r3, [r3]
 1891 007e 7A68     		ldr	r2, [r7, #4]
 1892 0080 911D     		add	r1, r2, #6
 1893 0082 8622     		mov	r2, #134
 1894 0084 5200     		lsl	r2, r2, #1
 1895 0086 101C     		mov	r0, r2
 1896 0088 9847     		blx	r3
ARM GAS  C:\Users\YBOURA~1\AppData\Local\Temp\cc3HigXd.s 			page 70


 1897              		.loc 1 2008 0 discriminator 2
 1898 008a 24E0     		b	.L116
 1899              	.L122:
2009:.\Generated_Source\PSoC4/BLE_eventHandler.c **** 
2010:.\Generated_Source\PSoC4/BLE_eventHandler.c ****     case CYBLE_UUID_CHAR_RECONNECTION_ADDR:
2011:.\Generated_Source\PSoC4/BLE_eventHandler.c ****         CYBLE_GapcCheckCharHandle(cyBle_gapc.reconnAddrCharHandle, discCharInfo);
 1900              		.loc 1 2011 0
 1901 008c 154B     		ldr	r3, .L136+8
 1902 008e DB88     		ldrh	r3, [r3, #6]
 1903 0090 002B     		cmp	r3, #0
 1904 0092 04D1     		bne	.L131
 1905              		.loc 1 2011 0 is_stmt 0 discriminator 1
 1906 0094 7B68     		ldr	r3, [r7, #4]
 1907 0096 9A88     		ldrh	r2, [r3, #4]
 1908 0098 124B     		ldr	r3, .L136+8
 1909 009a DA80     		strh	r2, [r3, #6]
2012:.\Generated_Source\PSoC4/BLE_eventHandler.c ****         break;
 1910              		.loc 1 2012 0 is_stmt 1 discriminator 1
 1911 009c 1BE0     		b	.L116
 1912              	.L131:
2011:.\Generated_Source\PSoC4/BLE_eventHandler.c ****         break;
 1913              		.loc 1 2011 0 discriminator 2
 1914 009e 124B     		ldr	r3, .L136+12
 1915 00a0 1B68     		ldr	r3, [r3]
 1916 00a2 7A68     		ldr	r2, [r7, #4]
 1917 00a4 911D     		add	r1, r2, #6
 1918 00a6 8622     		mov	r2, #134
 1919 00a8 5200     		lsl	r2, r2, #1
 1920 00aa 101C     		mov	r0, r2
 1921 00ac 9847     		blx	r3
 1922              		.loc 1 2012 0 discriminator 2
 1923 00ae 12E0     		b	.L116
 1924              	.L123:
2013:.\Generated_Source\PSoC4/BLE_eventHandler.c **** 
2014:.\Generated_Source\PSoC4/BLE_eventHandler.c ****     case CYBLE_UUID_CHAR_PRFRRD_CNXN_PARAM:
2015:.\Generated_Source\PSoC4/BLE_eventHandler.c ****         CYBLE_GapcCheckCharHandle(cyBle_gapc.prefConnParamCharHandle, discCharInfo);
 1925              		.loc 1 2015 0
 1926 00b0 0C4B     		ldr	r3, .L136+8
 1927 00b2 1B89     		ldrh	r3, [r3, #8]
 1928 00b4 002B     		cmp	r3, #0
 1929 00b6 04D1     		bne	.L133
 1930              		.loc 1 2015 0 is_stmt 0 discriminator 1
 1931 00b8 7B68     		ldr	r3, [r7, #4]
 1932 00ba 9A88     		ldrh	r2, [r3, #4]
 1933 00bc 094B     		ldr	r3, .L136+8
 1934 00be 1A81     		strh	r2, [r3, #8]
2016:.\Generated_Source\PSoC4/BLE_eventHandler.c ****         break;
 1935              		.loc 1 2016 0 is_stmt 1 discriminator 1
 1936 00c0 09E0     		b	.L116
 1937              	.L133:
2015:.\Generated_Source\PSoC4/BLE_eventHandler.c ****         break;
 1938              		.loc 1 2015 0 discriminator 2
 1939 00c2 094B     		ldr	r3, .L136+12
 1940 00c4 1B68     		ldr	r3, [r3]
 1941 00c6 7A68     		ldr	r2, [r7, #4]
 1942 00c8 911D     		add	r1, r2, #6
 1943 00ca 8622     		mov	r2, #134
ARM GAS  C:\Users\YBOURA~1\AppData\Local\Temp\cc3HigXd.s 			page 71


 1944 00cc 5200     		lsl	r2, r2, #1
 1945 00ce 101C     		mov	r0, r2
 1946 00d0 9847     		blx	r3
 1947              		.loc 1 2016 0 discriminator 2
 1948 00d2 00E0     		b	.L116
 1949              	.L135:
2017:.\Generated_Source\PSoC4/BLE_eventHandler.c **** 
2018:.\Generated_Source\PSoC4/BLE_eventHandler.c ****     default:
2019:.\Generated_Source\PSoC4/BLE_eventHandler.c ****         break;
 1950              		.loc 1 2019 0
 1951 00d4 C046     		mov	r8, r8
 1952              	.L116:
2020:.\Generated_Source\PSoC4/BLE_eventHandler.c ****     }
2021:.\Generated_Source\PSoC4/BLE_eventHandler.c **** }
 1953              		.loc 1 2021 0
 1954 00d6 BD46     		mov	sp, r7
 1955 00d8 02B0     		add	sp, sp, #8
 1956              		@ sp needed
 1957 00da 80BD     		pop	{r7, pc}
 1958              	.L137:
 1959              		.align	2
 1960              	.L136:
 1961 00dc 00D6FFFF 		.word	-10752
 1962 00e0 C8010000 		.word	.L119
 1963 00e4 00000000 		.word	cyBle_gapc
 1964 00e8 00000000 		.word	CyBle_ApplCallback
 1965              		.cfi_endproc
 1966              	.LFE17:
 1967              		.size	CyBle_GapcDiscoverCharacteristicsEventHandler, .-CyBle_GapcDiscoverCharacteristicsEventHandl
 1968              		.section	.text.CyBle_ReadByTypeEventHandler,"ax",%progbits
 1969              		.align	2
 1970              		.global	CyBle_ReadByTypeEventHandler
 1971              		.code	16
 1972              		.thumb_func
 1973              		.type	CyBle_ReadByTypeEventHandler, %function
 1974              	CyBle_ReadByTypeEventHandler:
 1975              	.LFB18:
2022:.\Generated_Source\PSoC4/BLE_eventHandler.c **** 
2023:.\Generated_Source\PSoC4/BLE_eventHandler.c **** 
2024:.\Generated_Source\PSoC4/BLE_eventHandler.c **** /****************************************************************************** 
2025:.\Generated_Source\PSoC4/BLE_eventHandler.c **** * Function Name: CyBle_ReadByTypeEventHandler
2026:.\Generated_Source\PSoC4/BLE_eventHandler.c **** ***************************************************************************//**
2027:.\Generated_Source\PSoC4/BLE_eventHandler.c **** *  Handles the Read By Type Response Event during an automatic server discovery
2028:.\Generated_Source\PSoC4/BLE_eventHandler.c **** *  process.
2029:.\Generated_Source\PSoC4/BLE_eventHandler.c **** * 
2030:.\Generated_Source\PSoC4/BLE_eventHandler.c **** *  \param eventParam: The event parameters for a Read By Type Response.
2031:.\Generated_Source\PSoC4/BLE_eventHandler.c **** * 
2032:.\Generated_Source\PSoC4/BLE_eventHandler.c **** * \return
2033:.\Generated_Source\PSoC4/BLE_eventHandler.c **** *  None.
2034:.\Generated_Source\PSoC4/BLE_eventHandler.c **** * 
2035:.\Generated_Source\PSoC4/BLE_eventHandler.c **** ******************************************************************************/
2036:.\Generated_Source\PSoC4/BLE_eventHandler.c **** void CyBle_ReadByTypeEventHandler(CYBLE_GATTC_READ_BY_TYPE_RSP_PARAM_T *eventParam)
2037:.\Generated_Source\PSoC4/BLE_eventHandler.c **** {
 1976              		.loc 1 2037 0
 1977              		.cfi_startproc
 1978 0000 90B5     		push	{r4, r7, lr}
 1979              		.cfi_def_cfa_offset 12
ARM GAS  C:\Users\YBOURA~1\AppData\Local\Temp\cc3HigXd.s 			page 72


 1980              		.cfi_offset 4, -12
 1981              		.cfi_offset 7, -8
 1982              		.cfi_offset 14, -4
 1983 0002 93B0     		sub	sp, sp, #76
 1984              		.cfi_def_cfa_offset 88
 1985 0004 00AF     		add	r7, sp, #0
 1986              		.cfi_def_cfa_register 7
 1987 0006 7860     		str	r0, [r7, #4]
2038:.\Generated_Source\PSoC4/BLE_eventHandler.c ****     uint16 dataLength;
2039:.\Generated_Source\PSoC4/BLE_eventHandler.c ****     uint16 attrLength;
2040:.\Generated_Source\PSoC4/BLE_eventHandler.c ****     uint16 i, j;
2041:.\Generated_Source\PSoC4/BLE_eventHandler.c ****     uint8 *attrVal;
2042:.\Generated_Source\PSoC4/BLE_eventHandler.c **** 
2043:.\Generated_Source\PSoC4/BLE_eventHandler.c ****     if((cyBle_eventHandlerFlag & CYBLE_AUTO_DISCOVERY) != 0u)
 1988              		.loc 1 2043 0
 1989 0008 CD4B     		ldr	r3, .L173
 1990 000a 1B78     		ldrb	r3, [r3]
 1991 000c DBB2     		uxtb	r3, r3
 1992 000e 1A1C     		mov	r2, r3
 1993 0010 0223     		mov	r3, #2
 1994 0012 1340     		and	r3, r2
 1995 0014 00D1     		bne	.LCB1701
 1996 0016 F2E1     		b	.L138	@long jump
 1997              	.LCB1701:
2044:.\Generated_Source\PSoC4/BLE_eventHandler.c ****     {
2045:.\Generated_Source\PSoC4/BLE_eventHandler.c ****         /* Count of service information pieces in this mtu */
2046:.\Generated_Source\PSoC4/BLE_eventHandler.c ****         dataLength = eventParam->attrData.length;
 1998              		.loc 1 2046 0
 1999 0018 3E23     		mov	r3, #62
 2000 001a FB18     		add	r3, r7, r3
 2001 001c 7A68     		ldr	r2, [r7, #4]
 2002 001e 1289     		ldrh	r2, [r2, #8]
 2003 0020 1A80     		strh	r2, [r3]
2047:.\Generated_Source\PSoC4/BLE_eventHandler.c ****         attrLength = eventParam->attrData.attrLen;
 2004              		.loc 1 2047 0
 2005 0022 3C23     		mov	r3, #60
 2006 0024 FB18     		add	r3, r7, r3
 2007 0026 7A68     		ldr	r2, [r7, #4]
 2008 0028 5289     		ldrh	r2, [r2, #10]
 2009 002a 1A80     		strh	r2, [r3]
2048:.\Generated_Source\PSoC4/BLE_eventHandler.c ****         attrVal = eventParam->attrData.attrValue;
 2010              		.loc 1 2048 0
 2011 002c 7B68     		ldr	r3, [r7, #4]
 2012 002e 5B68     		ldr	r3, [r3, #4]
 2013 0030 3B64     		str	r3, [r7, #64]
2049:.\Generated_Source\PSoC4/BLE_eventHandler.c ****         
2050:.\Generated_Source\PSoC4/BLE_eventHandler.c ****         if(CYBLE_CLIENT_STATE_CHAR_DISCOVERING == CyBle_GetClientState())
 2014              		.loc 1 2050 0
 2015 0032 C44B     		ldr	r3, .L173+4
 2016 0034 1B78     		ldrb	r3, [r3]
 2017 0036 032B     		cmp	r3, #3
 2018 0038 00D0     		beq	.LCB1718
 2019 003a D4E0     		b	.L140	@long jump
 2020              	.LCB1718:
 2021              	.LBB6:
2051:.\Generated_Source\PSoC4/BLE_eventHandler.c ****         {
2052:.\Generated_Source\PSoC4/BLE_eventHandler.c ****             CYBLE_DISC_CHAR_INFO_T discCharInfo;
ARM GAS  C:\Users\YBOURA~1\AppData\Local\Temp\cc3HigXd.s 			page 73


2053:.\Generated_Source\PSoC4/BLE_eventHandler.c ****             
2054:.\Generated_Source\PSoC4/BLE_eventHandler.c ****             for(i = 0u; i < attrLength; i += dataLength)
 2022              		.loc 1 2054 0
 2023 003c 4623     		mov	r3, #70
 2024 003e FB18     		add	r3, r7, r3
 2025 0040 0022     		mov	r2, #0
 2026 0042 1A80     		strh	r2, [r3]
 2027 0044 C5E0     		b	.L141
 2028              	.L154:
2055:.\Generated_Source\PSoC4/BLE_eventHandler.c ****             {
2056:.\Generated_Source\PSoC4/BLE_eventHandler.c ****                 discCharInfo.charDeclHandle = CyBle_Get16ByPtr(attrVal);
 2029              		.loc 1 2056 0
 2030 0046 3B6C     		ldr	r3, [r7, #64]
 2031 0048 181C     		mov	r0, r3
 2032 004a FFF7FEFF 		bl	CyBle_Get16ByPtr
 2033 004e 031C     		mov	r3, r0
 2034 0050 1A1C     		mov	r2, r3
 2035 0052 2423     		mov	r3, #36
 2036 0054 FB18     		add	r3, r7, r3
 2037 0056 1A80     		strh	r2, [r3]
2057:.\Generated_Source\PSoC4/BLE_eventHandler.c ****                 attrVal += sizeof(discCharInfo.charDeclHandle);
 2038              		.loc 1 2057 0
 2039 0058 3B6C     		ldr	r3, [r7, #64]
 2040 005a 0233     		add	r3, r3, #2
 2041 005c 3B64     		str	r3, [r7, #64]
2058:.\Generated_Source\PSoC4/BLE_eventHandler.c ****                 discCharInfo.properties = *attrVal;
 2042              		.loc 1 2058 0
 2043 005e 3B6C     		ldr	r3, [r7, #64]
 2044 0060 1A78     		ldrb	r2, [r3]
 2045 0062 2423     		mov	r3, #36
 2046 0064 FB18     		add	r3, r7, r3
 2047 0066 9A70     		strb	r2, [r3, #2]
2059:.\Generated_Source\PSoC4/BLE_eventHandler.c ****                 attrVal += sizeof(discCharInfo.properties);
 2048              		.loc 1 2059 0
 2049 0068 3B6C     		ldr	r3, [r7, #64]
 2050 006a 0133     		add	r3, r3, #1
 2051 006c 3B64     		str	r3, [r7, #64]
2060:.\Generated_Source\PSoC4/BLE_eventHandler.c ****                 discCharInfo.valueHandle = CyBle_Get16ByPtr(attrVal);
 2052              		.loc 1 2060 0
 2053 006e 3B6C     		ldr	r3, [r7, #64]
 2054 0070 181C     		mov	r0, r3
 2055 0072 FFF7FEFF 		bl	CyBle_Get16ByPtr
 2056 0076 031C     		mov	r3, r0
 2057 0078 1A1C     		mov	r2, r3
 2058 007a 2423     		mov	r3, #36
 2059 007c FB18     		add	r3, r7, r3
 2060 007e 9A80     		strh	r2, [r3, #4]
2061:.\Generated_Source\PSoC4/BLE_eventHandler.c ****                 attrVal += sizeof(discCharInfo.valueHandle);
 2061              		.loc 1 2061 0
 2062 0080 3B6C     		ldr	r3, [r7, #64]
 2063 0082 0233     		add	r3, r3, #2
 2064 0084 3B64     		str	r3, [r7, #64]
2062:.\Generated_Source\PSoC4/BLE_eventHandler.c ****                 /* Characteristics discovery with 128-bit uuid */
2063:.\Generated_Source\PSoC4/BLE_eventHandler.c ****                 if(dataLength == CYBLE_DISC_CHAR_INFO_128_LEN)
 2065              		.loc 1 2063 0
 2066 0086 3E23     		mov	r3, #62
 2067 0088 FB18     		add	r3, r7, r3
ARM GAS  C:\Users\YBOURA~1\AppData\Local\Temp\cc3HigXd.s 			page 74


 2068 008a 1B88     		ldrh	r3, [r3]
 2069 008c 152B     		cmp	r3, #21
 2070 008e 34D1     		bne	.L142
2064:.\Generated_Source\PSoC4/BLE_eventHandler.c ****                 {
2065:.\Generated_Source\PSoC4/BLE_eventHandler.c ****                     discCharInfo.uuidFormat = CYBLE_GATT_128_BIT_UUID_FORMAT;
 2071              		.loc 1 2065 0
 2072 0090 2423     		mov	r3, #36
 2073 0092 FB18     		add	r3, r7, r3
 2074 0094 0222     		mov	r2, #2
 2075 0096 9A75     		strb	r2, [r3, #22]
2066:.\Generated_Source\PSoC4/BLE_eventHandler.c ****                     (void)memcpy(&discCharInfo.uuid.uuid128, attrVal, CYBLE_GATT_128_BIT_UUID_SIZE)
 2076              		.loc 1 2066 0
 2077 0098 2423     		mov	r3, #36
 2078 009a FB18     		add	r3, r7, r3
 2079 009c 0622     		mov	r2, #6
 2080 009e 396C     		ldr	r1, [r7, #64]
 2081 00a0 9B18     		add	r3, r3, r2
 2082 00a2 1022     		mov	r2, #16
 2083 00a4 181C     		mov	r0, r3
 2084 00a6 FFF7FEFF 		bl	memcpy
2067:.\Generated_Source\PSoC4/BLE_eventHandler.c ****                     attrVal += CYBLE_GATT_128_BIT_UUID_SIZE;
 2085              		.loc 1 2067 0
 2086 00aa 3B6C     		ldr	r3, [r7, #64]
 2087 00ac 1033     		add	r3, r3, #16
 2088 00ae 3B64     		str	r3, [r7, #64]
2068:.\Generated_Source\PSoC4/BLE_eventHandler.c ****                     /* Switch by service uuid */
2069:.\Generated_Source\PSoC4/BLE_eventHandler.c ****                     switch (cyBle_serverInfo[cyBle_disCount].uuid)
 2089              		.loc 1 2069 0
 2090 00b0 A54B     		ldr	r3, .L173+8
 2091 00b2 1B78     		ldrb	r3, [r3]
 2092 00b4 191C     		mov	r1, r3
 2093 00b6 A54A     		ldr	r2, .L173+12
 2094 00b8 0B1C     		mov	r3, r1
 2095 00ba 5B00     		lsl	r3, r3, #1
 2096 00bc 5B18     		add	r3, r3, r1
 2097 00be 5B00     		lsl	r3, r3, #1
 2098 00c0 D318     		add	r3, r2, r3
 2099 00c2 9B88     		ldrh	r3, [r3, #4]
 2100 00c4 1A1E     		sub	r2, r3, #0
 2101 00c6 A24B     		ldr	r3, .L173+16
 2102 00c8 9A42     		cmp	r2, r3
 2103 00ca 14D0     		beq	.L170
2070:.\Generated_Source\PSoC4/BLE_eventHandler.c ****                     {
2071:.\Generated_Source\PSoC4/BLE_eventHandler.c ****                         case CYBLE_UUID_WIRELESS_POWER_TRANSFER_SERVICE:
2072:.\Generated_Source\PSoC4/BLE_eventHandler.c ****                             #ifdef CYBLE_WPTS_CLIENT
2073:.\Generated_Source\PSoC4/BLE_eventHandler.c ****                                 CyBle_WptscDiscoverCharacteristicsEventHandler(&discCharInfo);
2074:.\Generated_Source\PSoC4/BLE_eventHandler.c ****                             #endif /* CYBLE_WPTS_CLIENT */
2075:.\Generated_Source\PSoC4/BLE_eventHandler.c ****                             break;
2076:.\Generated_Source\PSoC4/BLE_eventHandler.c ****                     
2077:.\Generated_Source\PSoC4/BLE_eventHandler.c ****                         default:
2078:.\Generated_Source\PSoC4/BLE_eventHandler.c ****                     #ifdef CYBLE_ANCS_CLIENT
2079:.\Generated_Source\PSoC4/BLE_eventHandler.c ****                         if(cyBle_disCount == CYBLE_SRVI_ANCS)
2080:.\Generated_Source\PSoC4/BLE_eventHandler.c ****                         {
2081:.\Generated_Source\PSoC4/BLE_eventHandler.c ****                             CyBle_AncscDiscoverCharacteristicsEventHandler(&discCharInfo);
2082:.\Generated_Source\PSoC4/BLE_eventHandler.c ****                         }
2083:.\Generated_Source\PSoC4/BLE_eventHandler.c ****                     #endif /* CYBLE_ANCS_CLIENT */
2084:.\Generated_Source\PSoC4/BLE_eventHandler.c ****                     #ifdef CYBLE_CUSTOM_CLIENT
ARM GAS  C:\Users\YBOURA~1\AppData\Local\Temp\cc3HigXd.s 			page 75


2085:.\Generated_Source\PSoC4/BLE_eventHandler.c ****                         if((cyBle_disCount >= CYBLE_SRVI_CUSTOMS) && (cyBle_disCount <= CYBLE_SRVI_
 2104              		.loc 1 2085 0
 2105 00cc 9E4B     		ldr	r3, .L173+8
 2106 00ce 1B78     		ldrb	r3, [r3]
 2107 00d0 012B     		cmp	r3, #1
 2108 00d2 0FD9     		bls	.L146
 2109              		.loc 1 2085 0 is_stmt 0 discriminator 1
 2110 00d4 9C4B     		ldr	r3, .L173+8
 2111 00d6 1B78     		ldrb	r3, [r3]
 2112 00d8 022B     		cmp	r3, #2
 2113 00da 0BD8     		bhi	.L146
2086:.\Generated_Source\PSoC4/BLE_eventHandler.c ****                         {
2087:.\Generated_Source\PSoC4/BLE_eventHandler.c ****                             CyBle_CustomcDiscoverCharacteristicsEventHandler(cyBle_disCount - CYBLE
 2114              		.loc 1 2087 0 is_stmt 1
 2115 00dc 9A4B     		ldr	r3, .L173+8
 2116 00de 1B78     		ldrb	r3, [r3]
 2117 00e0 9BB2     		uxth	r3, r3
 2118 00e2 023B     		sub	r3, r3, #2
 2119 00e4 9AB2     		uxth	r2, r3
 2120 00e6 2423     		mov	r3, #36
 2121 00e8 FB18     		add	r3, r7, r3
 2122 00ea 101C     		mov	r0, r2
 2123 00ec 191C     		mov	r1, r3
 2124 00ee FFF7FEFF 		bl	CyBle_CustomcDiscoverCharacteristicsEventHandler
2088:.\Generated_Source\PSoC4/BLE_eventHandler.c ****                         }
2089:.\Generated_Source\PSoC4/BLE_eventHandler.c ****                     #endif /* CYBLE_CUSTOM_CLIENT */
2090:.\Generated_Source\PSoC4/BLE_eventHandler.c ****                         break;
 2125              		.loc 1 2090 0
 2126 00f2 01E0     		b	.L145
 2127              	.L146:
 2128              		.loc 1 2090 0 is_stmt 0 discriminator 2
 2129 00f4 00E0     		b	.L145
 2130              	.L170:
2075:.\Generated_Source\PSoC4/BLE_eventHandler.c ****                     
 2131              		.loc 1 2075 0 is_stmt 1
 2132 00f6 C046     		mov	r8, r8
 2133              	.L145:
 2134 00f8 47E0     		b	.L147
 2135              	.L142:
2091:.\Generated_Source\PSoC4/BLE_eventHandler.c ****                     }
2092:.\Generated_Source\PSoC4/BLE_eventHandler.c ****                 }
2093:.\Generated_Source\PSoC4/BLE_eventHandler.c ****                 else if(dataLength == CYBLE_DISC_CHAR_INFO_LEN)
 2136              		.loc 1 2093 0
 2137 00fa 3E23     		mov	r3, #62
 2138 00fc FB18     		add	r3, r7, r3
 2139 00fe 1B88     		ldrh	r3, [r3]
 2140 0100 072B     		cmp	r3, #7
 2141 0102 42D1     		bne	.L147
2094:.\Generated_Source\PSoC4/BLE_eventHandler.c ****                 {
2095:.\Generated_Source\PSoC4/BLE_eventHandler.c ****                     discCharInfo.uuidFormat = CYBLE_GATT_16_BIT_UUID_FORMAT;
 2142              		.loc 1 2095 0
 2143 0104 2423     		mov	r3, #36
 2144 0106 FB18     		add	r3, r7, r3
 2145 0108 0122     		mov	r2, #1
 2146 010a 9A75     		strb	r2, [r3, #22]
2096:.\Generated_Source\PSoC4/BLE_eventHandler.c ****                     discCharInfo.uuid.uuid16 = CyBle_Get16ByPtr(attrVal);
 2147              		.loc 1 2096 0
ARM GAS  C:\Users\YBOURA~1\AppData\Local\Temp\cc3HigXd.s 			page 76


 2148 010c 3B6C     		ldr	r3, [r7, #64]
 2149 010e 181C     		mov	r0, r3
 2150 0110 FFF7FEFF 		bl	CyBle_Get16ByPtr
 2151 0114 031C     		mov	r3, r0
 2152 0116 1A1C     		mov	r2, r3
 2153 0118 2423     		mov	r3, #36
 2154 011a FB18     		add	r3, r7, r3
 2155 011c DA80     		strh	r2, [r3, #6]
2097:.\Generated_Source\PSoC4/BLE_eventHandler.c ****                     attrVal += CYBLE_GATT_16_BIT_UUID_SIZE;
 2156              		.loc 1 2097 0
 2157 011e 3B6C     		ldr	r3, [r7, #64]
 2158 0120 0233     		add	r3, r3, #2
 2159 0122 3B64     		str	r3, [r7, #64]
2098:.\Generated_Source\PSoC4/BLE_eventHandler.c **** 
2099:.\Generated_Source\PSoC4/BLE_eventHandler.c ****                     /* Switch by service uuid */
2100:.\Generated_Source\PSoC4/BLE_eventHandler.c ****                     switch (cyBle_serverInfo[cyBle_disCount].uuid)
 2160              		.loc 1 2100 0
 2161 0124 884B     		ldr	r3, .L173+8
 2162 0126 1B78     		ldrb	r3, [r3]
 2163 0128 191C     		mov	r1, r3
 2164 012a 884A     		ldr	r2, .L173+12
 2165 012c 0B1C     		mov	r3, r1
 2166 012e 5B00     		lsl	r3, r3, #1
 2167 0130 5B18     		add	r3, r3, r1
 2168 0132 5B00     		lsl	r3, r3, #1
 2169 0134 D318     		add	r3, r2, r3
 2170 0136 9B88     		ldrh	r3, [r3, #4]
 2171 0138 C022     		mov	r2, #192
 2172 013a 5201     		lsl	r2, r2, #5
 2173 013c 9342     		cmp	r3, r2
 2174 013e 03D0     		beq	.L149
 2175 0140 844A     		ldr	r2, .L173+20
 2176 0142 9342     		cmp	r3, r2
 2177 0144 06D0     		beq	.L150
 2178 0146 0BE0     		b	.L169
 2179              	.L149:
2101:.\Generated_Source\PSoC4/BLE_eventHandler.c ****                     {
2102:.\Generated_Source\PSoC4/BLE_eventHandler.c ****                     case CYBLE_UUID_GAP_SERVICE:
2103:.\Generated_Source\PSoC4/BLE_eventHandler.c ****                         CyBle_GapcDiscoverCharacteristicsEventHandler(&discCharInfo);
 2180              		.loc 1 2103 0
 2181 0148 2423     		mov	r3, #36
 2182 014a FB18     		add	r3, r7, r3
 2183 014c 181C     		mov	r0, r3
 2184 014e FFF7FEFF 		bl	CyBle_GapcDiscoverCharacteristicsEventHandler
2104:.\Generated_Source\PSoC4/BLE_eventHandler.c ****                         break;
 2185              		.loc 1 2104 0
 2186 0152 1AE0     		b	.L151
 2187              	.L150:
2105:.\Generated_Source\PSoC4/BLE_eventHandler.c **** 
2106:.\Generated_Source\PSoC4/BLE_eventHandler.c ****                     case CYBLE_UUID_GATT_SERVICE:
2107:.\Generated_Source\PSoC4/BLE_eventHandler.c ****                         CyBle_GattcDiscoverCharacteristicsEventHandler(&discCharInfo);
 2188              		.loc 1 2107 0
 2189 0154 2423     		mov	r3, #36
 2190 0156 FB18     		add	r3, r7, r3
 2191 0158 181C     		mov	r0, r3
 2192 015a FFF7FEFF 		bl	CyBle_GattcDiscoverCharacteristicsEventHandler
2108:.\Generated_Source\PSoC4/BLE_eventHandler.c ****                         break;
ARM GAS  C:\Users\YBOURA~1\AppData\Local\Temp\cc3HigXd.s 			page 77


 2193              		.loc 1 2108 0
 2194 015e 14E0     		b	.L151
 2195              	.L169:
2109:.\Generated_Source\PSoC4/BLE_eventHandler.c ****                 
2110:.\Generated_Source\PSoC4/BLE_eventHandler.c ****                 #ifdef CYBLE_ANS_CLIENT
2111:.\Generated_Source\PSoC4/BLE_eventHandler.c ****                     case CYBLE_UUID_ALERT_NOTIFICATION_SERVICE:
2112:.\Generated_Source\PSoC4/BLE_eventHandler.c ****                         CyBle_AnscDiscoverCharacteristicsEventHandler(&discCharInfo);
2113:.\Generated_Source\PSoC4/BLE_eventHandler.c ****                         break;
2114:.\Generated_Source\PSoC4/BLE_eventHandler.c ****                 #endif /* CYBLE_ANS_CLIENT */
2115:.\Generated_Source\PSoC4/BLE_eventHandler.c ****                 #ifdef CYBLE_BAS_CLIENT
2116:.\Generated_Source\PSoC4/BLE_eventHandler.c ****                     case CYBLE_UUID_BAS_SERVICE:
2117:.\Generated_Source\PSoC4/BLE_eventHandler.c ****                         CyBle_BascDiscoverCharacteristicsEventHandler(cyBle_disCount - CYBLE_SRVI_B
2118:.\Generated_Source\PSoC4/BLE_eventHandler.c ****                         break;
2119:.\Generated_Source\PSoC4/BLE_eventHandler.c ****                 #endif /* CYBLE_BAS_CLIENT */
2120:.\Generated_Source\PSoC4/BLE_eventHandler.c ****                 #ifdef CYBLE_BCS_CLIENT
2121:.\Generated_Source\PSoC4/BLE_eventHandler.c ****                     case CYBLE_UUID_BODY_COMPOSITION_SERVICE:
2122:.\Generated_Source\PSoC4/BLE_eventHandler.c ****                         CyBle_BcscDiscoverCharacteristicsEventHandler(&discCharInfo);
2123:.\Generated_Source\PSoC4/BLE_eventHandler.c ****                         break;
2124:.\Generated_Source\PSoC4/BLE_eventHandler.c ****                 #endif /* CYBLE_BCS_CLIENT */
2125:.\Generated_Source\PSoC4/BLE_eventHandler.c ****                 #ifdef CYBLE_BLS_CLIENT
2126:.\Generated_Source\PSoC4/BLE_eventHandler.c ****                     case CYBLE_UUID_BLOOD_PRESSURE_SERVICE:
2127:.\Generated_Source\PSoC4/BLE_eventHandler.c ****                         CyBle_BlscDiscoverCharacteristicsEventHandler(&discCharInfo);
2128:.\Generated_Source\PSoC4/BLE_eventHandler.c ****                         break;
2129:.\Generated_Source\PSoC4/BLE_eventHandler.c ****                 #endif /* CYBLE_BLS_CLIENT */
2130:.\Generated_Source\PSoC4/BLE_eventHandler.c ****                 #ifdef CYBLE_BMS_CLIENT
2131:.\Generated_Source\PSoC4/BLE_eventHandler.c ****                     case CYBLE_UUID_BOND_MANAGEMENT_SERVICE:
2132:.\Generated_Source\PSoC4/BLE_eventHandler.c ****                         CyBle_BmscDiscoverCharacteristicsEventHandler(&discCharInfo);
2133:.\Generated_Source\PSoC4/BLE_eventHandler.c ****                         break;
2134:.\Generated_Source\PSoC4/BLE_eventHandler.c ****                 #endif /* CYBLE_BMS_CLIENT */
2135:.\Generated_Source\PSoC4/BLE_eventHandler.c ****                 #ifdef CYBLE_CGMS_CLIENT
2136:.\Generated_Source\PSoC4/BLE_eventHandler.c ****                     case CYBLE_UUID_CGM_SERVICE:
2137:.\Generated_Source\PSoC4/BLE_eventHandler.c ****                         CyBle_CgmscDiscoverCharacteristicsEventHandler(&discCharInfo);
2138:.\Generated_Source\PSoC4/BLE_eventHandler.c ****                         break;
2139:.\Generated_Source\PSoC4/BLE_eventHandler.c ****                 #endif /* CYBLE_CGMS_CLIENT */
2140:.\Generated_Source\PSoC4/BLE_eventHandler.c ****                 #ifdef CYBLE_CPS_CLIENT
2141:.\Generated_Source\PSoC4/BLE_eventHandler.c ****                     case CYBLE_UUID_CPS_SERVICE:
2142:.\Generated_Source\PSoC4/BLE_eventHandler.c ****                         CyBle_CpscDiscoverCharacteristicsEventHandler(&discCharInfo);
2143:.\Generated_Source\PSoC4/BLE_eventHandler.c ****                         break;
2144:.\Generated_Source\PSoC4/BLE_eventHandler.c ****                 #endif /* CYBLE_CPS_CLIENT */
2145:.\Generated_Source\PSoC4/BLE_eventHandler.c ****                 #ifdef CYBLE_CSCS_CLIENT
2146:.\Generated_Source\PSoC4/BLE_eventHandler.c ****                     case CYBLE_UUID_CYCLING_SPEED_AND_CADENCE_SERVICE:
2147:.\Generated_Source\PSoC4/BLE_eventHandler.c ****                         CyBle_CscscDiscoverCharacteristicsEventHandler(&discCharInfo);
2148:.\Generated_Source\PSoC4/BLE_eventHandler.c ****                         break;
2149:.\Generated_Source\PSoC4/BLE_eventHandler.c ****                 #endif /* CYBLE_CSCS_CLIENT */
2150:.\Generated_Source\PSoC4/BLE_eventHandler.c ****                 #ifdef CYBLE_CTS_CLIENT
2151:.\Generated_Source\PSoC4/BLE_eventHandler.c ****                     case CYBLE_UUID_CURRENT_TIME_SERVICE:
2152:.\Generated_Source\PSoC4/BLE_eventHandler.c ****                         CyBle_CtscDiscoverCharacteristicsEventHandler(&discCharInfo);
2153:.\Generated_Source\PSoC4/BLE_eventHandler.c ****                         break;
2154:.\Generated_Source\PSoC4/BLE_eventHandler.c ****                 #endif /* CYBLE_CTS_CLIENT */
2155:.\Generated_Source\PSoC4/BLE_eventHandler.c ****                 
2156:.\Generated_Source\PSoC4/BLE_eventHandler.c ****                 #ifdef CYBLE_DIS_CLIENT
2157:.\Generated_Source\PSoC4/BLE_eventHandler.c ****                     case CYBLE_UUID_DEVICE_INFO_SERVICE:
2158:.\Generated_Source\PSoC4/BLE_eventHandler.c ****                         CyBle_DiscDiscoverCharacteristicsEventHandler(&discCharInfo);
2159:.\Generated_Source\PSoC4/BLE_eventHandler.c ****                         break;
2160:.\Generated_Source\PSoC4/BLE_eventHandler.c ****                 #endif /* CYBLE_DIS_CLIENT */
2161:.\Generated_Source\PSoC4/BLE_eventHandler.c ****                 #ifdef CYBLE_ESS_CLIENT
2162:.\Generated_Source\PSoC4/BLE_eventHandler.c ****                     case CYBLE_UUID_ENVIRONMENTAL_SENSING_SERVICE:
ARM GAS  C:\Users\YBOURA~1\AppData\Local\Temp\cc3HigXd.s 			page 78


2163:.\Generated_Source\PSoC4/BLE_eventHandler.c ****                         CyBle_EsscDiscoverCharacteristicsEventHandler(&discCharInfo);
2164:.\Generated_Source\PSoC4/BLE_eventHandler.c ****                         break;
2165:.\Generated_Source\PSoC4/BLE_eventHandler.c ****                 #endif /* CYBLE_ESS_CLIENT */
2166:.\Generated_Source\PSoC4/BLE_eventHandler.c ****                 #ifdef CYBLE_GLS_CLIENT
2167:.\Generated_Source\PSoC4/BLE_eventHandler.c ****                     case CYBLE_UUID_GLUCOSE_SERVICE:
2168:.\Generated_Source\PSoC4/BLE_eventHandler.c ****                         CyBle_GlscDiscoverCharacteristicsEventHandler(&discCharInfo);
2169:.\Generated_Source\PSoC4/BLE_eventHandler.c ****                         break;
2170:.\Generated_Source\PSoC4/BLE_eventHandler.c ****                 #endif /* CYBLE_GLS_CLIENT */
2171:.\Generated_Source\PSoC4/BLE_eventHandler.c ****                 
2172:.\Generated_Source\PSoC4/BLE_eventHandler.c ****                 #ifdef CYBLE_HIDS_CLIENT
2173:.\Generated_Source\PSoC4/BLE_eventHandler.c ****                     case CYBLE_UUID_HIDS_SERVICE:
2174:.\Generated_Source\PSoC4/BLE_eventHandler.c ****                         CyBle_HidscDiscoverCharacteristicsEventHandler(cyBle_disCount - CYBLE_SRVI_
2175:.\Generated_Source\PSoC4/BLE_eventHandler.c ****                         break;
2176:.\Generated_Source\PSoC4/BLE_eventHandler.c ****                 #endif /* CYBLE_HIDS_CLIENT */
2177:.\Generated_Source\PSoC4/BLE_eventHandler.c ****                 #ifdef CYBLE_HRS_CLIENT
2178:.\Generated_Source\PSoC4/BLE_eventHandler.c ****                     case CYBLE_UUID_HEART_RATE_SERVICE:
2179:.\Generated_Source\PSoC4/BLE_eventHandler.c ****                         CyBle_HrscDiscoverCharacteristicsEventHandler(&discCharInfo);
2180:.\Generated_Source\PSoC4/BLE_eventHandler.c ****                         break;
2181:.\Generated_Source\PSoC4/BLE_eventHandler.c ****                 #endif /* CYBLE_HRS_CLIENT */
2182:.\Generated_Source\PSoC4/BLE_eventHandler.c ****                 #ifdef CYBLE_HTS_CLIENT
2183:.\Generated_Source\PSoC4/BLE_eventHandler.c ****                     case CYBLE_UUID_HEALTH_THERMOMETER_SERVICE:
2184:.\Generated_Source\PSoC4/BLE_eventHandler.c ****                         CyBle_HtscDiscoverCharacteristicsEventHandler(&discCharInfo);
2185:.\Generated_Source\PSoC4/BLE_eventHandler.c ****                         break;
2186:.\Generated_Source\PSoC4/BLE_eventHandler.c ****                 #endif /* CYBLE_HRS_CLIENT */
2187:.\Generated_Source\PSoC4/BLE_eventHandler.c ****                 #ifdef CYBLE_IAS_CLIENT
2188:.\Generated_Source\PSoC4/BLE_eventHandler.c ****                     case CYBLE_UUID_IMMEDIATE_ALERT_SERVICE:
2189:.\Generated_Source\PSoC4/BLE_eventHandler.c ****                         CyBle_IascDiscoverCharacteristicsEventHandler(&discCharInfo);
2190:.\Generated_Source\PSoC4/BLE_eventHandler.c ****                         break;
2191:.\Generated_Source\PSoC4/BLE_eventHandler.c ****                 #endif /* CYBLE_IAS_CLIENT */
2192:.\Generated_Source\PSoC4/BLE_eventHandler.c ****                 #ifdef CYBLE_LLS_CLIENT
2193:.\Generated_Source\PSoC4/BLE_eventHandler.c ****                     case CYBLE_UUID_LINK_LOSS_SERVICE:
2194:.\Generated_Source\PSoC4/BLE_eventHandler.c ****                         CyBle_LlscDiscoverCharacteristicsEventHandler(&discCharInfo);
2195:.\Generated_Source\PSoC4/BLE_eventHandler.c ****                         break;
2196:.\Generated_Source\PSoC4/BLE_eventHandler.c ****                 #endif /* CYBLE_LLS_CLIENT */
2197:.\Generated_Source\PSoC4/BLE_eventHandler.c ****                 #ifdef CYBLE_LNS_CLIENT
2198:.\Generated_Source\PSoC4/BLE_eventHandler.c ****                     case CYBLE_UUID_LOCATION_AND_NAVIGATION_SERVICE:
2199:.\Generated_Source\PSoC4/BLE_eventHandler.c ****                         CyBle_LnscDiscoverCharacteristicsEventHandler(&discCharInfo);
2200:.\Generated_Source\PSoC4/BLE_eventHandler.c ****                         break;
2201:.\Generated_Source\PSoC4/BLE_eventHandler.c ****                 #endif /* CYBLE_LNS_CLIENT */
2202:.\Generated_Source\PSoC4/BLE_eventHandler.c ****                 #ifdef CYBLE_PASS_CLIENT
2203:.\Generated_Source\PSoC4/BLE_eventHandler.c ****                     case CYBLE_UUID_PHONE_ALERT_STATUS_SERVICE:
2204:.\Generated_Source\PSoC4/BLE_eventHandler.c ****                         CyBle_PasscDiscoverCharacteristicsEventHandler(&discCharInfo);
2205:.\Generated_Source\PSoC4/BLE_eventHandler.c ****                         break;
2206:.\Generated_Source\PSoC4/BLE_eventHandler.c ****                 #endif /* CYBLE_PASS_CLIENT */
2207:.\Generated_Source\PSoC4/BLE_eventHandler.c ****                 #ifdef CYBLE_NDCS_CLIENT
2208:.\Generated_Source\PSoC4/BLE_eventHandler.c ****                     case CYBLE_UUID_NEXT_DST_CHANGE_SERVICE:
2209:.\Generated_Source\PSoC4/BLE_eventHandler.c ****                         CyBle_NdcscDiscoverCharacteristicsEventHandler(&discCharInfo);
2210:.\Generated_Source\PSoC4/BLE_eventHandler.c ****                         break;
2211:.\Generated_Source\PSoC4/BLE_eventHandler.c ****                 #endif /* CYBLE_NDCS_CLIENT */
2212:.\Generated_Source\PSoC4/BLE_eventHandler.c ****                 #ifdef CYBLE_RSCS_CLIENT
2213:.\Generated_Source\PSoC4/BLE_eventHandler.c ****                     case CYBLE_UUID_RUNNING_SPEED_AND_CADENCE_SERVICE:
2214:.\Generated_Source\PSoC4/BLE_eventHandler.c ****                         CyBle_RscscDiscoverCharacteristicsEventHandler(&discCharInfo);
2215:.\Generated_Source\PSoC4/BLE_eventHandler.c ****                         break;
2216:.\Generated_Source\PSoC4/BLE_eventHandler.c ****                 #endif /* CYBLE_RSCS_CLIENT */
2217:.\Generated_Source\PSoC4/BLE_eventHandler.c ****                 #ifdef CYBLE_RTUS_CLIENT
2218:.\Generated_Source\PSoC4/BLE_eventHandler.c ****                     case CYBLE_UUID_REF_TIME_UPDATE_SERVICE:
2219:.\Generated_Source\PSoC4/BLE_eventHandler.c ****                         CyBle_RtuscDiscoverCharacteristicsEventHandler(&discCharInfo);
ARM GAS  C:\Users\YBOURA~1\AppData\Local\Temp\cc3HigXd.s 			page 79


2220:.\Generated_Source\PSoC4/BLE_eventHandler.c ****                         break;
2221:.\Generated_Source\PSoC4/BLE_eventHandler.c ****                 #endif /* CYBLE_RTUS_CLIENT */
2222:.\Generated_Source\PSoC4/BLE_eventHandler.c ****                 #ifdef CYBLE_SCPS_CLIENT
2223:.\Generated_Source\PSoC4/BLE_eventHandler.c ****                     case CYBLE_UUID_SCAN_PARAM_SERVICE:
2224:.\Generated_Source\PSoC4/BLE_eventHandler.c ****                         CyBle_ScpscDiscoverCharacteristicsEventHandler(&discCharInfo);
2225:.\Generated_Source\PSoC4/BLE_eventHandler.c ****                         break;
2226:.\Generated_Source\PSoC4/BLE_eventHandler.c ****                 #endif /* CYBLE_SCPS_CLIENT */
2227:.\Generated_Source\PSoC4/BLE_eventHandler.c ****                 #ifdef CYBLE_TPS_CLIENT
2228:.\Generated_Source\PSoC4/BLE_eventHandler.c ****                     case CYBLE_UUID_TX_POWER_SERVICE:
2229:.\Generated_Source\PSoC4/BLE_eventHandler.c ****                         CyBle_TpscDiscoverCharacteristicsEventHandler(&discCharInfo);
2230:.\Generated_Source\PSoC4/BLE_eventHandler.c ****                         break;
2231:.\Generated_Source\PSoC4/BLE_eventHandler.c ****                 #endif /* CYBLE_TPS_CLIENT */
2232:.\Generated_Source\PSoC4/BLE_eventHandler.c ****                 #ifdef CYBLE_UDS_CLIENT
2233:.\Generated_Source\PSoC4/BLE_eventHandler.c ****                     case CYBLE_UUID_USER_DATA_SERVICE:
2234:.\Generated_Source\PSoC4/BLE_eventHandler.c ****                         CyBle_UdscDiscoverCharacteristicsEventHandler(&discCharInfo);
2235:.\Generated_Source\PSoC4/BLE_eventHandler.c ****                         break;
2236:.\Generated_Source\PSoC4/BLE_eventHandler.c ****                 #endif /* CYBLE_UDS_CLIENT */
2237:.\Generated_Source\PSoC4/BLE_eventHandler.c ****                 #ifdef CYBLE_WSS_CLIENT
2238:.\Generated_Source\PSoC4/BLE_eventHandler.c ****                     case CYBLE_UUID_WEIGHT_SCALE_SERVICE:
2239:.\Generated_Source\PSoC4/BLE_eventHandler.c ****                         CyBle_WsscDiscoverCharacteristicsEventHandler(&discCharInfo);
2240:.\Generated_Source\PSoC4/BLE_eventHandler.c ****                         break;
2241:.\Generated_Source\PSoC4/BLE_eventHandler.c ****                 #endif /* CYBLE_WSS_CLIENT */
2242:.\Generated_Source\PSoC4/BLE_eventHandler.c ****                     default:
2243:.\Generated_Source\PSoC4/BLE_eventHandler.c ****                 #ifdef CYBLE_CUSTOM_CLIENT
2244:.\Generated_Source\PSoC4/BLE_eventHandler.c ****                     if((cyBle_disCount >= CYBLE_SRVI_CUSTOMS) && (cyBle_disCount <= CYBLE_SRVI_CUST
 2196              		.loc 1 2244 0
 2197 0160 794B     		ldr	r3, .L173+8
 2198 0162 1B78     		ldrb	r3, [r3]
 2199 0164 012B     		cmp	r3, #1
 2200 0166 0FD9     		bls	.L152
 2201              		.loc 1 2244 0 is_stmt 0 discriminator 1
 2202 0168 774B     		ldr	r3, .L173+8
 2203 016a 1B78     		ldrb	r3, [r3]
 2204 016c 022B     		cmp	r3, #2
 2205 016e 0BD8     		bhi	.L152
2245:.\Generated_Source\PSoC4/BLE_eventHandler.c ****                     {
2246:.\Generated_Source\PSoC4/BLE_eventHandler.c ****                         CyBle_CustomcDiscoverCharacteristicsEventHandler(cyBle_disCount - CYBLE_SRV
 2206              		.loc 1 2246 0 is_stmt 1
 2207 0170 754B     		ldr	r3, .L173+8
 2208 0172 1B78     		ldrb	r3, [r3]
 2209 0174 9BB2     		uxth	r3, r3
 2210 0176 023B     		sub	r3, r3, #2
 2211 0178 9AB2     		uxth	r2, r3
 2212 017a 2423     		mov	r3, #36
 2213 017c FB18     		add	r3, r7, r3
 2214 017e 101C     		mov	r0, r2
 2215 0180 191C     		mov	r1, r3
 2216 0182 FFF7FEFF 		bl	CyBle_CustomcDiscoverCharacteristicsEventHandler
2247:.\Generated_Source\PSoC4/BLE_eventHandler.c ****                     }
2248:.\Generated_Source\PSoC4/BLE_eventHandler.c ****                 #endif /* CYBLE_CUSTOM_CLIENT */
2249:.\Generated_Source\PSoC4/BLE_eventHandler.c ****                         break;
 2217              		.loc 1 2249 0
 2218 0186 FFE7     		b	.L171
 2219              	.L152:
 2220              	.L171:
 2221 0188 C046     		mov	r8, r8
 2222              	.L151:
ARM GAS  C:\Users\YBOURA~1\AppData\Local\Temp\cc3HigXd.s 			page 80


 2223              	.L147:
2250:.\Generated_Source\PSoC4/BLE_eventHandler.c ****                     }
2251:.\Generated_Source\PSoC4/BLE_eventHandler.c ****                 }
2252:.\Generated_Source\PSoC4/BLE_eventHandler.c ****                 else
2253:.\Generated_Source\PSoC4/BLE_eventHandler.c ****                 {
2254:.\Generated_Source\PSoC4/BLE_eventHandler.c ****                     /* Unsupported data length value */
2255:.\Generated_Source\PSoC4/BLE_eventHandler.c ****                 }
2256:.\Generated_Source\PSoC4/BLE_eventHandler.c **** 
2257:.\Generated_Source\PSoC4/BLE_eventHandler.c ****                 /* The sub-procedure is complete when an Error Response is received and the
2258:.\Generated_Source\PSoC4/BLE_eventHandler.c ****                    Error Code is set to an Attribute Not Found or the Read By Type Response has an
2259:.\Generated_Source\PSoC4/BLE_eventHandler.c ****                    Attribute Handle that is equal to the Ending Handle of the request. */
2260:.\Generated_Source\PSoC4/BLE_eventHandler.c ****                 if(discCharInfo.valueHandle == cyBle_serverInfo[cyBle_disCount].range.endHandle)
 2224              		.loc 1 2260 0
 2225 018a 2423     		mov	r3, #36
 2226 018c FB18     		add	r3, r7, r3
 2227 018e 9A88     		ldrh	r2, [r3, #4]
 2228 0190 6D4B     		ldr	r3, .L173+8
 2229 0192 1B78     		ldrb	r3, [r3]
 2230 0194 181C     		mov	r0, r3
 2231 0196 6D49     		ldr	r1, .L173+12
 2232 0198 031C     		mov	r3, r0
 2233 019a 5B00     		lsl	r3, r3, #1
 2234 019c 1B18     		add	r3, r3, r0
 2235 019e 5B00     		lsl	r3, r3, #1
 2236 01a0 CB18     		add	r3, r1, r3
 2237 01a2 5B88     		ldrh	r3, [r3, #2]
 2238 01a4 9A42     		cmp	r2, r3
 2239 01a6 02D1     		bne	.L153
2261:.\Generated_Source\PSoC4/BLE_eventHandler.c ****                 {
2262:.\Generated_Source\PSoC4/BLE_eventHandler.c ****                     CyBle_NextCharDiscovery(CYBLE_DISCOVERY_CONTINUE);
 2240              		.loc 1 2262 0
 2241 01a8 0120     		mov	r0, #1
 2242 01aa FFF7FEFF 		bl	CyBle_NextCharDiscovery
 2243              	.L153:
2263:.\Generated_Source\PSoC4/BLE_eventHandler.c ****                 }
2264:.\Generated_Source\PSoC4/BLE_eventHandler.c **** 
2265:.\Generated_Source\PSoC4/BLE_eventHandler.c ****                 cyBle_eventHandlerFlag &= (uint8)~CYBLE_CALLBACK;
 2244              		.loc 1 2265 0 discriminator 2
 2245 01ae 644B     		ldr	r3, .L173
 2246 01b0 1B78     		ldrb	r3, [r3]
 2247 01b2 DBB2     		uxtb	r3, r3
 2248 01b4 0122     		mov	r2, #1
 2249 01b6 9343     		bic	r3, r2
 2250 01b8 DAB2     		uxtb	r2, r3
 2251 01ba 614B     		ldr	r3, .L173
 2252 01bc 1A70     		strb	r2, [r3]
2054:.\Generated_Source\PSoC4/BLE_eventHandler.c ****             {
 2253              		.loc 1 2054 0 discriminator 2
 2254 01be 4623     		mov	r3, #70
 2255 01c0 FB18     		add	r3, r7, r3
 2256 01c2 4622     		mov	r2, #70
 2257 01c4 B918     		add	r1, r7, r2
 2258 01c6 3E22     		mov	r2, #62
 2259 01c8 BA18     		add	r2, r7, r2
 2260 01ca 0988     		ldrh	r1, [r1]
 2261 01cc 1288     		ldrh	r2, [r2]
 2262 01ce 8A18     		add	r2, r1, r2
ARM GAS  C:\Users\YBOURA~1\AppData\Local\Temp\cc3HigXd.s 			page 81


 2263 01d0 1A80     		strh	r2, [r3]
 2264              	.L141:
2054:.\Generated_Source\PSoC4/BLE_eventHandler.c ****             {
 2265              		.loc 1 2054 0 is_stmt 0 discriminator 1
 2266 01d2 4623     		mov	r3, #70
 2267 01d4 FA18     		add	r2, r7, r3
 2268 01d6 3C23     		mov	r3, #60
 2269 01d8 FB18     		add	r3, r7, r3
 2270 01da 1288     		ldrh	r2, [r2]
 2271 01dc 1B88     		ldrh	r3, [r3]
 2272 01de 9A42     		cmp	r2, r3
 2273 01e0 00D2     		bcs	.LCB1957
 2274 01e2 30E7     		b	.L154	@long jump
 2275              	.LCB1957:
 2276              	.LBE6:
 2277 01e4 0BE1     		b	.L138
 2278              	.L140:
2266:.\Generated_Source\PSoC4/BLE_eventHandler.c ****             }
2267:.\Generated_Source\PSoC4/BLE_eventHandler.c ****         }
2268:.\Generated_Source\PSoC4/BLE_eventHandler.c ****         else if(CYBLE_CLIENT_STATE_INCL_DISCOVERING == CyBle_GetClientState())
 2279              		.loc 1 2268 0 is_stmt 1
 2280 01e6 574B     		ldr	r3, .L173+4
 2281 01e8 1B78     		ldrb	r3, [r3]
 2282 01ea 022B     		cmp	r3, #2
 2283 01ec 00D0     		beq	.LCB1966
 2284 01ee 06E1     		b	.L138	@long jump
 2285              	.LCB1966:
 2286              	.LBB7:
2269:.\Generated_Source\PSoC4/BLE_eventHandler.c ****         {
2270:.\Generated_Source\PSoC4/BLE_eventHandler.c ****             CYBLE_DISC_INCL_INFO_T discInclInfo;
2271:.\Generated_Source\PSoC4/BLE_eventHandler.c ****             
2272:.\Generated_Source\PSoC4/BLE_eventHandler.c ****             for(i = 0; i < attrLength; i += dataLength)
 2287              		.loc 1 2272 0
 2288 01f0 4623     		mov	r3, #70
 2289 01f2 FB18     		add	r3, r7, r3
 2290 01f4 0022     		mov	r2, #0
 2291 01f6 1A80     		strh	r2, [r3]
 2292 01f8 F8E0     		b	.L155
 2293              	.L168:
2273:.\Generated_Source\PSoC4/BLE_eventHandler.c ****             {
2274:.\Generated_Source\PSoC4/BLE_eventHandler.c ****                 discInclInfo.inclDefHandle = CyBle_Get16ByPtr(attrVal);
 2294              		.loc 1 2274 0
 2295 01fa 3B6C     		ldr	r3, [r7, #64]
 2296 01fc 181C     		mov	r0, r3
 2297 01fe FFF7FEFF 		bl	CyBle_Get16ByPtr
 2298 0202 031C     		mov	r3, r0
 2299 0204 1A1C     		mov	r2, r3
 2300 0206 0C23     		mov	r3, #12
 2301 0208 FB18     		add	r3, r7, r3
 2302 020a 1A80     		strh	r2, [r3]
2275:.\Generated_Source\PSoC4/BLE_eventHandler.c ****                 attrVal += sizeof(discInclInfo.inclDefHandle);
 2303              		.loc 1 2275 0
 2304 020c 3B6C     		ldr	r3, [r7, #64]
 2305 020e 0233     		add	r3, r3, #2
 2306 0210 3B64     		str	r3, [r7, #64]
2276:.\Generated_Source\PSoC4/BLE_eventHandler.c ****                 discInclInfo.inclHandleRange.startHandle = CyBle_Get16ByPtr(attrVal);
 2307              		.loc 1 2276 0
ARM GAS  C:\Users\YBOURA~1\AppData\Local\Temp\cc3HigXd.s 			page 82


 2308 0212 3B6C     		ldr	r3, [r7, #64]
 2309 0214 181C     		mov	r0, r3
 2310 0216 FFF7FEFF 		bl	CyBle_Get16ByPtr
 2311 021a 031C     		mov	r3, r0
 2312 021c 1A1C     		mov	r2, r3
 2313 021e 0C23     		mov	r3, #12
 2314 0220 FB18     		add	r3, r7, r3
 2315 0222 5A80     		strh	r2, [r3, #2]
2277:.\Generated_Source\PSoC4/BLE_eventHandler.c ****                 attrVal += sizeof(discInclInfo.inclHandleRange.startHandle);
 2316              		.loc 1 2277 0
 2317 0224 3B6C     		ldr	r3, [r7, #64]
 2318 0226 0233     		add	r3, r3, #2
 2319 0228 3B64     		str	r3, [r7, #64]
2278:.\Generated_Source\PSoC4/BLE_eventHandler.c ****                 discInclInfo.inclHandleRange.endHandle = CyBle_Get16ByPtr(attrVal);
 2320              		.loc 1 2278 0
 2321 022a 3B6C     		ldr	r3, [r7, #64]
 2322 022c 181C     		mov	r0, r3
 2323 022e FFF7FEFF 		bl	CyBle_Get16ByPtr
 2324 0232 031C     		mov	r3, r0
 2325 0234 1A1C     		mov	r2, r3
 2326 0236 0C23     		mov	r3, #12
 2327 0238 FB18     		add	r3, r7, r3
 2328 023a 9A80     		strh	r2, [r3, #4]
2279:.\Generated_Source\PSoC4/BLE_eventHandler.c ****                 attrVal += sizeof(discInclInfo.inclHandleRange.endHandle);
 2329              		.loc 1 2279 0
 2330 023c 3B6C     		ldr	r3, [r7, #64]
 2331 023e 0233     		add	r3, r3, #2
 2332 0240 3B64     		str	r3, [r7, #64]
2280:.\Generated_Source\PSoC4/BLE_eventHandler.c **** 
2281:.\Generated_Source\PSoC4/BLE_eventHandler.c ****                 if(dataLength == CYBLE_DISC_INCL_INFO_128_LEN)
 2333              		.loc 1 2281 0
 2334 0242 3E23     		mov	r3, #62
 2335 0244 FB18     		add	r3, r7, r3
 2336 0246 1B88     		ldrh	r3, [r3]
 2337 0248 062B     		cmp	r3, #6
 2338 024a 30D1     		bne	.L156
2282:.\Generated_Source\PSoC4/BLE_eventHandler.c ****                 {
2283:.\Generated_Source\PSoC4/BLE_eventHandler.c ****                     discInclInfo.uuidFormat = CYBLE_GATT_128_BIT_UUID_FORMAT;
 2339              		.loc 1 2283 0
 2340 024c 0C23     		mov	r3, #12
 2341 024e FB18     		add	r3, r7, r3
 2342 0250 0222     		mov	r2, #2
 2343 0252 9A75     		strb	r2, [r3, #22]
2284:.\Generated_Source\PSoC4/BLE_eventHandler.c ****                     /* Only custom service supports 128-bit uuid */
2285:.\Generated_Source\PSoC4/BLE_eventHandler.c ****                 #ifdef CYBLE_CUSTOM_CLIENT
2286:.\Generated_Source\PSoC4/BLE_eventHandler.c ****                     /* Stop ongoing GATT operation */
2287:.\Generated_Source\PSoC4/BLE_eventHandler.c ****                     CyBle_GattcStopCmd();
 2344              		.loc 1 2287 0
 2345 0254 FFF7FEFF 		bl	CyBle_GattcStopCmd
2288:.\Generated_Source\PSoC4/BLE_eventHandler.c ****                     /* Get the included service UUID when the included service uses a 128-bit
2289:.\Generated_Source\PSoC4/BLE_eventHandler.c ****                        UUID, the Read Request is used. The Attribute Handle for the Read Request is
2290:.\Generated_Source\PSoC4/BLE_eventHandler.c ****                        the Attribute Handle of the included service.
2291:.\Generated_Source\PSoC4/BLE_eventHandler.c ****                     */
2292:.\Generated_Source\PSoC4/BLE_eventHandler.c ****                     if(CYBLE_ERROR_OK == CyBle_GattcReadCharacteristicValue(cyBle_connHandle, 
 2346              		.loc 1 2292 0
 2347 0258 0C23     		mov	r3, #12
 2348 025a FB18     		add	r3, r7, r3
ARM GAS  C:\Users\YBOURA~1\AppData\Local\Temp\cc3HigXd.s 			page 83


 2349 025c 5988     		ldrh	r1, [r3, #2]
 2350 025e 3E4B     		ldr	r3, .L173+24
 2351 0260 1A78     		ldrb	r2, [r3]
 2352 0262 5B78     		ldrb	r3, [r3, #1]
 2353 0264 1B02     		lsl	r3, r3, #8
 2354 0266 1A43     		orr	r2, r3
 2355 0268 0023     		mov	r3, #0
 2356 026a 1204     		lsl	r2, r2, #16
 2357 026c 120C     		lsr	r2, r2, #16
 2358 026e 1B0C     		lsr	r3, r3, #16
 2359 0270 1B04     		lsl	r3, r3, #16
 2360 0272 1343     		orr	r3, r2
 2361 0274 181C     		mov	r0, r3
 2362 0276 FFF7FEFF 		bl	CyBle_GattcReadCharacteristicValue
 2363 027a 031E     		sub	r3, r0, #0
 2364 027c 07D1     		bne	.L157
2293:.\Generated_Source\PSoC4/BLE_eventHandler.c ****                                             discInclInfo.inclHandleRange.startHandle))
2294:.\Generated_Source\PSoC4/BLE_eventHandler.c ****                     {
2295:.\Generated_Source\PSoC4/BLE_eventHandler.c ****                         /* Save handle to support read response from device */
2296:.\Generated_Source\PSoC4/BLE_eventHandler.c ****                         cyBle_discInclInfo = discInclInfo;
 2365              		.loc 1 2296 0
 2366 027e 374B     		ldr	r3, .L173+28
 2367 0280 0C22     		mov	r2, #12
 2368 0282 BA18     		add	r2, r7, r2
 2369 0284 13CA     		ldmia	r2!, {r0, r1, r4}
 2370 0286 13C3     		stmia	r3!, {r0, r1, r4}
 2371 0288 13CA     		ldmia	r2!, {r0, r1, r4}
 2372 028a 13C3     		stmia	r3!, {r0, r1, r4}
 2373 028c 86E0     		b	.L159
 2374              	.L157:
2297:.\Generated_Source\PSoC4/BLE_eventHandler.c ****                     }
2298:.\Generated_Source\PSoC4/BLE_eventHandler.c ****                     else
2299:.\Generated_Source\PSoC4/BLE_eventHandler.c ****                     {
2300:.\Generated_Source\PSoC4/BLE_eventHandler.c ****                         CyBle_ApplCallback(CYBLE_EVT_GATTC_INCL_DISCOVERY_FAILED, NULL);
 2375              		.loc 1 2300 0
 2376 028e 344B     		ldr	r3, .L173+32
 2377 0290 1B68     		ldr	r3, [r3]
 2378 0292 8422     		mov	r2, #132
 2379 0294 5200     		lsl	r2, r2, #1
 2380 0296 101C     		mov	r0, r2
 2381 0298 0021     		mov	r1, #0
 2382 029a 9847     		blx	r3
2301:.\Generated_Source\PSoC4/BLE_eventHandler.c ****                         cyBle_eventHandlerFlag &= (uint8)~CYBLE_AUTO_DISCOVERY;
 2383              		.loc 1 2301 0
 2384 029c 284B     		ldr	r3, .L173
 2385 029e 1B78     		ldrb	r3, [r3]
 2386 02a0 DBB2     		uxtb	r3, r3
 2387 02a2 0222     		mov	r2, #2
 2388 02a4 9343     		bic	r3, r2
 2389 02a6 DAB2     		uxtb	r2, r3
 2390 02a8 254B     		ldr	r3, .L173
 2391 02aa 1A70     		strb	r2, [r3]
 2392 02ac 76E0     		b	.L159
 2393              	.L156:
2302:.\Generated_Source\PSoC4/BLE_eventHandler.c ****                     }
2303:.\Generated_Source\PSoC4/BLE_eventHandler.c ****                 #endif /* CYBLE_CUSTOM_CLIENT */
2304:.\Generated_Source\PSoC4/BLE_eventHandler.c ****                 }
ARM GAS  C:\Users\YBOURA~1\AppData\Local\Temp\cc3HigXd.s 			page 84


2305:.\Generated_Source\PSoC4/BLE_eventHandler.c ****                 else if(dataLength == CYBLE_DISC_INCL_INFO_LEN)
 2394              		.loc 1 2305 0
 2395 02ae 3E23     		mov	r3, #62
 2396 02b0 FB18     		add	r3, r7, r3
 2397 02b2 1B88     		ldrh	r3, [r3]
 2398 02b4 082B     		cmp	r3, #8
 2399 02b6 00D0     		beq	.LCB2070
 2400 02b8 70E0     		b	.L159	@long jump
 2401              	.LCB2070:
2306:.\Generated_Source\PSoC4/BLE_eventHandler.c ****                 {
2307:.\Generated_Source\PSoC4/BLE_eventHandler.c ****                     discInclInfo.uuidFormat = CYBLE_GATT_16_BIT_UUID_FORMAT;
 2402              		.loc 1 2307 0
 2403 02ba 0C23     		mov	r3, #12
 2404 02bc FB18     		add	r3, r7, r3
 2405 02be 0122     		mov	r2, #1
 2406 02c0 9A75     		strb	r2, [r3, #22]
2308:.\Generated_Source\PSoC4/BLE_eventHandler.c ****                     discInclInfo.uuid.uuid16 = CyBle_Get16ByPtr(attrVal);
 2407              		.loc 1 2308 0
 2408 02c2 3B6C     		ldr	r3, [r7, #64]
 2409 02c4 181C     		mov	r0, r3
 2410 02c6 FFF7FEFF 		bl	CyBle_Get16ByPtr
 2411 02ca 031C     		mov	r3, r0
 2412 02cc 1A1C     		mov	r2, r3
 2413 02ce 0C23     		mov	r3, #12
 2414 02d0 FB18     		add	r3, r7, r3
 2415 02d2 DA80     		strh	r2, [r3, #6]
2309:.\Generated_Source\PSoC4/BLE_eventHandler.c ****                     attrVal += CYBLE_GATT_16_BIT_UUID_SIZE;
 2416              		.loc 1 2309 0
 2417 02d4 3B6C     		ldr	r3, [r7, #64]
 2418 02d6 0233     		add	r3, r3, #2
 2419 02d8 3B64     		str	r3, [r7, #64]
2310:.\Generated_Source\PSoC4/BLE_eventHandler.c ****                     
2311:.\Generated_Source\PSoC4/BLE_eventHandler.c ****                     /* Store range of included service in list of services for discovery */
2312:.\Generated_Source\PSoC4/BLE_eventHandler.c ****                     for(j = 0u; j < (uint8) CYBLE_SRVI_COUNT; j++)
 2420              		.loc 1 2312 0
 2421 02da 4423     		mov	r3, #68
 2422 02dc FB18     		add	r3, r7, r3
 2423 02de 0022     		mov	r2, #0
 2424 02e0 1A80     		strh	r2, [r3]
 2425 02e2 46E0     		b	.L160
 2426              	.L163:
2313:.\Generated_Source\PSoC4/BLE_eventHandler.c ****                     {
2314:.\Generated_Source\PSoC4/BLE_eventHandler.c ****                         if(cyBle_serverInfo[j].uuid == discInclInfo.uuid.uuid16)
 2427              		.loc 1 2314 0
 2428 02e4 4423     		mov	r3, #68
 2429 02e6 FB18     		add	r3, r7, r3
 2430 02e8 1A88     		ldrh	r2, [r3]
 2431 02ea 1849     		ldr	r1, .L173+12
 2432 02ec 131C     		mov	r3, r2
 2433 02ee 5B00     		lsl	r3, r3, #1
 2434 02f0 9B18     		add	r3, r3, r2
 2435 02f2 5B00     		lsl	r3, r3, #1
 2436 02f4 CB18     		add	r3, r1, r3
 2437 02f6 9A88     		ldrh	r2, [r3, #4]
 2438 02f8 0C23     		mov	r3, #12
 2439 02fa FB18     		add	r3, r7, r3
 2440 02fc DB88     		ldrh	r3, [r3, #6]
ARM GAS  C:\Users\YBOURA~1\AppData\Local\Temp\cc3HigXd.s 			page 85


 2441 02fe 9A42     		cmp	r2, r3
 2442 0300 30D1     		bne	.L161
2315:.\Generated_Source\PSoC4/BLE_eventHandler.c ****                         {
2316:.\Generated_Source\PSoC4/BLE_eventHandler.c ****                             if(cyBle_serverInfo[j].range.startHandle == CYBLE_GATT_INVALID_ATTR_HAN
 2443              		.loc 1 2316 0
 2444 0302 4423     		mov	r3, #68
 2445 0304 FB18     		add	r3, r7, r3
 2446 0306 1A88     		ldrh	r2, [r3]
 2447 0308 1049     		ldr	r1, .L173+12
 2448 030a 131C     		mov	r3, r2
 2449 030c 5B00     		lsl	r3, r3, #1
 2450 030e 9B18     		add	r3, r3, r2
 2451 0310 5B00     		lsl	r3, r3, #1
 2452 0312 5B5A     		ldrh	r3, [r3, r1]
 2453 0314 002B     		cmp	r3, #0
 2454 0316 25D1     		bne	.L161
2317:.\Generated_Source\PSoC4/BLE_eventHandler.c ****                             {
2318:.\Generated_Source\PSoC4/BLE_eventHandler.c ****                                 cyBle_serverInfo[j].range = discInclInfo.inclHandleRange;
 2455              		.loc 1 2318 0
 2456 0318 4423     		mov	r3, #68
 2457 031a FB18     		add	r3, r7, r3
 2458 031c 1A88     		ldrh	r2, [r3]
 2459 031e 0B49     		ldr	r1, .L173+12
 2460 0320 131C     		mov	r3, r2
 2461 0322 5B00     		lsl	r3, r3, #1
 2462 0324 9B18     		add	r3, r3, r2
 2463 0326 5B00     		lsl	r3, r3, #1
 2464 0328 0C22     		mov	r2, #12
 2465 032a BA18     		add	r2, r7, r2
 2466 032c 0220     		mov	r0, #2
 2467 032e C918     		add	r1, r1, r3
 2468 0330 1318     		add	r3, r2, r0
 2469 0332 0422     		mov	r2, #4
 2470 0334 081C     		mov	r0, r1
 2471 0336 191C     		mov	r1, r3
 2472 0338 FFF7FEFF 		bl	memcpy
2319:.\Generated_Source\PSoC4/BLE_eventHandler.c ****                                 break;
 2473              		.loc 1 2319 0
 2474 033c 1EE0     		b	.L162
 2475              	.L174:
 2476 033e C046     		.align	2
 2477              	.L173:
 2478 0340 00000000 		.word	cyBle_eventHandlerFlag
 2479 0344 00000000 		.word	cyBle_clientState
 2480 0348 00000000 		.word	cyBle_disCount
 2481 034c 00000000 		.word	cyBle_serverInfo
 2482 0350 FEFF0000 		.word	65534
 2483 0354 01180000 		.word	6145
 2484 0358 00000000 		.word	cyBle_connHandle
 2485 035c 04000000 		.word	cyBle_discInclInfo
 2486 0360 00000000 		.word	CyBle_ApplCallback
 2487              	.L161:
2312:.\Generated_Source\PSoC4/BLE_eventHandler.c ****                     {
 2488              		.loc 1 2312 0 discriminator 2
 2489 0364 4423     		mov	r3, #68
 2490 0366 FB18     		add	r3, r7, r3
 2491 0368 1A88     		ldrh	r2, [r3]
ARM GAS  C:\Users\YBOURA~1\AppData\Local\Temp\cc3HigXd.s 			page 86


 2492 036a 4423     		mov	r3, #68
 2493 036c FB18     		add	r3, r7, r3
 2494 036e 0132     		add	r2, r2, #1
 2495 0370 1A80     		strh	r2, [r3]
 2496              	.L160:
2312:.\Generated_Source\PSoC4/BLE_eventHandler.c ****                     {
 2497              		.loc 1 2312 0 is_stmt 0 discriminator 1
 2498 0372 4423     		mov	r3, #68
 2499 0374 FB18     		add	r3, r7, r3
 2500 0376 1B88     		ldrh	r3, [r3]
 2501 0378 022B     		cmp	r3, #2
 2502 037a B3D9     		bls	.L163
 2503              	.L162:
2320:.\Generated_Source\PSoC4/BLE_eventHandler.c ****                             }
2321:.\Generated_Source\PSoC4/BLE_eventHandler.c ****                         }
2322:.\Generated_Source\PSoC4/BLE_eventHandler.c ****                     }
2323:.\Generated_Source\PSoC4/BLE_eventHandler.c **** 
2324:.\Generated_Source\PSoC4/BLE_eventHandler.c ****                     /* Switch by service uuid */
2325:.\Generated_Source\PSoC4/BLE_eventHandler.c ****                     switch (cyBle_serverInfo[cyBle_disCount].uuid)
 2504              		.loc 1 2325 0 is_stmt 1
 2505 037c 214B     		ldr	r3, .L175
 2506 037e 1B78     		ldrb	r3, [r3]
 2507 0380 191C     		mov	r1, r3
 2508 0382 214A     		ldr	r2, .L175+4
 2509 0384 0B1C     		mov	r3, r1
 2510 0386 5B00     		lsl	r3, r3, #1
 2511 0388 5B18     		add	r3, r3, r1
 2512 038a 5B00     		lsl	r3, r3, #1
 2513 038c D318     		add	r3, r2, r3
 2514 038e 9B88     		ldrh	r3, [r3, #4]
 2515 0390 1A1E     		sub	r2, r3, #0
 2516 0392 1E4B     		ldr	r3, .L175+8
 2517 0394 9A42     		cmp	r2, r3
 2518 0396 00D0     		beq	.L172
2326:.\Generated_Source\PSoC4/BLE_eventHandler.c ****                     {
2327:.\Generated_Source\PSoC4/BLE_eventHandler.c ****                         case CYBLE_UUID_HIDS_SERVICE:
2328:.\Generated_Source\PSoC4/BLE_eventHandler.c ****                         #ifdef CYBLE_HIDS_CLIENT    
2329:.\Generated_Source\PSoC4/BLE_eventHandler.c ****                             CyBle_HidscInclDiscoveryEventHandler(cyBle_disCount - CYBLE_SRVI_HIDS, 
2330:.\Generated_Source\PSoC4/BLE_eventHandler.c ****                         #endif /* CYBLE_HIDS_CLIENT */
2331:.\Generated_Source\PSoC4/BLE_eventHandler.c ****                             break;
2332:.\Generated_Source\PSoC4/BLE_eventHandler.c ****                     /* other services */
2333:.\Generated_Source\PSoC4/BLE_eventHandler.c **** 
2334:.\Generated_Source\PSoC4/BLE_eventHandler.c ****                     default:
2335:.\Generated_Source\PSoC4/BLE_eventHandler.c ****                         break;
 2519              		.loc 1 2335 0
 2520 0398 00E0     		b	.L166
 2521              	.L172:
2331:.\Generated_Source\PSoC4/BLE_eventHandler.c ****                     /* other services */
 2522              		.loc 1 2331 0
 2523 039a C046     		mov	r8, r8
 2524              	.L166:
 2525              	.L159:
2336:.\Generated_Source\PSoC4/BLE_eventHandler.c ****                     }
2337:.\Generated_Source\PSoC4/BLE_eventHandler.c ****                 }
2338:.\Generated_Source\PSoC4/BLE_eventHandler.c ****                 else
2339:.\Generated_Source\PSoC4/BLE_eventHandler.c ****                 {
2340:.\Generated_Source\PSoC4/BLE_eventHandler.c ****                     /* Unsupported data length value */
ARM GAS  C:\Users\YBOURA~1\AppData\Local\Temp\cc3HigXd.s 			page 87


2341:.\Generated_Source\PSoC4/BLE_eventHandler.c ****                 }
2342:.\Generated_Source\PSoC4/BLE_eventHandler.c ****                 /* The sub-procedure is complete when an Error Response is received and the
2343:.\Generated_Source\PSoC4/BLE_eventHandler.c ****                    Error Code is set to an Attribute Not Found or the Read By Type Response has an
2344:.\Generated_Source\PSoC4/BLE_eventHandler.c ****                    Attribute Handle that is equal to the Ending Handle of the request. 
2345:.\Generated_Source\PSoC4/BLE_eventHandler.c ****                    Not complete when Read Request is sent to read 128-bit UUID.
2346:.\Generated_Source\PSoC4/BLE_eventHandler.c ****                 */
2347:.\Generated_Source\PSoC4/BLE_eventHandler.c ****                 if((discInclInfo.inclDefHandle == cyBle_serverInfo[cyBle_disCount].range.endHandle)
 2526              		.loc 1 2347 0
 2527 039c 0C23     		mov	r3, #12
 2528 039e FB18     		add	r3, r7, r3
 2529 03a0 1A88     		ldrh	r2, [r3]
 2530 03a2 184B     		ldr	r3, .L175
 2531 03a4 1B78     		ldrb	r3, [r3]
 2532 03a6 181C     		mov	r0, r3
 2533 03a8 1749     		ldr	r1, .L175+4
 2534 03aa 031C     		mov	r3, r0
 2535 03ac 5B00     		lsl	r3, r3, #1
 2536 03ae 1B18     		add	r3, r3, r0
 2537 03b0 5B00     		lsl	r3, r3, #1
 2538 03b2 CB18     		add	r3, r1, r3
 2539 03b4 5B88     		ldrh	r3, [r3, #2]
 2540 03b6 9A42     		cmp	r2, r3
 2541 03b8 06D1     		bne	.L167
2348:.\Generated_Source\PSoC4/BLE_eventHandler.c ****                    (cyBle_discInclInfo.inclDefHandle != 0u))
 2542              		.loc 1 2348 0 discriminator 1
 2543 03ba 154B     		ldr	r3, .L175+12
 2544 03bc 1B88     		ldrh	r3, [r3]
2347:.\Generated_Source\PSoC4/BLE_eventHandler.c ****                    (cyBle_discInclInfo.inclDefHandle != 0u))
 2545              		.loc 1 2347 0 discriminator 1
 2546 03be 002B     		cmp	r3, #0
 2547 03c0 02D0     		beq	.L167
2349:.\Generated_Source\PSoC4/BLE_eventHandler.c ****                 {
2350:.\Generated_Source\PSoC4/BLE_eventHandler.c ****                     CyBle_NextInclDiscovery(CYBLE_DISCOVERY_CONTINUE);
 2548              		.loc 1 2350 0
 2549 03c2 0120     		mov	r0, #1
 2550 03c4 FFF7FEFF 		bl	CyBle_NextInclDiscovery
 2551              	.L167:
2351:.\Generated_Source\PSoC4/BLE_eventHandler.c ****                 }
2352:.\Generated_Source\PSoC4/BLE_eventHandler.c ****                 cyBle_eventHandlerFlag &= (uint8)~CYBLE_CALLBACK;
 2552              		.loc 1 2352 0 discriminator 2
 2553 03c8 124B     		ldr	r3, .L175+16
 2554 03ca 1B78     		ldrb	r3, [r3]
 2555 03cc DBB2     		uxtb	r3, r3
 2556 03ce 0122     		mov	r2, #1
 2557 03d0 9343     		bic	r3, r2
 2558 03d2 DAB2     		uxtb	r2, r3
 2559 03d4 0F4B     		ldr	r3, .L175+16
 2560 03d6 1A70     		strb	r2, [r3]
2272:.\Generated_Source\PSoC4/BLE_eventHandler.c ****             {
 2561              		.loc 1 2272 0 discriminator 2
 2562 03d8 4623     		mov	r3, #70
 2563 03da FB18     		add	r3, r7, r3
 2564 03dc 4622     		mov	r2, #70
 2565 03de B918     		add	r1, r7, r2
 2566 03e0 3E22     		mov	r2, #62
 2567 03e2 BA18     		add	r2, r7, r2
 2568 03e4 0988     		ldrh	r1, [r1]
ARM GAS  C:\Users\YBOURA~1\AppData\Local\Temp\cc3HigXd.s 			page 88


 2569 03e6 1288     		ldrh	r2, [r2]
 2570 03e8 8A18     		add	r2, r1, r2
 2571 03ea 1A80     		strh	r2, [r3]
 2572              	.L155:
2272:.\Generated_Source\PSoC4/BLE_eventHandler.c ****             {
 2573              		.loc 1 2272 0 is_stmt 0 discriminator 1
 2574 03ec 4623     		mov	r3, #70
 2575 03ee FA18     		add	r2, r7, r3
 2576 03f0 3C23     		mov	r3, #60
 2577 03f2 FB18     		add	r3, r7, r3
 2578 03f4 1288     		ldrh	r2, [r2]
 2579 03f6 1B88     		ldrh	r3, [r3]
 2580 03f8 9A42     		cmp	r2, r3
 2581 03fa 00D2     		bcs	.LCB2243
 2582 03fc FDE6     		b	.L168	@long jump
 2583              	.LCB2243:
 2584              	.L138:
 2585              	.LBE7:
2353:.\Generated_Source\PSoC4/BLE_eventHandler.c ****             }
2354:.\Generated_Source\PSoC4/BLE_eventHandler.c ****         }
2355:.\Generated_Source\PSoC4/BLE_eventHandler.c ****         else
2356:.\Generated_Source\PSoC4/BLE_eventHandler.c ****         {
2357:.\Generated_Source\PSoC4/BLE_eventHandler.c ****             /* Unhandled state value */
2358:.\Generated_Source\PSoC4/BLE_eventHandler.c ****         }
2359:.\Generated_Source\PSoC4/BLE_eventHandler.c ****     }
2360:.\Generated_Source\PSoC4/BLE_eventHandler.c **** }
 2586              		.loc 1 2360 0 is_stmt 1
 2587 03fe BD46     		mov	sp, r7
 2588 0400 13B0     		add	sp, sp, #76
 2589              		@ sp needed
 2590 0402 90BD     		pop	{r4, r7, pc}
 2591              	.L176:
 2592              		.align	2
 2593              	.L175:
 2594 0404 00000000 		.word	cyBle_disCount
 2595 0408 00000000 		.word	cyBle_serverInfo
 2596 040c 12180000 		.word	6162
 2597 0410 04000000 		.word	cyBle_discInclInfo
 2598 0414 00000000 		.word	cyBle_eventHandlerFlag
 2599              		.cfi_endproc
 2600              	.LFE18:
 2601              		.size	CyBle_ReadByTypeEventHandler, .-CyBle_ReadByTypeEventHandler
 2602              		.section	.text.CyBle_NextCharDiscovery,"ax",%progbits
 2603              		.align	2
 2604              		.global	CyBle_NextCharDiscovery
 2605              		.code	16
 2606              		.thumb_func
 2607              		.type	CyBle_NextCharDiscovery, %function
 2608              	CyBle_NextCharDiscovery:
 2609              	.LFB19:
2361:.\Generated_Source\PSoC4/BLE_eventHandler.c **** 
2362:.\Generated_Source\PSoC4/BLE_eventHandler.c **** 
2363:.\Generated_Source\PSoC4/BLE_eventHandler.c **** /****************************************************************************** 
2364:.\Generated_Source\PSoC4/BLE_eventHandler.c **** * Function Name: CyBle_NextCharDiscovery
2365:.\Generated_Source\PSoC4/BLE_eventHandler.c **** ***************************************************************************//**
2366:.\Generated_Source\PSoC4/BLE_eventHandler.c **** * 
2367:.\Generated_Source\PSoC4/BLE_eventHandler.c **** *  Looks for a characteristic handle range for the current service (pointed by
ARM GAS  C:\Users\YBOURA~1\AppData\Local\Temp\cc3HigXd.s 			page 89


2368:.\Generated_Source\PSoC4/BLE_eventHandler.c **** *   cyBle_disCount). If the current range is invalid (any of start or end
2369:.\Generated_Source\PSoC4/BLE_eventHandler.c **** *   handles is invalid), then increment the cyBle_disCount and check
2370:.\Generated_Source\PSoC4/BLE_eventHandler.c **** *   the next service range and does so until a valid range is caught or the end
2371:.\Generated_Source\PSoC4/BLE_eventHandler.c **** *   of the service set is reached.
2372:.\Generated_Source\PSoC4/BLE_eventHandler.c **** * 
2373:.\Generated_Source\PSoC4/BLE_eventHandler.c **** *  \param incrementIndex: Not zero value indicates that characteristic index should be 
2374:.\Generated_Source\PSoC4/BLE_eventHandler.c **** *                         sincremented.
2375:.\Generated_Source\PSoC4/BLE_eventHandler.c **** * 
2376:.\Generated_Source\PSoC4/BLE_eventHandler.c **** * \return
2377:.\Generated_Source\PSoC4/BLE_eventHandler.c **** *  None.
2378:.\Generated_Source\PSoC4/BLE_eventHandler.c **** * 
2379:.\Generated_Source\PSoC4/BLE_eventHandler.c **** ******************************************************************************/
2380:.\Generated_Source\PSoC4/BLE_eventHandler.c **** void CyBle_NextCharDiscovery(uint8 incrementIndex)
2381:.\Generated_Source\PSoC4/BLE_eventHandler.c **** {
 2610              		.loc 1 2381 0
 2611              		.cfi_startproc
 2612 0000 80B5     		push	{r7, lr}
 2613              		.cfi_def_cfa_offset 8
 2614              		.cfi_offset 7, -8
 2615              		.cfi_offset 14, -4
 2616 0002 82B0     		sub	sp, sp, #8
 2617              		.cfi_def_cfa_offset 16
 2618 0004 00AF     		add	r7, sp, #0
 2619              		.cfi_def_cfa_register 7
 2620 0006 021C     		mov	r2, r0
 2621 0008 FB1D     		add	r3, r7, #7
 2622 000a 1A70     		strb	r2, [r3]
2382:.\Generated_Source\PSoC4/BLE_eventHandler.c **** 
2383:.\Generated_Source\PSoC4/BLE_eventHandler.c ****     if(incrementIndex != CYBLE_DISCOVERY_INIT)
 2623              		.loc 1 2383 0
 2624 000c FB1D     		add	r3, r7, #7
 2625 000e 1B78     		ldrb	r3, [r3]
 2626 0010 002B     		cmp	r3, #0
 2627 0012 06D0     		beq	.L178
2384:.\Generated_Source\PSoC4/BLE_eventHandler.c ****     {
2385:.\Generated_Source\PSoC4/BLE_eventHandler.c ****         cyBle_disCount++;
 2628              		.loc 1 2385 0
 2629 0014 2E4B     		ldr	r3, .L186
 2630 0016 1B78     		ldrb	r3, [r3]
 2631 0018 0133     		add	r3, r3, #1
 2632 001a DAB2     		uxtb	r2, r3
 2633 001c 2C4B     		ldr	r3, .L186
 2634 001e 1A70     		strb	r2, [r3]
 2635 0020 02E0     		b	.L179
 2636              	.L178:
2386:.\Generated_Source\PSoC4/BLE_eventHandler.c ****     }
2387:.\Generated_Source\PSoC4/BLE_eventHandler.c ****     else
2388:.\Generated_Source\PSoC4/BLE_eventHandler.c ****     {
2389:.\Generated_Source\PSoC4/BLE_eventHandler.c ****         cyBle_disCount = 0u;
 2637              		.loc 1 2389 0
 2638 0022 2B4B     		ldr	r3, .L186
 2639 0024 0022     		mov	r2, #0
 2640 0026 1A70     		strb	r2, [r3]
 2641              	.L179:
2390:.\Generated_Source\PSoC4/BLE_eventHandler.c ****         #ifdef CYBLE_HIDS_CLIENT
2391:.\Generated_Source\PSoC4/BLE_eventHandler.c ****             disServiceIndex = 0u;
2392:.\Generated_Source\PSoC4/BLE_eventHandler.c ****         #endif /* CYBLE_HIDS_CLIENT */
ARM GAS  C:\Users\YBOURA~1\AppData\Local\Temp\cc3HigXd.s 			page 90


2393:.\Generated_Source\PSoC4/BLE_eventHandler.c ****     }
2394:.\Generated_Source\PSoC4/BLE_eventHandler.c **** 
2395:.\Generated_Source\PSoC4/BLE_eventHandler.c ****     /* Skip not existing services */
2396:.\Generated_Source\PSoC4/BLE_eventHandler.c ****     while((cyBle_disCount < (uint8) CYBLE_SRVI_COUNT) &&
 2642              		.loc 1 2396 0
 2643 0028 05E0     		b	.L180
 2644              	.L182:
2397:.\Generated_Source\PSoC4/BLE_eventHandler.c ****           (cyBle_serverInfo[cyBle_disCount].range.startHandle == CYBLE_GATT_INVALID_ATTR_HANDLE_VAL
2398:.\Generated_Source\PSoC4/BLE_eventHandler.c ****     {
2399:.\Generated_Source\PSoC4/BLE_eventHandler.c ****         cyBle_disCount++;
 2645              		.loc 1 2399 0
 2646 002a 294B     		ldr	r3, .L186
 2647 002c 1B78     		ldrb	r3, [r3]
 2648 002e 0133     		add	r3, r3, #1
 2649 0030 DAB2     		uxtb	r2, r3
 2650 0032 274B     		ldr	r3, .L186
 2651 0034 1A70     		strb	r2, [r3]
 2652              	.L180:
2396:.\Generated_Source\PSoC4/BLE_eventHandler.c ****           (cyBle_serverInfo[cyBle_disCount].range.startHandle == CYBLE_GATT_INVALID_ATTR_HANDLE_VAL
 2653              		.loc 1 2396 0
 2654 0036 264B     		ldr	r3, .L186
 2655 0038 1B78     		ldrb	r3, [r3]
 2656 003a 022B     		cmp	r3, #2
 2657 003c 0AD8     		bhi	.L181
2397:.\Generated_Source\PSoC4/BLE_eventHandler.c ****           (cyBle_serverInfo[cyBle_disCount].range.startHandle == CYBLE_GATT_INVALID_ATTR_HANDLE_VAL
 2658              		.loc 1 2397 0 discriminator 1
 2659 003e 244B     		ldr	r3, .L186
 2660 0040 1B78     		ldrb	r3, [r3]
 2661 0042 191C     		mov	r1, r3
 2662 0044 234A     		ldr	r2, .L186+4
 2663 0046 0B1C     		mov	r3, r1
 2664 0048 5B00     		lsl	r3, r3, #1
 2665 004a 5B18     		add	r3, r3, r1
 2666 004c 5B00     		lsl	r3, r3, #1
 2667 004e 9B5A     		ldrh	r3, [r3, r2]
2396:.\Generated_Source\PSoC4/BLE_eventHandler.c ****           (cyBle_serverInfo[cyBle_disCount].range.startHandle == CYBLE_GATT_INVALID_ATTR_HANDLE_VAL
 2668              		.loc 1 2396 0 discriminator 1
 2669 0050 002B     		cmp	r3, #0
 2670 0052 EAD0     		beq	.L182
 2671              	.L181:
2400:.\Generated_Source\PSoC4/BLE_eventHandler.c ****     }
2401:.\Generated_Source\PSoC4/BLE_eventHandler.c **** 
2402:.\Generated_Source\PSoC4/BLE_eventHandler.c ****     if(cyBle_disCount < (uint8) CYBLE_SRVI_COUNT)
 2672              		.loc 1 2402 0
 2673 0054 1E4B     		ldr	r3, .L186
 2674 0056 1B78     		ldrb	r3, [r3]
 2675 0058 022B     		cmp	r3, #2
 2676 005a 2FD8     		bhi	.L183
2403:.\Generated_Source\PSoC4/BLE_eventHandler.c ****     {
2404:.\Generated_Source\PSoC4/BLE_eventHandler.c ****         if(CYBLE_ERROR_OK != CyBle_GattcDiscoverAllCharacteristics(cyBle_connHandle, cyBle_serverIn
 2677              		.loc 1 2404 0
 2678 005c 1C4B     		ldr	r3, .L186
 2679 005e 1B78     		ldrb	r3, [r3]
 2680 0060 181C     		mov	r0, r3
 2681 0062 1D49     		ldr	r1, .L186+8
 2682 0064 1B4A     		ldr	r2, .L186+4
 2683 0066 031C     		mov	r3, r0
ARM GAS  C:\Users\YBOURA~1\AppData\Local\Temp\cc3HigXd.s 			page 91


 2684 0068 5B00     		lsl	r3, r3, #1
 2685 006a 1B18     		add	r3, r3, r0
 2686 006c 5B00     		lsl	r3, r3, #1
 2687 006e 0878     		ldrb	r0, [r1]
 2688 0070 4978     		ldrb	r1, [r1, #1]
 2689 0072 0902     		lsl	r1, r1, #8
 2690 0074 0843     		orr	r0, r1
 2691 0076 0021     		mov	r1, #0
 2692 0078 0004     		lsl	r0, r0, #16
 2693 007a 000C     		lsr	r0, r0, #16
 2694 007c 090C     		lsr	r1, r1, #16
 2695 007e 0904     		lsl	r1, r1, #16
 2696 0080 0143     		orr	r1, r0
 2697 0082 985A     		ldrh	r0, [r3, r2]
 2698 0084 D318     		add	r3, r2, r3
 2699 0086 5B88     		ldrh	r3, [r3, #2]
 2700 0088 1B04     		lsl	r3, r3, #16
 2701 008a 0343     		orr	r3, r0
 2702 008c 0022     		mov	r2, #0
 2703 008e 1A1C     		mov	r2, r3
 2704 0090 081C     		mov	r0, r1
 2705 0092 111C     		mov	r1, r2
 2706 0094 FFF7FEFF 		bl	CyBle_GattcDiscoverAllCharacteristics
 2707 0098 031E     		sub	r3, r0, #0
 2708 009a 15D0     		beq	.L177
2405:.\Generated_Source\PSoC4/BLE_eventHandler.c ****         {
2406:.\Generated_Source\PSoC4/BLE_eventHandler.c ****             CyBle_ApplCallback(CYBLE_EVT_GATTC_CHAR_DISCOVERY_FAILED, NULL);
 2709              		.loc 1 2406 0
 2710 009c 0F4B     		ldr	r3, .L186+12
 2711 009e 1B68     		ldr	r3, [r3]
 2712 00a0 0A22     		mov	r2, #10
 2713 00a2 FF32     		add	r2, r2, #255
 2714 00a4 101C     		mov	r0, r2
 2715 00a6 0021     		mov	r1, #0
 2716 00a8 9847     		blx	r3
2407:.\Generated_Source\PSoC4/BLE_eventHandler.c ****             cyBle_eventHandlerFlag &= (uint8)~CYBLE_AUTO_DISCOVERY;
 2717              		.loc 1 2407 0
 2718 00aa 0D4B     		ldr	r3, .L186+16
 2719 00ac 1B78     		ldrb	r3, [r3]
 2720 00ae DBB2     		uxtb	r3, r3
 2721 00b0 0222     		mov	r2, #2
 2722 00b2 9343     		bic	r3, r2
 2723 00b4 DAB2     		uxtb	r2, r3
 2724 00b6 0A4B     		ldr	r3, .L186+16
 2725 00b8 1A70     		strb	r2, [r3]
 2726 00ba 05E0     		b	.L177
 2727              	.L183:
2408:.\Generated_Source\PSoC4/BLE_eventHandler.c ****         }
2409:.\Generated_Source\PSoC4/BLE_eventHandler.c ****     }
2410:.\Generated_Source\PSoC4/BLE_eventHandler.c ****     else /* Characteristic discovery procedure is done, start descriptor discovery procedure */
2411:.\Generated_Source\PSoC4/BLE_eventHandler.c ****     {
2412:.\Generated_Source\PSoC4/BLE_eventHandler.c ****     #if(CYBLE_STACK_MODE_DEBUG)
2413:.\Generated_Source\PSoC4/BLE_eventHandler.c ****         CyBle_ApplCallback(CYBLE_EVT_GATTC_CHAR_DISCOVERY_COMPLETE, NULL);
2414:.\Generated_Source\PSoC4/BLE_eventHandler.c ****     #endif /* CYBLE_STACK_MODE_DEBUG */
2415:.\Generated_Source\PSoC4/BLE_eventHandler.c ****         CyBle_SetClientState(CYBLE_CLIENT_STATE_DESCR_DISCOVERING);
 2728              		.loc 1 2415 0
 2729 00bc 094B     		ldr	r3, .L186+20
ARM GAS  C:\Users\YBOURA~1\AppData\Local\Temp\cc3HigXd.s 			page 92


 2730 00be 0422     		mov	r2, #4
 2731 00c0 1A70     		strb	r2, [r3]
2416:.\Generated_Source\PSoC4/BLE_eventHandler.c ****         CyBle_NextCharDscrDiscovery(CYBLE_DISCOVERY_INIT);
 2732              		.loc 1 2416 0
 2733 00c2 0020     		mov	r0, #0
 2734 00c4 FFF7FEFF 		bl	CyBle_NextCharDscrDiscovery
 2735              	.L177:
2417:.\Generated_Source\PSoC4/BLE_eventHandler.c ****     }
2418:.\Generated_Source\PSoC4/BLE_eventHandler.c **** 
2419:.\Generated_Source\PSoC4/BLE_eventHandler.c **** }
 2736              		.loc 1 2419 0
 2737 00c8 BD46     		mov	sp, r7
 2738 00ca 02B0     		add	sp, sp, #8
 2739              		@ sp needed
 2740 00cc 80BD     		pop	{r7, pc}
 2741              	.L187:
 2742 00ce C046     		.align	2
 2743              	.L186:
 2744 00d0 00000000 		.word	cyBle_disCount
 2745 00d4 00000000 		.word	cyBle_serverInfo
 2746 00d8 00000000 		.word	cyBle_connHandle
 2747 00dc 00000000 		.word	CyBle_ApplCallback
 2748 00e0 00000000 		.word	cyBle_eventHandlerFlag
 2749 00e4 00000000 		.word	cyBle_clientState
 2750              		.cfi_endproc
 2751              	.LFE19:
 2752              		.size	CyBle_NextCharDiscovery, .-CyBle_NextCharDiscovery
 2753              		.section	.text.CyBle_GetCharRange,"ax",%progbits
 2754              		.align	2
 2755              		.code	16
 2756              		.thumb_func
 2757              		.type	CyBle_GetCharRange, %function
 2758              	CyBle_GetCharRange:
 2759              	.LFB20:
2420:.\Generated_Source\PSoC4/BLE_eventHandler.c **** 
2421:.\Generated_Source\PSoC4/BLE_eventHandler.c **** 
2422:.\Generated_Source\PSoC4/BLE_eventHandler.c **** /****************************************************************************** 
2423:.\Generated_Source\PSoC4/BLE_eventHandler.c **** * Function Name: CyBle_GetCharRange
2424:.\Generated_Source\PSoC4/BLE_eventHandler.c **** ***************************************************************************//**
2425:.\Generated_Source\PSoC4/BLE_eventHandler.c **** * 
2426:.\Generated_Source\PSoC4/BLE_eventHandler.c **** *  Returns a possible range of the current characteristic descriptor
2427:.\Generated_Source\PSoC4/BLE_eventHandler.c **** *  (which is pointed by curr. descr. index cyBle_disCount).
2428:.\Generated_Source\PSoC4/BLE_eventHandler.c **** * 
2429:.\Generated_Source\PSoC4/BLE_eventHandler.c **** * \return
2430:.\Generated_Source\PSoC4/BLE_eventHandler.c **** *  CYBLE_GATT_ATTR_HANDLE_RANGE_T range:  the block of start and end handles.
2431:.\Generated_Source\PSoC4/BLE_eventHandler.c **** * 
2432:.\Generated_Source\PSoC4/BLE_eventHandler.c **** ******************************************************************************/
2433:.\Generated_Source\PSoC4/BLE_eventHandler.c **** static CYBLE_GATT_ATTR_HANDLE_RANGE_T CyBle_GetCharRange(void)
2434:.\Generated_Source\PSoC4/BLE_eventHandler.c **** {
 2760              		.loc 1 2434 0
 2761              		.cfi_startproc
 2762 0000 80B5     		push	{r7, lr}
 2763              		.cfi_def_cfa_offset 8
 2764              		.cfi_offset 7, -8
 2765              		.cfi_offset 14, -4
 2766 0002 82B0     		sub	sp, sp, #8
 2767              		.cfi_def_cfa_offset 16
ARM GAS  C:\Users\YBOURA~1\AppData\Local\Temp\cc3HigXd.s 			page 93


 2768 0004 00AF     		add	r7, sp, #0
 2769              		.cfi_def_cfa_register 7
2435:.\Generated_Source\PSoC4/BLE_eventHandler.c ****     CYBLE_GATT_ATTR_HANDLE_RANGE_T charRange = {CYBLE_GATT_INVALID_ATTR_HANDLE_VALUE, CYBLE_GATT_IN
 2770              		.loc 1 2435 0
 2771 0006 3B1C     		mov	r3, r7
 2772 0008 0022     		mov	r2, #0
 2773 000a 1A80     		strh	r2, [r3]
 2774 000c 3B1C     		mov	r3, r7
 2775 000e 0022     		mov	r2, #0
 2776 0010 5A80     		strh	r2, [r3, #2]
2436:.\Generated_Source\PSoC4/BLE_eventHandler.c ****     if(cyBle_disCount == (uint8) CYBLE_SCDI_GATT_SERVICE_CHANGED)
 2777              		.loc 1 2436 0
 2778 0012 114B     		ldr	r3, .L191
 2779 0014 1B78     		ldrb	r3, [r3]
 2780 0016 002B     		cmp	r3, #0
 2781 0018 09D1     		bne	.L189
2437:.\Generated_Source\PSoC4/BLE_eventHandler.c ****     {
2438:.\Generated_Source\PSoC4/BLE_eventHandler.c ****         /* One descriptor is available in GATT service */
2439:.\Generated_Source\PSoC4/BLE_eventHandler.c ****         charRange.startHandle = cyBle_gattc.serviceChanged.valueHandle + 1u;
 2782              		.loc 1 2439 0
 2783 001a 104B     		ldr	r3, .L191+4
 2784 001c 5B88     		ldrh	r3, [r3, #2]
 2785 001e 0133     		add	r3, r3, #1
 2786 0020 9AB2     		uxth	r2, r3
 2787 0022 3B1C     		mov	r3, r7
 2788 0024 1A80     		strh	r2, [r3]
2440:.\Generated_Source\PSoC4/BLE_eventHandler.c ****         charRange.endHandle = cyBle_serverInfo[CYBLE_SRVI_GATT].range.endHandle;
 2789              		.loc 1 2440 0
 2790 0026 0E4B     		ldr	r3, .L191+8
 2791 0028 1A89     		ldrh	r2, [r3, #8]
 2792 002a 3B1C     		mov	r3, r7
 2793 002c 5A80     		strh	r2, [r3, #2]
 2794              	.L189:
2441:.\Generated_Source\PSoC4/BLE_eventHandler.c ****     }
2442:.\Generated_Source\PSoC4/BLE_eventHandler.c **** #ifdef CYBLE_ANCS_CLIENT
2443:.\Generated_Source\PSoC4/BLE_eventHandler.c ****     if((cyBle_disCount == (uint8) CYBLE_SCDI_ANCS_NS) || (cyBle_disCount == (uint8) CYBLE_SCDI_ANCS
2444:.\Generated_Source\PSoC4/BLE_eventHandler.c ****     {
2445:.\Generated_Source\PSoC4/BLE_eventHandler.c ****         CYBLE_ANCS_CHAR_INDEX_T charIdx;
2446:.\Generated_Source\PSoC4/BLE_eventHandler.c ****         if(cyBle_disCount == (uint8) CYBLE_SCDI_ANCS_NS)
2447:.\Generated_Source\PSoC4/BLE_eventHandler.c ****         {
2448:.\Generated_Source\PSoC4/BLE_eventHandler.c ****             charIdx = CYBLE_ANCS_NS;
2449:.\Generated_Source\PSoC4/BLE_eventHandler.c ****         }
2450:.\Generated_Source\PSoC4/BLE_eventHandler.c ****         else
2451:.\Generated_Source\PSoC4/BLE_eventHandler.c ****         {
2452:.\Generated_Source\PSoC4/BLE_eventHandler.c ****             charIdx = CYBLE_ANCS_DS;
2453:.\Generated_Source\PSoC4/BLE_eventHandler.c ****         }
2454:.\Generated_Source\PSoC4/BLE_eventHandler.c ****         
2455:.\Generated_Source\PSoC4/BLE_eventHandler.c ****         if(cyBle_ancsc.charInfo[charIdx].valueHandle != CYBLE_GATT_INVALID_ATTR_HANDLE_VALUE)
2456:.\Generated_Source\PSoC4/BLE_eventHandler.c ****         {
2457:.\Generated_Source\PSoC4/BLE_eventHandler.c ****             /* One descriptor is available per characteristic */
2458:.\Generated_Source\PSoC4/BLE_eventHandler.c ****             charRange.startHandle = cyBle_ancsc.charInfo[charIdx].valueHandle + 1u;
2459:.\Generated_Source\PSoC4/BLE_eventHandler.c ****             charRange.endHandle = cyBle_ancsc.charInfo[charIdx].endHandle;
2460:.\Generated_Source\PSoC4/BLE_eventHandler.c ****         }
2461:.\Generated_Source\PSoC4/BLE_eventHandler.c ****     }
2462:.\Generated_Source\PSoC4/BLE_eventHandler.c **** #endif /* CYBLE_ANCS_CLIENT */
2463:.\Generated_Source\PSoC4/BLE_eventHandler.c **** #ifdef CYBLE_ANS_CLIENT
2464:.\Generated_Source\PSoC4/BLE_eventHandler.c ****     if((cyBle_disCount >= (uint8) CYBLE_SCDI_ANS_SUPPORTED_NEW_ALERT_CAT) &&
ARM GAS  C:\Users\YBOURA~1\AppData\Local\Temp\cc3HigXd.s 			page 94


2465:.\Generated_Source\PSoC4/BLE_eventHandler.c ****         (cyBle_disCount <= (uint8) CYBLE_SCDI_ANS_ALERT_NTF_CONTROL_POINT))
2466:.\Generated_Source\PSoC4/BLE_eventHandler.c ****     {
2467:.\Generated_Source\PSoC4/BLE_eventHandler.c ****         charRange.startHandle = 
2468:.\Generated_Source\PSoC4/BLE_eventHandler.c ****             cyBle_ansc.characteristics[cyBle_disCount - CYBLE_SCDI_ANS_SUPPORTED_NEW_ALERT_CAT].cha
2469:.\Generated_Source\PSoC4/BLE_eventHandler.c ****         charRange.endHandle = 
2470:.\Generated_Source\PSoC4/BLE_eventHandler.c ****             cyBle_ansc.characteristics[cyBle_disCount - CYBLE_SCDI_ANS_SUPPORTED_NEW_ALERT_CAT].end
2471:.\Generated_Source\PSoC4/BLE_eventHandler.c ****     }
2472:.\Generated_Source\PSoC4/BLE_eventHandler.c **** #endif /* CYBLE_ANS_CLIENT */
2473:.\Generated_Source\PSoC4/BLE_eventHandler.c **** #ifdef CYBLE_BAS_CLIENT
2474:.\Generated_Source\PSoC4/BLE_eventHandler.c ****     if((cyBle_disCount >= (uint8) CYBLE_SCDI_BAS_LEVEL) && (cyBle_disCount <= (uint8) CYBLE_SCDI_BA
2475:.\Generated_Source\PSoC4/BLE_eventHandler.c ****     {
2476:.\Generated_Source\PSoC4/BLE_eventHandler.c ****         if(cyBle_basc[cyBle_disCount - CYBLE_SCDI_BAS_LEVEL].batteryLevel.valueHandle != CYBLE_GATT
2477:.\Generated_Source\PSoC4/BLE_eventHandler.c ****         {
2478:.\Generated_Source\PSoC4/BLE_eventHandler.c ****             /* One descriptor is available per characteristic */
2479:.\Generated_Source\PSoC4/BLE_eventHandler.c ****             charRange.startHandle = cyBle_basc[cyBle_disCount - CYBLE_SCDI_BAS_LEVEL].
2480:.\Generated_Source\PSoC4/BLE_eventHandler.c ****                                 batteryLevel.valueHandle + 1u;
2481:.\Generated_Source\PSoC4/BLE_eventHandler.c ****             charRange.endHandle = cyBle_serverInfo[CYBLE_SRVI_BAS + (cyBle_disCount - CYBLE_SCDI_BA
2482:.\Generated_Source\PSoC4/BLE_eventHandler.c ****                                 range.endHandle;
2483:.\Generated_Source\PSoC4/BLE_eventHandler.c ****         }
2484:.\Generated_Source\PSoC4/BLE_eventHandler.c ****     }
2485:.\Generated_Source\PSoC4/BLE_eventHandler.c **** #endif /* CYBLE_BAS_CLIENT */
2486:.\Generated_Source\PSoC4/BLE_eventHandler.c **** #ifdef CYBLE_BCS_CLIENT
2487:.\Generated_Source\PSoC4/BLE_eventHandler.c ****     if((cyBle_disCount == (uint8) CYBLE_SCDI_BCS_BODY_COMPOSITION_FEATURE) ||
2488:.\Generated_Source\PSoC4/BLE_eventHandler.c ****         (cyBle_disCount == (uint8) CYBLE_SCDI_BCS_BODY_COMPOSITION_MEASUREMENT))
2489:.\Generated_Source\PSoC4/BLE_eventHandler.c ****     {
2490:.\Generated_Source\PSoC4/BLE_eventHandler.c ****         if(cyBle_bcsc.charInfo[cyBle_disCount - CYBLE_SCDI_BCS_BODY_COMPOSITION_FEATURE].valueHandl
2491:.\Generated_Source\PSoC4/BLE_eventHandler.c ****             CYBLE_GATT_INVALID_ATTR_HANDLE_VALUE)
2492:.\Generated_Source\PSoC4/BLE_eventHandler.c ****         {
2493:.\Generated_Source\PSoC4/BLE_eventHandler.c ****             /* One descriptor is available per characteristic */
2494:.\Generated_Source\PSoC4/BLE_eventHandler.c ****             charRange.startHandle =
2495:.\Generated_Source\PSoC4/BLE_eventHandler.c ****                 cyBle_bcsc.charInfo[cyBle_disCount - CYBLE_SCDI_BCS_BODY_COMPOSITION_FEATURE].value
2496:.\Generated_Source\PSoC4/BLE_eventHandler.c ****             charRange.endHandle =
2497:.\Generated_Source\PSoC4/BLE_eventHandler.c ****                 cyBle_bcsc.charInfo[cyBle_disCount - CYBLE_SCDI_BCS_BODY_COMPOSITION_FEATURE].endHa
2498:.\Generated_Source\PSoC4/BLE_eventHandler.c ****         }
2499:.\Generated_Source\PSoC4/BLE_eventHandler.c ****     }
2500:.\Generated_Source\PSoC4/BLE_eventHandler.c **** #endif /* CYBLE_BCS_CLIENT */
2501:.\Generated_Source\PSoC4/BLE_eventHandler.c **** #ifdef CYBLE_BLS_CLIENT
2502:.\Generated_Source\PSoC4/BLE_eventHandler.c ****     if((cyBle_disCount == (uint8) CYBLE_SCDI_BLS_BPM) || (cyBle_disCount == (uint8) CYBLE_SCDI_BLS_
2503:.\Generated_Source\PSoC4/BLE_eventHandler.c ****     {
2504:.\Generated_Source\PSoC4/BLE_eventHandler.c ****         if(cyBle_blsc.charInfo[cyBle_disCount - CYBLE_SCDI_BLS_BPM].valueHandle != CYBLE_GATT_INVAL
2505:.\Generated_Source\PSoC4/BLE_eventHandler.c ****         {
2506:.\Generated_Source\PSoC4/BLE_eventHandler.c ****             /* One descriptor is available per characteristic */
2507:.\Generated_Source\PSoC4/BLE_eventHandler.c ****             charRange.startHandle = cyBle_blsc.charInfo[cyBle_disCount - CYBLE_SCDI_BLS_BPM].valueH
2508:.\Generated_Source\PSoC4/BLE_eventHandler.c ****             charRange.endHandle = cyBle_blsc.charInfo[cyBle_disCount - CYBLE_SCDI_BLS_BPM].endHandl
2509:.\Generated_Source\PSoC4/BLE_eventHandler.c ****         }
2510:.\Generated_Source\PSoC4/BLE_eventHandler.c ****     }
2511:.\Generated_Source\PSoC4/BLE_eventHandler.c **** #endif /* CYBLE_BLS_CLIENT */
2512:.\Generated_Source\PSoC4/BLE_eventHandler.c **** #ifdef CYBLE_BMS_CLIENT
2513:.\Generated_Source\PSoC4/BLE_eventHandler.c ****     if(cyBle_disCount == (uint8) CYBLE_SCDI_BMS_BMCP)
2514:.\Generated_Source\PSoC4/BLE_eventHandler.c ****     {
2515:.\Generated_Source\PSoC4/BLE_eventHandler.c ****         if(cyBle_bmsc.charInfo[CYBLE_BMS_BMCP].valueHandle != CYBLE_GATT_INVALID_ATTR_HANDLE_VALUE)
2516:.\Generated_Source\PSoC4/BLE_eventHandler.c ****         {
2517:.\Generated_Source\PSoC4/BLE_eventHandler.c ****             /* One descriptor is available per characteristic */
2518:.\Generated_Source\PSoC4/BLE_eventHandler.c ****             charRange.startHandle = cyBle_bmsc.charInfo[CYBLE_BMS_BMCP].valueHandle + 1u;
2519:.\Generated_Source\PSoC4/BLE_eventHandler.c ****             charRange.endHandle = cyBle_bmsc.charInfo[CYBLE_BMS_BMCP].endHandle;
2520:.\Generated_Source\PSoC4/BLE_eventHandler.c ****         }
2521:.\Generated_Source\PSoC4/BLE_eventHandler.c ****     }
ARM GAS  C:\Users\YBOURA~1\AppData\Local\Temp\cc3HigXd.s 			page 95


2522:.\Generated_Source\PSoC4/BLE_eventHandler.c **** #endif /* CYBLE_BMS_CLIENT */
2523:.\Generated_Source\PSoC4/BLE_eventHandler.c **** #ifdef CYBLE_CGMS_CLIENT
2524:.\Generated_Source\PSoC4/BLE_eventHandler.c ****     if((cyBle_disCount >= (uint8) CYBLE_SCDI_CGMS_CGMT) && (cyBle_disCount <= (uint8) CYBLE_SCDI_CG
2525:.\Generated_Source\PSoC4/BLE_eventHandler.c ****     {
2526:.\Generated_Source\PSoC4/BLE_eventHandler.c ****         uint8 charIdx = cyBle_disCount - CYBLE_SCDI_CGMS_CGMT;
2527:.\Generated_Source\PSoC4/BLE_eventHandler.c ****         if(CYBLE_CGMS_CGMT < charIdx)
2528:.\Generated_Source\PSoC4/BLE_eventHandler.c ****         {
2529:.\Generated_Source\PSoC4/BLE_eventHandler.c ****             /* charIdx for RACP is 5 and for SOCP is 6 */
2530:.\Generated_Source\PSoC4/BLE_eventHandler.c ****             charIdx += CYBLE_CGMS_RACP - 1u;
2531:.\Generated_Source\PSoC4/BLE_eventHandler.c ****         }
2532:.\Generated_Source\PSoC4/BLE_eventHandler.c ****         
2533:.\Generated_Source\PSoC4/BLE_eventHandler.c ****         if(cyBle_cgmsc.charInfo[charIdx].valueHandle != CYBLE_GATT_INVALID_ATTR_HANDLE_VALUE)
2534:.\Generated_Source\PSoC4/BLE_eventHandler.c ****         {
2535:.\Generated_Source\PSoC4/BLE_eventHandler.c ****             /* One descriptor is available per characteristic */
2536:.\Generated_Source\PSoC4/BLE_eventHandler.c ****             charRange.startHandle = cyBle_cgmsc.charInfo[charIdx].valueHandle + 1u;
2537:.\Generated_Source\PSoC4/BLE_eventHandler.c ****             charRange.endHandle = cyBle_cgmsc.charInfo[charIdx].endHandle;
2538:.\Generated_Source\PSoC4/BLE_eventHandler.c ****         }
2539:.\Generated_Source\PSoC4/BLE_eventHandler.c ****     }
2540:.\Generated_Source\PSoC4/BLE_eventHandler.c **** #endif /* CYBLE_CGMS_CLIENT */
2541:.\Generated_Source\PSoC4/BLE_eventHandler.c **** #ifdef CYBLE_CPS_CLIENT
2542:.\Generated_Source\PSoC4/BLE_eventHandler.c ****     if((cyBle_disCount >= (uint8) CYBLE_SCDI_CPS_POWER_MEASURE) && (cyBle_disCount <= (uint8) CYBLE
2543:.\Generated_Source\PSoC4/BLE_eventHandler.c ****     {
2544:.\Generated_Source\PSoC4/BLE_eventHandler.c ****         charRange.startHandle = cyBle_cpsc.charInfo[cyBle_disCount - CYBLE_SCDI_CPS_POWER_MEASURE].
2545:.\Generated_Source\PSoC4/BLE_eventHandler.c ****         charRange.endHandle = cyBle_cpsc.charInfo[cyBle_disCount - CYBLE_SCDI_CPS_POWER_MEASURE].en
2546:.\Generated_Source\PSoC4/BLE_eventHandler.c ****     }
2547:.\Generated_Source\PSoC4/BLE_eventHandler.c **** #endif /* CYBLE_CPS_CLIENT */
2548:.\Generated_Source\PSoC4/BLE_eventHandler.c **** #ifdef CYBLE_CSCS_CLIENT
2549:.\Generated_Source\PSoC4/BLE_eventHandler.c ****     if((cyBle_disCount >= (uint8) CYBLE_SCDI_CSCS_CSC_MEASUREMENT) && 
2550:.\Generated_Source\PSoC4/BLE_eventHandler.c ****        (cyBle_disCount <= (uint8) CYBLE_SCDI_CSCS_SC_CONTROL_POINT))
2551:.\Generated_Source\PSoC4/BLE_eventHandler.c ****     {
2552:.\Generated_Source\PSoC4/BLE_eventHandler.c ****         charRange.startHandle = 
2553:.\Generated_Source\PSoC4/BLE_eventHandler.c ****             cyBle_cscsc.characteristics[cyBle_disCount - CYBLE_SCDI_CSCS_CSC_MEASUREMENT].charInfo.
2554:.\Generated_Source\PSoC4/BLE_eventHandler.c ****         charRange.endHandle = cyBle_cscsc.characteristics[cyBle_disCount - CYBLE_SCDI_CSCS_CSC_MEAS
2555:.\Generated_Source\PSoC4/BLE_eventHandler.c ****     }
2556:.\Generated_Source\PSoC4/BLE_eventHandler.c **** #endif /* CYBLE_CSCS_CLIENT */
2557:.\Generated_Source\PSoC4/BLE_eventHandler.c **** #ifdef CYBLE_CTS_CLIENT
2558:.\Generated_Source\PSoC4/BLE_eventHandler.c ****     if(cyBle_disCount == (uint8) CYBLE_SCDI_CTS_CURRENT_TIME)
2559:.\Generated_Source\PSoC4/BLE_eventHandler.c ****     {
2560:.\Generated_Source\PSoC4/BLE_eventHandler.c ****         if(cyBle_ctsc.currTimeCharacteristics[CYBLE_CTS_CURRENT_TIME].valueHandle != CYBLE_GATT_INV
2561:.\Generated_Source\PSoC4/BLE_eventHandler.c ****         {
2562:.\Generated_Source\PSoC4/BLE_eventHandler.c ****             /* One descriptor is available per service */
2563:.\Generated_Source\PSoC4/BLE_eventHandler.c ****             charRange.startHandle = cyBle_ctsc.currTimeCharacteristics[CYBLE_CTS_CURRENT_TIME].valu
2564:.\Generated_Source\PSoC4/BLE_eventHandler.c ****             charRange.endHandle = cyBle_serverInfo[CYBLE_SRVI_CTS].range.endHandle;
2565:.\Generated_Source\PSoC4/BLE_eventHandler.c ****         }
2566:.\Generated_Source\PSoC4/BLE_eventHandler.c ****     }
2567:.\Generated_Source\PSoC4/BLE_eventHandler.c **** #endif /* CYBLE_CTS_CLIENT */
2568:.\Generated_Source\PSoC4/BLE_eventHandler.c **** #ifdef CYBLE_ESS_CLIENT
2569:.\Generated_Source\PSoC4/BLE_eventHandler.c ****     if((cyBle_disCount >= (uint8) CYBLE_SCDI_ESS_DESCRIPTOR_VALUE_CHANGED) && 
2570:.\Generated_Source\PSoC4/BLE_eventHandler.c ****        (cyBle_disCount <= (uint8) CYBLE_SCDI_ESS_END_CHAR))
2571:.\Generated_Source\PSoC4/BLE_eventHandler.c ****     {
2572:.\Generated_Source\PSoC4/BLE_eventHandler.c ****         if(prevCharInstIndex != (cyBle_disCount - CYBLE_SCDI_ESS_DESCRIPTOR_VALUE_CHANGED))
2573:.\Generated_Source\PSoC4/BLE_eventHandler.c ****         {
2574:.\Generated_Source\PSoC4/BLE_eventHandler.c ****             /* Check if this the last characteristic instance */
2575:.\Generated_Source\PSoC4/BLE_eventHandler.c ****             if((activeCharInstance + 1u) < cyBle_esscCharInstances[activeCharIndex])
2576:.\Generated_Source\PSoC4/BLE_eventHandler.c ****             {
2577:.\Generated_Source\PSoC4/BLE_eventHandler.c ****                 /* The instance is not last so increment it */
2578:.\Generated_Source\PSoC4/BLE_eventHandler.c ****                 activeCharInstance += 1u; 
ARM GAS  C:\Users\YBOURA~1\AppData\Local\Temp\cc3HigXd.s 			page 96


2579:.\Generated_Source\PSoC4/BLE_eventHandler.c ****             }
2580:.\Generated_Source\PSoC4/BLE_eventHandler.c ****             else
2581:.\Generated_Source\PSoC4/BLE_eventHandler.c ****             {
2582:.\Generated_Source\PSoC4/BLE_eventHandler.c ****                 /* The instance is last so go to new characteristic */
2583:.\Generated_Source\PSoC4/BLE_eventHandler.c ****                 activeCharInstance = 0u;
2584:.\Generated_Source\PSoC4/BLE_eventHandler.c ****                 activeCharIndex += 1u;
2585:.\Generated_Source\PSoC4/BLE_eventHandler.c ****             }
2586:.\Generated_Source\PSoC4/BLE_eventHandler.c ****             prevCharInstIndex = (cyBle_disCount - CYBLE_SCDI_ESS_DESCRIPTOR_VALUE_CHANGED);
2587:.\Generated_Source\PSoC4/BLE_eventHandler.c ****         }
2588:.\Generated_Source\PSoC4/BLE_eventHandler.c **** 
2589:.\Generated_Source\PSoC4/BLE_eventHandler.c ****         if(NULL != cyBle_essc.charInfoAddr[activeCharIndex].charInfoPtr)
2590:.\Generated_Source\PSoC4/BLE_eventHandler.c ****         {
2591:.\Generated_Source\PSoC4/BLE_eventHandler.c ****             if(activeCharInstance < cyBle_esscCharInstances[activeCharIndex])
2592:.\Generated_Source\PSoC4/BLE_eventHandler.c ****             {
2593:.\Generated_Source\PSoC4/BLE_eventHandler.c ****                 charRange.startHandle =
2594:.\Generated_Source\PSoC4/BLE_eventHandler.c ****                     cyBle_essc.charInfoAddr[activeCharIndex].charInfoPtr[activeCharInstance].valueH
2595:.\Generated_Source\PSoC4/BLE_eventHandler.c ****             
2596:.\Generated_Source\PSoC4/BLE_eventHandler.c ****                 charRange.endHandle =
2597:.\Generated_Source\PSoC4/BLE_eventHandler.c ****                     cyBle_essc.charInfoAddr[activeCharIndex].charInfoPtr[activeCharInstance].endHan
2598:.\Generated_Source\PSoC4/BLE_eventHandler.c ****             }
2599:.\Generated_Source\PSoC4/BLE_eventHandler.c ****             else
2600:.\Generated_Source\PSoC4/BLE_eventHandler.c ****             {
2601:.\Generated_Source\PSoC4/BLE_eventHandler.c ****                 charRange.startHandle = CYBLE_GATT_INVALID_ATTR_HANDLE_VALUE;
2602:.\Generated_Source\PSoC4/BLE_eventHandler.c ****                 charRange.endHandle = CYBLE_GATT_INVALID_ATTR_HANDLE_VALUE;
2603:.\Generated_Source\PSoC4/BLE_eventHandler.c ****             }
2604:.\Generated_Source\PSoC4/BLE_eventHandler.c ****         }
2605:.\Generated_Source\PSoC4/BLE_eventHandler.c ****     }
2606:.\Generated_Source\PSoC4/BLE_eventHandler.c **** #endif /* CYBLE_ESS_CLIENT */
2607:.\Generated_Source\PSoC4/BLE_eventHandler.c **** #ifdef CYBLE_GLS_CLIENT
2608:.\Generated_Source\PSoC4/BLE_eventHandler.c ****     if((cyBle_disCount >= (uint8) CYBLE_SCDI_GLS_GLMT) && (cyBle_disCount <= (uint8) CYBLE_SCDI_GLS
2609:.\Generated_Source\PSoC4/BLE_eventHandler.c ****     {
2610:.\Generated_Source\PSoC4/BLE_eventHandler.c ****         uint8 charIdx = cyBle_disCount - CYBLE_SCDI_GLS_GLMT;
2611:.\Generated_Source\PSoC4/BLE_eventHandler.c ****         if((CYBLE_SCDI_GLS_RACP - CYBLE_SCDI_GLS_GLMT) == charIdx)
2612:.\Generated_Source\PSoC4/BLE_eventHandler.c ****         {
2613:.\Generated_Source\PSoC4/BLE_eventHandler.c ****             charIdx = CYBLE_GLS_RACP;
2614:.\Generated_Source\PSoC4/BLE_eventHandler.c ****         }
2615:.\Generated_Source\PSoC4/BLE_eventHandler.c ****         
2616:.\Generated_Source\PSoC4/BLE_eventHandler.c ****         if(cyBle_glsc.charInfo[charIdx].valueHandle != CYBLE_GATT_INVALID_ATTR_HANDLE_VALUE)
2617:.\Generated_Source\PSoC4/BLE_eventHandler.c ****         {
2618:.\Generated_Source\PSoC4/BLE_eventHandler.c ****             /* One descriptor is available per characteristic */
2619:.\Generated_Source\PSoC4/BLE_eventHandler.c ****             charRange.startHandle = cyBle_glsc.charInfo[charIdx].valueHandle + 1u;
2620:.\Generated_Source\PSoC4/BLE_eventHandler.c ****             charRange.endHandle = cyBle_glsc.charInfo[charIdx].endHandle;
2621:.\Generated_Source\PSoC4/BLE_eventHandler.c ****         }
2622:.\Generated_Source\PSoC4/BLE_eventHandler.c ****     }
2623:.\Generated_Source\PSoC4/BLE_eventHandler.c **** #endif /* CYBLE_GLS_CLIENT */
2624:.\Generated_Source\PSoC4/BLE_eventHandler.c **** #ifdef CYBLE_HIDS_CLIENT
2625:.\Generated_Source\PSoC4/BLE_eventHandler.c ****     if((cyBle_disCount >= (uint8) CYBLE_SCDI_HIDS_REPORT_MAP) && (cyBle_disCount <= (uint8) CYBLE_S
2626:.\Generated_Source\PSoC4/BLE_eventHandler.c ****     {
2627:.\Generated_Source\PSoC4/BLE_eventHandler.c ****         if(cyBle_disCount == (uint8) CYBLE_SCDI_HIDS_REPORT_MAP)
2628:.\Generated_Source\PSoC4/BLE_eventHandler.c ****         {
2629:.\Generated_Source\PSoC4/BLE_eventHandler.c ****             if(cyBle_hidsc[disServiceIndex].reportMap.valueHandle != CYBLE_GATT_INVALID_ATTR_HANDLE
2630:.\Generated_Source\PSoC4/BLE_eventHandler.c ****             {
2631:.\Generated_Source\PSoC4/BLE_eventHandler.c ****                 charRange.startHandle = cyBle_hidsc[disServiceIndex].reportMap.valueHandle + 1u;
2632:.\Generated_Source\PSoC4/BLE_eventHandler.c ****                 charRange.endHandle = cyBle_hidsc[disServiceIndex].reportMap.endHandle;
2633:.\Generated_Source\PSoC4/BLE_eventHandler.c ****             }
2634:.\Generated_Source\PSoC4/BLE_eventHandler.c ****         }
2635:.\Generated_Source\PSoC4/BLE_eventHandler.c ****         else if(cyBle_disCount < (uint8) CYBLE_SCDI_HIDS_REPORT)
ARM GAS  C:\Users\YBOURA~1\AppData\Local\Temp\cc3HigXd.s 			page 97


2636:.\Generated_Source\PSoC4/BLE_eventHandler.c ****         {
2637:.\Generated_Source\PSoC4/BLE_eventHandler.c ****             if(cyBle_hidsc[disServiceIndex].bootReport[cyBle_disCount -
2638:.\Generated_Source\PSoC4/BLE_eventHandler.c ****                 CYBLE_SCDI_HIDS_BOOT_KYBRD_IN_REP].valueHandle != CYBLE_GATT_INVALID_ATTR_HANDLE_VA
2639:.\Generated_Source\PSoC4/BLE_eventHandler.c ****             {
2640:.\Generated_Source\PSoC4/BLE_eventHandler.c ****                 charRange.startHandle = cyBle_hidsc[disServiceIndex].
2641:.\Generated_Source\PSoC4/BLE_eventHandler.c ****                             bootReport[cyBle_disCount - CYBLE_SCDI_HIDS_BOOT_KYBRD_IN_REP].valueHan
2642:.\Generated_Source\PSoC4/BLE_eventHandler.c ****                 charRange.endHandle = cyBle_hidsc[disServiceIndex].
2643:.\Generated_Source\PSoC4/BLE_eventHandler.c ****                             bootReport[cyBle_disCount - CYBLE_SCDI_HIDS_BOOT_KYBRD_IN_REP].endHandl
2644:.\Generated_Source\PSoC4/BLE_eventHandler.c ****             }
2645:.\Generated_Source\PSoC4/BLE_eventHandler.c ****         }
2646:.\Generated_Source\PSoC4/BLE_eventHandler.c ****         else
2647:.\Generated_Source\PSoC4/BLE_eventHandler.c ****         {
2648:.\Generated_Source\PSoC4/BLE_eventHandler.c ****             if(cyBle_hidsc[disServiceIndex].report[cyBle_disCount - CYBLE_SCDI_HIDS_REPORT].valueHa
2649:.\Generated_Source\PSoC4/BLE_eventHandler.c ****                 CYBLE_GATT_INVALID_ATTR_HANDLE_VALUE)
2650:.\Generated_Source\PSoC4/BLE_eventHandler.c ****             {
2651:.\Generated_Source\PSoC4/BLE_eventHandler.c ****                 charRange.startHandle = cyBle_hidsc[disServiceIndex].
2652:.\Generated_Source\PSoC4/BLE_eventHandler.c ****                             report[cyBle_disCount - CYBLE_SCDI_HIDS_REPORT].valueHandle + 1u;
2653:.\Generated_Source\PSoC4/BLE_eventHandler.c ****                 charRange.endHandle = cyBle_hidsc[disServiceIndex].
2654:.\Generated_Source\PSoC4/BLE_eventHandler.c ****                             report[cyBle_disCount - CYBLE_SCDI_HIDS_REPORT].endHandle;
2655:.\Generated_Source\PSoC4/BLE_eventHandler.c ****             }
2656:.\Generated_Source\PSoC4/BLE_eventHandler.c ****         }
2657:.\Generated_Source\PSoC4/BLE_eventHandler.c **** 
2658:.\Generated_Source\PSoC4/BLE_eventHandler.c ****     }
2659:.\Generated_Source\PSoC4/BLE_eventHandler.c **** #endif /* CYBLE_HIDS_CLIENT */
2660:.\Generated_Source\PSoC4/BLE_eventHandler.c **** #ifdef CYBLE_HRS_CLIENT
2661:.\Generated_Source\PSoC4/BLE_eventHandler.c ****     if(cyBle_disCount == (uint8) CYBLE_SCDI_HRS_HRM)
2662:.\Generated_Source\PSoC4/BLE_eventHandler.c ****     {
2663:.\Generated_Source\PSoC4/BLE_eventHandler.c ****         charRange.startHandle = cyBle_hrsc.charInfo[CYBLE_HRS_HRM].valueHandle + 1u;
2664:.\Generated_Source\PSoC4/BLE_eventHandler.c ****         charRange.endHandle = cyBle_serverInfo[CYBLE_SRVI_HRS].range.endHandle;
2665:.\Generated_Source\PSoC4/BLE_eventHandler.c ****     }
2666:.\Generated_Source\PSoC4/BLE_eventHandler.c **** #endif /* CYBLE_HRS_CLIENT */
2667:.\Generated_Source\PSoC4/BLE_eventHandler.c **** #ifdef CYBLE_HTS_CLIENT
2668:.\Generated_Source\PSoC4/BLE_eventHandler.c ****     if((cyBle_disCount >= (uint8) CYBLE_SCDI_HTS_TEMP_MEASURE) && (cyBle_disCount <= (uint8) CYBLE_
2669:.\Generated_Source\PSoC4/BLE_eventHandler.c ****     {
2670:.\Generated_Source\PSoC4/BLE_eventHandler.c ****         charRange.startHandle = cyBle_htsc.charInfo[cyBle_disCount - CYBLE_SCDI_HTS_TEMP_MEASURE].v
2671:.\Generated_Source\PSoC4/BLE_eventHandler.c ****         charRange.endHandle = cyBle_htsc.charInfo[cyBle_disCount - CYBLE_SCDI_HTS_TEMP_MEASURE].end
2672:.\Generated_Source\PSoC4/BLE_eventHandler.c ****     }
2673:.\Generated_Source\PSoC4/BLE_eventHandler.c **** #endif /* CYBLE_HTS_CLIENT */
2674:.\Generated_Source\PSoC4/BLE_eventHandler.c **** #ifdef CYBLE_LNS_CLIENT
2675:.\Generated_Source\PSoC4/BLE_eventHandler.c ****     if((cyBle_disCount >= (uint8) CYBLE_SCDI_LNS_LS) && (cyBle_disCount <= (uint8) CYBLE_SCDI_LNS_N
2676:.\Generated_Source\PSoC4/BLE_eventHandler.c ****     {
2677:.\Generated_Source\PSoC4/BLE_eventHandler.c ****         uint8 charIdx = (cyBle_disCount - CYBLE_SCDI_LNS_LS) + 1u;
2678:.\Generated_Source\PSoC4/BLE_eventHandler.c ****         if(charIdx > (uint8) CYBLE_SCDI_LNS_LS)
2679:.\Generated_Source\PSoC4/BLE_eventHandler.c ****         {
2680:.\Generated_Source\PSoC4/BLE_eventHandler.c ****             charIdx++;
2681:.\Generated_Source\PSoC4/BLE_eventHandler.c ****         }
2682:.\Generated_Source\PSoC4/BLE_eventHandler.c ****         charRange.startHandle = cyBle_lnsc.charInfo[charIdx].valueHandle + 1u;
2683:.\Generated_Source\PSoC4/BLE_eventHandler.c ****         charRange.endHandle = cyBle_lnsc.charInfo[charIdx].endHandle;
2684:.\Generated_Source\PSoC4/BLE_eventHandler.c ****     }
2685:.\Generated_Source\PSoC4/BLE_eventHandler.c **** #endif /* CYBLE_LNS_CLIENT */
2686:.\Generated_Source\PSoC4/BLE_eventHandler.c **** #ifdef CYBLE_PASS_CLIENT
2687:.\Generated_Source\PSoC4/BLE_eventHandler.c ****     if((cyBle_disCount == (uint8) CYBLE_SCDI_PASS_AS) || (cyBle_disCount == (uint8) CYBLE_SCDI_PASS
2688:.\Generated_Source\PSoC4/BLE_eventHandler.c ****     {
2689:.\Generated_Source\PSoC4/BLE_eventHandler.c ****         charRange.startHandle = cyBle_passc.charInfo[cyBle_disCount - CYBLE_SCDI_PASS_AS].valueHand
2690:.\Generated_Source\PSoC4/BLE_eventHandler.c ****         charRange.endHandle = cyBle_passc.charInfo[cyBle_disCount - CYBLE_SCDI_PASS_AS].endHandle;
2691:.\Generated_Source\PSoC4/BLE_eventHandler.c ****     }
2692:.\Generated_Source\PSoC4/BLE_eventHandler.c **** #endif /* CYBLE_PASS_CLIENT */
ARM GAS  C:\Users\YBOURA~1\AppData\Local\Temp\cc3HigXd.s 			page 98


2693:.\Generated_Source\PSoC4/BLE_eventHandler.c **** #ifdef CYBLE_RSCS_CLIENT
2694:.\Generated_Source\PSoC4/BLE_eventHandler.c ****     if((cyBle_disCount >= (uint8) CYBLE_SCDI_RSCS_RSC_MEASUREMENT) && 
2695:.\Generated_Source\PSoC4/BLE_eventHandler.c ****        (cyBle_disCount <= (uint8) CYBLE_SCDI_RSCS_SC_CONTROL_POINT))
2696:.\Generated_Source\PSoC4/BLE_eventHandler.c ****     {
2697:.\Generated_Source\PSoC4/BLE_eventHandler.c ****         charRange.startHandle = 
2698:.\Generated_Source\PSoC4/BLE_eventHandler.c ****             cyBle_rscsc.characteristics[cyBle_disCount - CYBLE_SCDI_RSCS_RSC_MEASUREMENT].charInfo.
2699:.\Generated_Source\PSoC4/BLE_eventHandler.c ****         charRange.endHandle = cyBle_rscsc.characteristics[cyBle_disCount - CYBLE_SCDI_RSCS_RSC_MEAS
2700:.\Generated_Source\PSoC4/BLE_eventHandler.c ****     }
2701:.\Generated_Source\PSoC4/BLE_eventHandler.c **** #endif /* CYBLE_RSCS_CLIENT */
2702:.\Generated_Source\PSoC4/BLE_eventHandler.c **** #ifdef CYBLE_SCPS_CLIENT
2703:.\Generated_Source\PSoC4/BLE_eventHandler.c ****     if(cyBle_disCount == (uint8) CYBLE_SCDI_SCPS_SCAN_REFRESH)
2704:.\Generated_Source\PSoC4/BLE_eventHandler.c ****     {
2705:.\Generated_Source\PSoC4/BLE_eventHandler.c ****         if(cyBle_scpsc.refreshChar.valueHandle != CYBLE_GATT_INVALID_ATTR_HANDLE_VALUE)
2706:.\Generated_Source\PSoC4/BLE_eventHandler.c ****         {
2707:.\Generated_Source\PSoC4/BLE_eventHandler.c ****             /* One descriptor is available per characteristic */
2708:.\Generated_Source\PSoC4/BLE_eventHandler.c ****             charRange.startHandle = cyBle_scpsc.refreshChar.valueHandle + 1u;
2709:.\Generated_Source\PSoC4/BLE_eventHandler.c ****             charRange.endHandle = cyBle_serverInfo[CYBLE_SRVI_SCPS].range.endHandle;
2710:.\Generated_Source\PSoC4/BLE_eventHandler.c ****         }
2711:.\Generated_Source\PSoC4/BLE_eventHandler.c ****     }
2712:.\Generated_Source\PSoC4/BLE_eventHandler.c **** #endif /* CYBLE_SCPS_CLIENT */
2713:.\Generated_Source\PSoC4/BLE_eventHandler.c **** #ifdef CYBLE_TPS_CLIENT
2714:.\Generated_Source\PSoC4/BLE_eventHandler.c ****     if(cyBle_disCount == (uint8) CYBLE_SCDI_TPS_TX_PWR_LEVEL)
2715:.\Generated_Source\PSoC4/BLE_eventHandler.c ****     {
2716:.\Generated_Source\PSoC4/BLE_eventHandler.c ****         if(cyBle_tpsc.txPowerLevelChar.valueHandle != CYBLE_GATT_INVALID_ATTR_HANDLE_VALUE)
2717:.\Generated_Source\PSoC4/BLE_eventHandler.c ****         {
2718:.\Generated_Source\PSoC4/BLE_eventHandler.c ****             /* One descriptor is available per service */
2719:.\Generated_Source\PSoC4/BLE_eventHandler.c ****             charRange.startHandle = cyBle_tpsc.txPowerLevelChar.valueHandle + 1u;
2720:.\Generated_Source\PSoC4/BLE_eventHandler.c ****             charRange.endHandle = cyBle_serverInfo[CYBLE_SRVI_TPS].range.endHandle;
2721:.\Generated_Source\PSoC4/BLE_eventHandler.c ****         }
2722:.\Generated_Source\PSoC4/BLE_eventHandler.c ****     }
2723:.\Generated_Source\PSoC4/BLE_eventHandler.c **** #endif /* CYBLE_TPS_CLIENT */
2724:.\Generated_Source\PSoC4/BLE_eventHandler.c **** #ifdef CYBLE_UDS_CLIENT
2725:.\Generated_Source\PSoC4/BLE_eventHandler.c ****     if((cyBle_disCount == (uint8) CYBLE_SCDI_UDS_DCI) || (cyBle_disCount == (uint8) CYBLE_SCDI_UDS_
2726:.\Generated_Source\PSoC4/BLE_eventHandler.c ****     {
2727:.\Generated_Source\PSoC4/BLE_eventHandler.c ****         uint8 charIdx;
2728:.\Generated_Source\PSoC4/BLE_eventHandler.c ****         if(cyBle_disCount == (uint8)CYBLE_SCDI_UDS_DCI)
2729:.\Generated_Source\PSoC4/BLE_eventHandler.c ****         {
2730:.\Generated_Source\PSoC4/BLE_eventHandler.c ****             charIdx = (uint8)CYBLE_UDS_DCI;
2731:.\Generated_Source\PSoC4/BLE_eventHandler.c ****         }
2732:.\Generated_Source\PSoC4/BLE_eventHandler.c ****         else
2733:.\Generated_Source\PSoC4/BLE_eventHandler.c ****         {
2734:.\Generated_Source\PSoC4/BLE_eventHandler.c ****             charIdx = (uint8)CYBLE_UDS_UCP;
2735:.\Generated_Source\PSoC4/BLE_eventHandler.c ****         }
2736:.\Generated_Source\PSoC4/BLE_eventHandler.c ****         
2737:.\Generated_Source\PSoC4/BLE_eventHandler.c ****         charRange.startHandle = cyBle_udsc.charInfo[charIdx].valueHandle + 1u;
2738:.\Generated_Source\PSoC4/BLE_eventHandler.c ****         charRange.endHandle = cyBle_udsc.charInfo[charIdx].endHandle;
2739:.\Generated_Source\PSoC4/BLE_eventHandler.c ****     }
2740:.\Generated_Source\PSoC4/BLE_eventHandler.c **** #endif /* CYBLE_UDS_CLIENT */
2741:.\Generated_Source\PSoC4/BLE_eventHandler.c **** #ifdef CYBLE_WPTS_CLIENT
2742:.\Generated_Source\PSoC4/BLE_eventHandler.c ****     if((cyBle_disCount == (uint8) CYBLE_SCDI_WPTS_PRU_ALERT))
2743:.\Generated_Source\PSoC4/BLE_eventHandler.c ****     {
2744:.\Generated_Source\PSoC4/BLE_eventHandler.c ****         charRange.startHandle = cyBle_wptsc.charInfo[CYBLE_WPTS_PRU_ALERT].valueHandle + 1u;
2745:.\Generated_Source\PSoC4/BLE_eventHandler.c ****         charRange.endHandle = cyBle_wptsc.charInfo[CYBLE_WPTS_PRU_ALERT].endHandle;
2746:.\Generated_Source\PSoC4/BLE_eventHandler.c ****     }
2747:.\Generated_Source\PSoC4/BLE_eventHandler.c **** #endif /* CYBLE_WPTS_CLIENT */
2748:.\Generated_Source\PSoC4/BLE_eventHandler.c **** #ifdef CYBLE_WSS_CLIENT
2749:.\Generated_Source\PSoC4/BLE_eventHandler.c ****     if((cyBle_disCount >= (uint8) CYBLE_SCDI_WSS_WEIGHT_SCALE_FEATURE) &&
ARM GAS  C:\Users\YBOURA~1\AppData\Local\Temp\cc3HigXd.s 			page 99


2750:.\Generated_Source\PSoC4/BLE_eventHandler.c ****        (cyBle_disCount <= (uint8) CYBLE_SCDI_WSS_WEIGHT_WEIGHT_MEASUREMENT))
2751:.\Generated_Source\PSoC4/BLE_eventHandler.c ****     {
2752:.\Generated_Source\PSoC4/BLE_eventHandler.c ****         charRange.startHandle = cyBle_wssc.charInfo[cyBle_disCount-CYBLE_SCDI_WSS_WEIGHT_SCALE_FEAT
2753:.\Generated_Source\PSoC4/BLE_eventHandler.c ****         charRange.endHandle = cyBle_wssc.charInfo[cyBle_disCount-CYBLE_SCDI_WSS_WEIGHT_SCALE_FEATUR
2754:.\Generated_Source\PSoC4/BLE_eventHandler.c ****     }
2755:.\Generated_Source\PSoC4/BLE_eventHandler.c **** #endif /* CYBLE_WSS_CLIENT */
2756:.\Generated_Source\PSoC4/BLE_eventHandler.c **** 
2757:.\Generated_Source\PSoC4/BLE_eventHandler.c ****     return (charRange);
 2795              		.loc 1 2757 0
 2796 002e 3B1D     		add	r3, r7, #4
 2797 0030 3A1C     		mov	r2, r7
 2798 0032 1268     		ldr	r2, [r2]
 2799 0034 1A60     		str	r2, [r3]
 2800 0036 3A1D     		add	r2, r7, #4
 2801 0038 0023     		mov	r3, #0
 2802 003a 1188     		ldrh	r1, [r2]
 2803 003c 0904     		lsl	r1, r1, #16
 2804 003e 090C     		lsr	r1, r1, #16
 2805 0040 1B0C     		lsr	r3, r3, #16
 2806 0042 1B04     		lsl	r3, r3, #16
 2807 0044 0B43     		orr	r3, r1
 2808 0046 5288     		ldrh	r2, [r2, #2]
 2809 0048 1204     		lsl	r2, r2, #16
 2810 004a 1B04     		lsl	r3, r3, #16
 2811 004c 1B0C     		lsr	r3, r3, #16
 2812 004e 1343     		orr	r3, r2
2758:.\Generated_Source\PSoC4/BLE_eventHandler.c **** }
 2813              		.loc 1 2758 0
 2814 0050 181C     		mov	r0, r3
 2815 0052 BD46     		mov	sp, r7
 2816 0054 02B0     		add	sp, sp, #8
 2817              		@ sp needed
 2818 0056 80BD     		pop	{r7, pc}
 2819              	.L192:
 2820              		.align	2
 2821              	.L191:
 2822 0058 00000000 		.word	cyBle_disCount
 2823 005c 00000000 		.word	cyBle_gattc
 2824 0060 00000000 		.word	cyBle_serverInfo
 2825              		.cfi_endproc
 2826              	.LFE20:
 2827              		.size	CyBle_GetCharRange, .-CyBle_GetCharRange
 2828              		.section	.text.CyBle_FindInfoEventHandler,"ax",%progbits
 2829              		.align	2
 2830              		.global	CyBle_FindInfoEventHandler
 2831              		.code	16
 2832              		.thumb_func
 2833              		.type	CyBle_FindInfoEventHandler, %function
 2834              	CyBle_FindInfoEventHandler:
 2835              	.LFB21:
2759:.\Generated_Source\PSoC4/BLE_eventHandler.c **** 
2760:.\Generated_Source\PSoC4/BLE_eventHandler.c **** 
2761:.\Generated_Source\PSoC4/BLE_eventHandler.c **** /****************************************************************************** 
2762:.\Generated_Source\PSoC4/BLE_eventHandler.c **** * Function Name: CyBle_FindInfoEventHandler
2763:.\Generated_Source\PSoC4/BLE_eventHandler.c **** ***************************************************************************//**
2764:.\Generated_Source\PSoC4/BLE_eventHandler.c **** *  Handles the Find Info Response Event during an automatic server discovery
2765:.\Generated_Source\PSoC4/BLE_eventHandler.c **** *  process.
ARM GAS  C:\Users\YBOURA~1\AppData\Local\Temp\cc3HigXd.s 			page 100


2766:.\Generated_Source\PSoC4/BLE_eventHandler.c **** * 
2767:.\Generated_Source\PSoC4/BLE_eventHandler.c **** *  \param eventParam:  the event parameters for a Find Info Response
2768:.\Generated_Source\PSoC4/BLE_eventHandler.c **** * 
2769:.\Generated_Source\PSoC4/BLE_eventHandler.c **** * \return
2770:.\Generated_Source\PSoC4/BLE_eventHandler.c **** *  None.
2771:.\Generated_Source\PSoC4/BLE_eventHandler.c **** * 
2772:.\Generated_Source\PSoC4/BLE_eventHandler.c **** ******************************************************************************/
2773:.\Generated_Source\PSoC4/BLE_eventHandler.c **** void CyBle_FindInfoEventHandler(CYBLE_GATTC_FIND_INFO_RSP_PARAM_T *eventParam)
2774:.\Generated_Source\PSoC4/BLE_eventHandler.c **** {
 2836              		.loc 1 2774 0
 2837              		.cfi_startproc
 2838 0000 80B5     		push	{r7, lr}
 2839              		.cfi_def_cfa_offset 8
 2840              		.cfi_offset 7, -8
 2841              		.cfi_offset 14, -4
 2842 0002 8AB0     		sub	sp, sp, #40
 2843              		.cfi_def_cfa_offset 48
 2844 0004 00AF     		add	r7, sp, #0
 2845              		.cfi_def_cfa_register 7
 2846 0006 7860     		str	r0, [r7, #4]
2775:.\Generated_Source\PSoC4/BLE_eventHandler.c ****     uint16 dataLength;
2776:.\Generated_Source\PSoC4/BLE_eventHandler.c ****     uint16 attrLength;
2777:.\Generated_Source\PSoC4/BLE_eventHandler.c ****     uint16 i;
2778:.\Generated_Source\PSoC4/BLE_eventHandler.c ****     uint8 *attrVal;
2779:.\Generated_Source\PSoC4/BLE_eventHandler.c **** 
2780:.\Generated_Source\PSoC4/BLE_eventHandler.c ****     /* Discovery descriptor information */
2781:.\Generated_Source\PSoC4/BLE_eventHandler.c ****     CYBLE_DISC_DESCR_INFO_T discDescrInfo;
2782:.\Generated_Source\PSoC4/BLE_eventHandler.c ****     discDescrInfo.descrHandle = CYBLE_GATT_INVALID_ATTR_HANDLE_VALUE;
 2847              		.loc 1 2782 0
 2848 0008 0823     		mov	r3, #8
 2849 000a FB18     		add	r3, r7, r3
 2850 000c 0022     		mov	r2, #0
 2851 000e 5A80     		strh	r2, [r3, #2]
2783:.\Generated_Source\PSoC4/BLE_eventHandler.c **** 
2784:.\Generated_Source\PSoC4/BLE_eventHandler.c ****     if((CYBLE_CLIENT_STATE_DESCR_DISCOVERING == CyBle_GetClientState()) 
 2852              		.loc 1 2784 0
 2853 0010 4E4B     		ldr	r3, .L204
 2854 0012 1B78     		ldrb	r3, [r3]
 2855 0014 042B     		cmp	r3, #4
 2856 0016 00D0     		beq	.LCB2501
 2857 0018 95E0     		b	.L193	@long jump
 2858              	.LCB2501:
2785:.\Generated_Source\PSoC4/BLE_eventHandler.c ****             && ((cyBle_eventHandlerFlag & CYBLE_AUTO_DISCOVERY) != 0u))
 2859              		.loc 1 2785 0
 2860 001a 4D4B     		ldr	r3, .L204+4
 2861 001c 1B78     		ldrb	r3, [r3]
 2862 001e DBB2     		uxtb	r3, r3
 2863 0020 1A1C     		mov	r2, r3
 2864 0022 0223     		mov	r3, #2
 2865 0024 1340     		and	r3, r2
 2866 0026 00D1     		bne	.LCB2509
 2867 0028 8DE0     		b	.L193	@long jump
 2868              	.LCB2509:
2786:.\Generated_Source\PSoC4/BLE_eventHandler.c ****     {
2787:.\Generated_Source\PSoC4/BLE_eventHandler.c ****         attrLength = eventParam->handleValueList.byteCount;    /* Number of elements on list in byt
 2869              		.loc 1 2787 0
 2870 002a 1E23     		mov	r3, #30
ARM GAS  C:\Users\YBOURA~1\AppData\Local\Temp\cc3HigXd.s 			page 101


 2871 002c FB18     		add	r3, r7, r3
 2872 002e 7A68     		ldr	r2, [r7, #4]
 2873 0030 1289     		ldrh	r2, [r2, #8]
 2874 0032 1A80     		strh	r2, [r3]
2788:.\Generated_Source\PSoC4/BLE_eventHandler.c ****         discDescrInfo.uuidFormat = eventParam->uuidFormat;
 2875              		.loc 1 2788 0
 2876 0034 7B68     		ldr	r3, [r7, #4]
 2877 0036 1A7B     		ldrb	r2, [r3, #12]
 2878 0038 0823     		mov	r3, #8
 2879 003a FB18     		add	r3, r7, r3
 2880 003c 1A75     		strb	r2, [r3, #20]
2789:.\Generated_Source\PSoC4/BLE_eventHandler.c ****         discDescrInfo.connHandle = eventParam->connHandle;
 2881              		.loc 1 2789 0
 2882 003e 0823     		mov	r3, #8
 2883 0040 FB18     		add	r3, r7, r3
 2884 0042 7A68     		ldr	r2, [r7, #4]
 2885 0044 1288     		ldrh	r2, [r2]
 2886 0046 1A80     		strh	r2, [r3]
2790:.\Generated_Source\PSoC4/BLE_eventHandler.c **** 
2791:.\Generated_Source\PSoC4/BLE_eventHandler.c ****         if(discDescrInfo.uuidFormat == CYBLE_GATT_16_BIT_UUID_FORMAT)
 2887              		.loc 1 2791 0
 2888 0048 0823     		mov	r3, #8
 2889 004a FB18     		add	r3, r7, r3
 2890 004c 1B7D     		ldrb	r3, [r3, #20]
 2891 004e 012B     		cmp	r3, #1
 2892 0050 04D1     		bne	.L195
2792:.\Generated_Source\PSoC4/BLE_eventHandler.c ****         {
2793:.\Generated_Source\PSoC4/BLE_eventHandler.c ****             dataLength = CYBLE_DB_ATTR_HANDLE_LEN + CYBLE_GATT_16_BIT_UUID_SIZE;
 2893              		.loc 1 2793 0
 2894 0052 2623     		mov	r3, #38
 2895 0054 FB18     		add	r3, r7, r3
 2896 0056 0422     		mov	r2, #4
 2897 0058 1A80     		strh	r2, [r3]
 2898 005a 03E0     		b	.L196
 2899              	.L195:
2794:.\Generated_Source\PSoC4/BLE_eventHandler.c ****         }
2795:.\Generated_Source\PSoC4/BLE_eventHandler.c ****         else
2796:.\Generated_Source\PSoC4/BLE_eventHandler.c ****         {
2797:.\Generated_Source\PSoC4/BLE_eventHandler.c ****             dataLength = CYBLE_DB_ATTR_HANDLE_LEN + CYBLE_GATT_128_BIT_UUID_SIZE;
 2900              		.loc 1 2797 0
 2901 005c 2623     		mov	r3, #38
 2902 005e FB18     		add	r3, r7, r3
 2903 0060 1222     		mov	r2, #18
 2904 0062 1A80     		strh	r2, [r3]
 2905              	.L196:
2798:.\Generated_Source\PSoC4/BLE_eventHandler.c ****         }
2799:.\Generated_Source\PSoC4/BLE_eventHandler.c ****         attrVal = eventParam->handleValueList.list;
 2906              		.loc 1 2799 0
 2907 0064 7B68     		ldr	r3, [r7, #4]
 2908 0066 5B68     		ldr	r3, [r3, #4]
 2909 0068 3B62     		str	r3, [r7, #32]
2800:.\Generated_Source\PSoC4/BLE_eventHandler.c **** 
2801:.\Generated_Source\PSoC4/BLE_eventHandler.c ****         for(i = 0u; i < attrLength; i += dataLength)
 2910              		.loc 1 2801 0
 2911 006a 2423     		mov	r3, #36
 2912 006c FB18     		add	r3, r7, r3
 2913 006e 0022     		mov	r2, #0
ARM GAS  C:\Users\YBOURA~1\AppData\Local\Temp\cc3HigXd.s 			page 102


 2914 0070 1A80     		strh	r2, [r3]
 2915 0072 4EE0     		b	.L197
 2916              	.L202:
2802:.\Generated_Source\PSoC4/BLE_eventHandler.c ****         {
2803:.\Generated_Source\PSoC4/BLE_eventHandler.c ****             discDescrInfo.descrHandle = CyBle_Get16ByPtr(attrVal);
 2917              		.loc 1 2803 0
 2918 0074 3B6A     		ldr	r3, [r7, #32]
 2919 0076 181C     		mov	r0, r3
 2920 0078 FFF7FEFF 		bl	CyBle_Get16ByPtr
 2921 007c 031C     		mov	r3, r0
 2922 007e 1A1C     		mov	r2, r3
 2923 0080 0823     		mov	r3, #8
 2924 0082 FB18     		add	r3, r7, r3
 2925 0084 5A80     		strh	r2, [r3, #2]
2804:.\Generated_Source\PSoC4/BLE_eventHandler.c ****             attrVal += CYBLE_DB_ATTR_HANDLE_LEN;
 2926              		.loc 1 2804 0
 2927 0086 3B6A     		ldr	r3, [r7, #32]
 2928 0088 0233     		add	r3, r3, #2
 2929 008a 3B62     		str	r3, [r7, #32]
2805:.\Generated_Source\PSoC4/BLE_eventHandler.c ****             if(discDescrInfo.uuidFormat == CYBLE_GATT_128_BIT_UUID_FORMAT)
 2930              		.loc 1 2805 0
 2931 008c 0823     		mov	r3, #8
 2932 008e FB18     		add	r3, r7, r3
 2933 0090 1B7D     		ldrb	r3, [r3, #20]
 2934 0092 022B     		cmp	r3, #2
 2935 0094 15D1     		bne	.L198
2806:.\Generated_Source\PSoC4/BLE_eventHandler.c ****             {
2807:.\Generated_Source\PSoC4/BLE_eventHandler.c ****                 (void)memcpy(&discDescrInfo.uuid.uuid128, attrVal, CYBLE_GATT_128_BIT_UUID_SIZE);
 2936              		.loc 1 2807 0
 2937 0096 0823     		mov	r3, #8
 2938 0098 FB18     		add	r3, r7, r3
 2939 009a 3A6A     		ldr	r2, [r7, #32]
 2940 009c 0433     		add	r3, r3, #4
 2941 009e 111C     		mov	r1, r2
 2942 00a0 1022     		mov	r2, #16
 2943 00a2 181C     		mov	r0, r3
 2944 00a4 FFF7FEFF 		bl	memcpy
2808:.\Generated_Source\PSoC4/BLE_eventHandler.c ****                 attrVal += CYBLE_GATT_128_BIT_UUID_SIZE;
 2945              		.loc 1 2808 0
 2946 00a8 3B6A     		ldr	r3, [r7, #32]
 2947 00aa 1033     		add	r3, r3, #16
 2948 00ac 3B62     		str	r3, [r7, #32]
2809:.\Generated_Source\PSoC4/BLE_eventHandler.c ****                 #ifdef CYBLE_CUSTOM_CLIENT
2810:.\Generated_Source\PSoC4/BLE_eventHandler.c ****                     if(cyBle_disCount == (uint8) CYBLE_SCDI_CUSTOM_CHARACTERISTICS)
 2949              		.loc 1 2810 0
 2950 00ae 294B     		ldr	r3, .L204+8
 2951 00b0 1B78     		ldrb	r3, [r3]
 2952 00b2 012B     		cmp	r3, #1
 2953 00b4 23D1     		bne	.L200
2811:.\Generated_Source\PSoC4/BLE_eventHandler.c ****                     {
2812:.\Generated_Source\PSoC4/BLE_eventHandler.c ****                         CyBle_CustomcDiscoverCharDescriptorsEventHandler(&discDescrInfo);
 2954              		.loc 1 2812 0
 2955 00b6 0823     		mov	r3, #8
 2956 00b8 FB18     		add	r3, r7, r3
 2957 00ba 181C     		mov	r0, r3
 2958 00bc FFF7FEFF 		bl	CyBle_CustomcDiscoverCharDescriptorsEventHandler
 2959 00c0 1DE0     		b	.L200
ARM GAS  C:\Users\YBOURA~1\AppData\Local\Temp\cc3HigXd.s 			page 103


 2960              	.L198:
2813:.\Generated_Source\PSoC4/BLE_eventHandler.c ****                     }
2814:.\Generated_Source\PSoC4/BLE_eventHandler.c ****                 #endif /* CYBLE_CUSTOM_CLIENT */
2815:.\Generated_Source\PSoC4/BLE_eventHandler.c ****             }
2816:.\Generated_Source\PSoC4/BLE_eventHandler.c ****             else
2817:.\Generated_Source\PSoC4/BLE_eventHandler.c ****             {
2818:.\Generated_Source\PSoC4/BLE_eventHandler.c ****                 discDescrInfo.uuid.uuid16 = CyBle_Get16ByPtr(attrVal);
 2961              		.loc 1 2818 0
 2962 00c2 3B6A     		ldr	r3, [r7, #32]
 2963 00c4 181C     		mov	r0, r3
 2964 00c6 FFF7FEFF 		bl	CyBle_Get16ByPtr
 2965 00ca 031C     		mov	r3, r0
 2966 00cc 1A1C     		mov	r2, r3
 2967 00ce 0823     		mov	r3, #8
 2968 00d0 FB18     		add	r3, r7, r3
 2969 00d2 9A80     		strh	r2, [r3, #4]
2819:.\Generated_Source\PSoC4/BLE_eventHandler.c ****                 attrVal += CYBLE_GATT_16_BIT_UUID_SIZE;
 2970              		.loc 1 2819 0
 2971 00d4 3B6A     		ldr	r3, [r7, #32]
 2972 00d6 0233     		add	r3, r3, #2
 2973 00d8 3B62     		str	r3, [r7, #32]
2820:.\Generated_Source\PSoC4/BLE_eventHandler.c ****                 
2821:.\Generated_Source\PSoC4/BLE_eventHandler.c ****                 if(cyBle_disCount == (uint8) CYBLE_SCDI_GATT_SERVICE_CHANGED)
 2974              		.loc 1 2821 0
 2975 00da 1E4B     		ldr	r3, .L204+8
 2976 00dc 1B78     		ldrb	r3, [r3]
 2977 00de 002B     		cmp	r3, #0
 2978 00e0 04D1     		bne	.L201
2822:.\Generated_Source\PSoC4/BLE_eventHandler.c ****                 {
2823:.\Generated_Source\PSoC4/BLE_eventHandler.c ****                     CyBle_GattcDiscoverCharDescriptorsEventHandler(&discDescrInfo);
 2979              		.loc 1 2823 0
 2980 00e2 0823     		mov	r3, #8
 2981 00e4 FB18     		add	r3, r7, r3
 2982 00e6 181C     		mov	r0, r3
 2983 00e8 FFF7FEFF 		bl	CyBle_GattcDiscoverCharDescriptorsEventHandler
 2984              	.L201:
2824:.\Generated_Source\PSoC4/BLE_eventHandler.c ****                 }
2825:.\Generated_Source\PSoC4/BLE_eventHandler.c ****                 
2826:.\Generated_Source\PSoC4/BLE_eventHandler.c ****                 
2827:.\Generated_Source\PSoC4/BLE_eventHandler.c ****                 #ifdef CYBLE_ANCS_CLIENT
2828:.\Generated_Source\PSoC4/BLE_eventHandler.c ****                     if((cyBle_disCount == (uint8) CYBLE_SCDI_ANCS_NS) ||
2829:.\Generated_Source\PSoC4/BLE_eventHandler.c ****                         (cyBle_disCount == (uint8) CYBLE_SCDI_ANCS_DS))
2830:.\Generated_Source\PSoC4/BLE_eventHandler.c ****                     {
2831:.\Generated_Source\PSoC4/BLE_eventHandler.c ****                         CyBle_AncscDiscoverCharDescriptorsEventHandler(&discDescrInfo);
2832:.\Generated_Source\PSoC4/BLE_eventHandler.c ****                     }
2833:.\Generated_Source\PSoC4/BLE_eventHandler.c ****                 #endif /* CYBLE_ANCS_CLIENT */
2834:.\Generated_Source\PSoC4/BLE_eventHandler.c ****                 
2835:.\Generated_Source\PSoC4/BLE_eventHandler.c ****                 #ifdef CYBLE_ANS_CLIENT
2836:.\Generated_Source\PSoC4/BLE_eventHandler.c ****                     if((cyBle_disCount >= (uint8) CYBLE_SCDI_ANS_SUPPORTED_NEW_ALERT_CAT) &&
2837:.\Generated_Source\PSoC4/BLE_eventHandler.c ****                         (cyBle_disCount <= (uint8) CYBLE_SCDI_ANS_ALERT_NTF_CONTROL_POINT))
2838:.\Generated_Source\PSoC4/BLE_eventHandler.c ****                     {
2839:.\Generated_Source\PSoC4/BLE_eventHandler.c ****                         CyBle_AnscDiscoverCharDescriptorsEventHandler(&discDescrInfo);
2840:.\Generated_Source\PSoC4/BLE_eventHandler.c ****                     }
2841:.\Generated_Source\PSoC4/BLE_eventHandler.c ****                 #endif /* CYBLE_ANS_CLIENT */
2842:.\Generated_Source\PSoC4/BLE_eventHandler.c ****                 
2843:.\Generated_Source\PSoC4/BLE_eventHandler.c ****                 #ifdef CYBLE_BAS_CLIENT
2844:.\Generated_Source\PSoC4/BLE_eventHandler.c ****                     if((cyBle_disCount >= (uint8) CYBLE_SCDI_BAS_LEVEL) &&
ARM GAS  C:\Users\YBOURA~1\AppData\Local\Temp\cc3HigXd.s 			page 104


2845:.\Generated_Source\PSoC4/BLE_eventHandler.c ****                         (cyBle_disCount <= (uint8) CYBLE_SCDI_BAS_LEVEL_END))
2846:.\Generated_Source\PSoC4/BLE_eventHandler.c ****                     {
2847:.\Generated_Source\PSoC4/BLE_eventHandler.c ****                         CyBle_BascDiscoverCharDescriptorsEventHandler(cyBle_disCount - CYBLE_SCDI_B
2848:.\Generated_Source\PSoC4/BLE_eventHandler.c ****                                                                       &discDescrInfo);
2849:.\Generated_Source\PSoC4/BLE_eventHandler.c ****                     }
2850:.\Generated_Source\PSoC4/BLE_eventHandler.c ****                 #endif /* CYBLE_BAS_CLIENT */
2851:.\Generated_Source\PSoC4/BLE_eventHandler.c ****                 
2852:.\Generated_Source\PSoC4/BLE_eventHandler.c ****                 #ifdef CYBLE_BCS_CLIENT
2853:.\Generated_Source\PSoC4/BLE_eventHandler.c ****                     if((cyBle_disCount == (uint8) CYBLE_SCDI_BCS_BODY_COMPOSITION_FEATURE) ||
2854:.\Generated_Source\PSoC4/BLE_eventHandler.c ****                         (cyBle_disCount == (uint8) CYBLE_SCDI_BCS_BODY_COMPOSITION_MEASUREMENT))
2855:.\Generated_Source\PSoC4/BLE_eventHandler.c ****                     {
2856:.\Generated_Source\PSoC4/BLE_eventHandler.c ****                         CyBle_BcscDiscoverCharDescriptorsEventHandler(&discDescrInfo);
2857:.\Generated_Source\PSoC4/BLE_eventHandler.c ****                     }
2858:.\Generated_Source\PSoC4/BLE_eventHandler.c ****                 #endif /* CYBLE_BCS_CLIENT */
2859:.\Generated_Source\PSoC4/BLE_eventHandler.c ****                 
2860:.\Generated_Source\PSoC4/BLE_eventHandler.c ****                 #ifdef CYBLE_BLS_CLIENT
2861:.\Generated_Source\PSoC4/BLE_eventHandler.c ****                     if((cyBle_disCount == (uint8) CYBLE_SCDI_BLS_BPM) || (cyBle_disCount == (uint8)
2862:.\Generated_Source\PSoC4/BLE_eventHandler.c ****                     {
2863:.\Generated_Source\PSoC4/BLE_eventHandler.c ****                         CyBle_BlscDiscoverCharDescriptorsEventHandler(&discDescrInfo);
2864:.\Generated_Source\PSoC4/BLE_eventHandler.c ****                     }
2865:.\Generated_Source\PSoC4/BLE_eventHandler.c ****                 #endif /* CYBLE_BLS_CLIENT */
2866:.\Generated_Source\PSoC4/BLE_eventHandler.c ****                 
2867:.\Generated_Source\PSoC4/BLE_eventHandler.c ****                 #ifdef CYBLE_BMS_CLIENT
2868:.\Generated_Source\PSoC4/BLE_eventHandler.c ****                     if(cyBle_disCount == (uint8) CYBLE_SCDI_BMS_BMCP)
2869:.\Generated_Source\PSoC4/BLE_eventHandler.c ****                     {
2870:.\Generated_Source\PSoC4/BLE_eventHandler.c ****                         CyBle_BmscDiscoverCharDescriptorsEventHandler(&discDescrInfo);
2871:.\Generated_Source\PSoC4/BLE_eventHandler.c ****                     }
2872:.\Generated_Source\PSoC4/BLE_eventHandler.c ****                 #endif /* CYBLE_BMS_CLIENT */
2873:.\Generated_Source\PSoC4/BLE_eventHandler.c ****                 
2874:.\Generated_Source\PSoC4/BLE_eventHandler.c ****                 #ifdef CYBLE_CGMS_CLIENT
2875:.\Generated_Source\PSoC4/BLE_eventHandler.c ****                     if((cyBle_disCount >= (uint8) CYBLE_SCDI_CGMS_CGMT) &&
2876:.\Generated_Source\PSoC4/BLE_eventHandler.c ****                         (cyBle_disCount <= (uint8) CYBLE_SCDI_CGMS_SOCP))
2877:.\Generated_Source\PSoC4/BLE_eventHandler.c ****                     {
2878:.\Generated_Source\PSoC4/BLE_eventHandler.c ****                         CyBle_CgmscDiscoverCharDescriptorsEventHandler(&discDescrInfo);
2879:.\Generated_Source\PSoC4/BLE_eventHandler.c ****                     }
2880:.\Generated_Source\PSoC4/BLE_eventHandler.c ****                 #endif /* CYBLE_CGMS_CLIENT */
2881:.\Generated_Source\PSoC4/BLE_eventHandler.c **** 
2882:.\Generated_Source\PSoC4/BLE_eventHandler.c ****                 #ifdef CYBLE_CPS_CLIENT
2883:.\Generated_Source\PSoC4/BLE_eventHandler.c ****                     if((cyBle_disCount >= (uint8) CYBLE_SCDI_CPS_POWER_MEASURE) &&
2884:.\Generated_Source\PSoC4/BLE_eventHandler.c ****                         (cyBle_disCount <= (uint8)CYBLE_SCDI_CPS_POWER_CP))
2885:.\Generated_Source\PSoC4/BLE_eventHandler.c ****                     {
2886:.\Generated_Source\PSoC4/BLE_eventHandler.c ****                         uint8 charIdx = cyBle_disCount - CYBLE_SCDI_CPS_POWER_MEASURE;
2887:.\Generated_Source\PSoC4/BLE_eventHandler.c ****                         CyBle_CpscDiscoverCharDescriptorsEventHandler((CYBLE_CPS_CHAR_INDEX_T)charI
2888:.\Generated_Source\PSoC4/BLE_eventHandler.c ****                     }
2889:.\Generated_Source\PSoC4/BLE_eventHandler.c ****                 #endif /* CYBLE_CPS_CLIENT */
2890:.\Generated_Source\PSoC4/BLE_eventHandler.c **** 
2891:.\Generated_Source\PSoC4/BLE_eventHandler.c ****                 #ifdef CYBLE_CSCS_CLIENT
2892:.\Generated_Source\PSoC4/BLE_eventHandler.c ****                     if((cyBle_disCount >= (uint8) CYBLE_SCDI_CSCS_CSC_MEASUREMENT) && 
2893:.\Generated_Source\PSoC4/BLE_eventHandler.c ****                        (cyBle_disCount <= (uint8) CYBLE_SCDI_CSCS_SC_CONTROL_POINT))
2894:.\Generated_Source\PSoC4/BLE_eventHandler.c ****                     {
2895:.\Generated_Source\PSoC4/BLE_eventHandler.c ****                         if(cyBle_disCount == (uint8) CYBLE_SCDI_CSCS_CSC_MEASUREMENT)
2896:.\Generated_Source\PSoC4/BLE_eventHandler.c ****                         {
2897:.\Generated_Source\PSoC4/BLE_eventHandler.c ****                             /* The CCC descriptor of CSC Measurement is currently discovering */
2898:.\Generated_Source\PSoC4/BLE_eventHandler.c ****                             CyBle_CscscDiscoverCharDescriptorsEventHandler(CYBLE_CSCS_CSC_MEASUREME
2899:.\Generated_Source\PSoC4/BLE_eventHandler.c ****                         }
2900:.\Generated_Source\PSoC4/BLE_eventHandler.c ****                         else if(cyBle_disCount == (uint8) CYBLE_SCDI_CSCS_SC_CONTROL_POINT)
2901:.\Generated_Source\PSoC4/BLE_eventHandler.c ****                         {
ARM GAS  C:\Users\YBOURA~1\AppData\Local\Temp\cc3HigXd.s 			page 105


2902:.\Generated_Source\PSoC4/BLE_eventHandler.c ****                             /* The CCC descriptor of SC Control Point is currently discovering */
2903:.\Generated_Source\PSoC4/BLE_eventHandler.c ****                             CyBle_CscscDiscoverCharDescriptorsEventHandler(CYBLE_CSCS_SC_CONTROL_PO
2904:.\Generated_Source\PSoC4/BLE_eventHandler.c ****                         }
2905:.\Generated_Source\PSoC4/BLE_eventHandler.c ****                         else
2906:.\Generated_Source\PSoC4/BLE_eventHandler.c ****                         {
2907:.\Generated_Source\PSoC4/BLE_eventHandler.c ****                             /* No other descriptors are present for CSCS */
2908:.\Generated_Source\PSoC4/BLE_eventHandler.c ****                         }
2909:.\Generated_Source\PSoC4/BLE_eventHandler.c ****                     }
2910:.\Generated_Source\PSoC4/BLE_eventHandler.c ****                 #endif /* CYBLE_CSCS_CLIENT */
2911:.\Generated_Source\PSoC4/BLE_eventHandler.c ****                 
2912:.\Generated_Source\PSoC4/BLE_eventHandler.c ****                 #ifdef CYBLE_CTS_CLIENT
2913:.\Generated_Source\PSoC4/BLE_eventHandler.c ****                     if(cyBle_disCount == (uint8) CYBLE_SCDI_CTS_CURRENT_TIME)
2914:.\Generated_Source\PSoC4/BLE_eventHandler.c ****                     {
2915:.\Generated_Source\PSoC4/BLE_eventHandler.c ****                         CyBle_CtscDiscoverCharDescriptorsEventHandler(&discDescrInfo);
2916:.\Generated_Source\PSoC4/BLE_eventHandler.c ****                     }
2917:.\Generated_Source\PSoC4/BLE_eventHandler.c ****                 #endif /* CYBLE_CTS_CLIENT */
2918:.\Generated_Source\PSoC4/BLE_eventHandler.c **** 
2919:.\Generated_Source\PSoC4/BLE_eventHandler.c ****                 #ifdef CYBLE_CUSTOM_CLIENT
2920:.\Generated_Source\PSoC4/BLE_eventHandler.c ****                     if(cyBle_disCount == (uint8) CYBLE_SCDI_CUSTOM_CHARACTERISTICS)
 2985              		.loc 1 2920 0
 2986 00ec 194B     		ldr	r3, .L204+8
 2987 00ee 1B78     		ldrb	r3, [r3]
 2988 00f0 012B     		cmp	r3, #1
 2989 00f2 04D1     		bne	.L200
2921:.\Generated_Source\PSoC4/BLE_eventHandler.c ****                     {
2922:.\Generated_Source\PSoC4/BLE_eventHandler.c ****                         CyBle_CustomcDiscoverCharDescriptorsEventHandler(&discDescrInfo);
 2990              		.loc 1 2922 0
 2991 00f4 0823     		mov	r3, #8
 2992 00f6 FB18     		add	r3, r7, r3
 2993 00f8 181C     		mov	r0, r3
 2994 00fa FFF7FEFF 		bl	CyBle_CustomcDiscoverCharDescriptorsEventHandler
 2995              	.L200:
2801:.\Generated_Source\PSoC4/BLE_eventHandler.c ****         {
 2996              		.loc 1 2801 0 discriminator 2
 2997 00fe 2423     		mov	r3, #36
 2998 0100 FB18     		add	r3, r7, r3
 2999 0102 2422     		mov	r2, #36
 3000 0104 B918     		add	r1, r7, r2
 3001 0106 2622     		mov	r2, #38
 3002 0108 BA18     		add	r2, r7, r2
 3003 010a 0988     		ldrh	r1, [r1]
 3004 010c 1288     		ldrh	r2, [r2]
 3005 010e 8A18     		add	r2, r1, r2
 3006 0110 1A80     		strh	r2, [r3]
 3007              	.L197:
2801:.\Generated_Source\PSoC4/BLE_eventHandler.c ****         {
 3008              		.loc 1 2801 0 is_stmt 0 discriminator 1
 3009 0112 2423     		mov	r3, #36
 3010 0114 FA18     		add	r2, r7, r3
 3011 0116 1E23     		mov	r3, #30
 3012 0118 FB18     		add	r3, r7, r3
 3013 011a 1288     		ldrh	r2, [r2]
 3014 011c 1B88     		ldrh	r3, [r3]
 3015 011e 9A42     		cmp	r2, r3
 3016 0120 A8D3     		bcc	.L202
2923:.\Generated_Source\PSoC4/BLE_eventHandler.c ****                     }
2924:.\Generated_Source\PSoC4/BLE_eventHandler.c ****                 #endif /* CYBLE_CUSTOM_CLIENT */
ARM GAS  C:\Users\YBOURA~1\AppData\Local\Temp\cc3HigXd.s 			page 106


2925:.\Generated_Source\PSoC4/BLE_eventHandler.c ****                 
2926:.\Generated_Source\PSoC4/BLE_eventHandler.c ****                 #ifdef CYBLE_ESS_CLIENT
2927:.\Generated_Source\PSoC4/BLE_eventHandler.c ****                     if((cyBle_disCount >= (uint8) CYBLE_SCDI_ESS_DESCRIPTOR_VALUE_CHANGED) &&
2928:.\Generated_Source\PSoC4/BLE_eventHandler.c ****                         (cyBle_disCount <= (uint8) CYBLE_SCDI_ESS_END_CHAR))
2929:.\Generated_Source\PSoC4/BLE_eventHandler.c ****                     {
2930:.\Generated_Source\PSoC4/BLE_eventHandler.c ****                         CyBle_EsscDiscoverCharDescriptorsEventHandler(&discDescrInfo);
2931:.\Generated_Source\PSoC4/BLE_eventHandler.c ****                     }
2932:.\Generated_Source\PSoC4/BLE_eventHandler.c ****                 #endif /* CYBLE_ESS_CLIENT */
2933:.\Generated_Source\PSoC4/BLE_eventHandler.c **** 
2934:.\Generated_Source\PSoC4/BLE_eventHandler.c ****                 #ifdef CYBLE_GLS_CLIENT
2935:.\Generated_Source\PSoC4/BLE_eventHandler.c ****                     if((cyBle_disCount >= (uint8) CYBLE_SCDI_GLS_GLMT) &&
2936:.\Generated_Source\PSoC4/BLE_eventHandler.c ****                         (cyBle_disCount <= (uint8) CYBLE_SCDI_GLS_RACP))
2937:.\Generated_Source\PSoC4/BLE_eventHandler.c ****                     {
2938:.\Generated_Source\PSoC4/BLE_eventHandler.c ****                         CyBle_GlscDiscoverCharDescriptorsEventHandler(&discDescrInfo);
2939:.\Generated_Source\PSoC4/BLE_eventHandler.c ****                     }
2940:.\Generated_Source\PSoC4/BLE_eventHandler.c ****                 #endif /* CYBLE_GLS_CLIENT */
2941:.\Generated_Source\PSoC4/BLE_eventHandler.c **** 
2942:.\Generated_Source\PSoC4/BLE_eventHandler.c ****                 #ifdef CYBLE_HIDS_CLIENT
2943:.\Generated_Source\PSoC4/BLE_eventHandler.c ****                     if((cyBle_disCount >= (uint8) CYBLE_SCDI_HIDS_REPORT_MAP) &&
2944:.\Generated_Source\PSoC4/BLE_eventHandler.c ****                         (cyBle_disCount <= (uint8) CYBLE_SCDI_HIDS_REPORT_END))
2945:.\Generated_Source\PSoC4/BLE_eventHandler.c ****                     {
2946:.\Generated_Source\PSoC4/BLE_eventHandler.c ****                         CyBle_HidscDiscoverCharDescriptorsEventHandler(disServiceIndex, cyBle_disCo
2947:.\Generated_Source\PSoC4/BLE_eventHandler.c ****                     }
2948:.\Generated_Source\PSoC4/BLE_eventHandler.c ****                 #endif /* CYBLE_HIDS_CLIENT */
2949:.\Generated_Source\PSoC4/BLE_eventHandler.c **** 
2950:.\Generated_Source\PSoC4/BLE_eventHandler.c ****                 #ifdef CYBLE_HRS_CLIENT
2951:.\Generated_Source\PSoC4/BLE_eventHandler.c ****                     if(cyBle_disCount == (uint8) CYBLE_SCDI_HRS_HRM)
2952:.\Generated_Source\PSoC4/BLE_eventHandler.c ****                     {
2953:.\Generated_Source\PSoC4/BLE_eventHandler.c ****                         CyBle_HrscDiscoverCharDescriptorsEventHandler(&discDescrInfo);
2954:.\Generated_Source\PSoC4/BLE_eventHandler.c ****                     }
2955:.\Generated_Source\PSoC4/BLE_eventHandler.c ****                 #endif /* CYBLE_HRS_CLIENT */
2956:.\Generated_Source\PSoC4/BLE_eventHandler.c **** 
2957:.\Generated_Source\PSoC4/BLE_eventHandler.c ****                 #ifdef CYBLE_HTS_CLIENT
2958:.\Generated_Source\PSoC4/BLE_eventHandler.c ****                     if((cyBle_disCount >= (uint8) CYBLE_SCDI_HTS_TEMP_MEASURE) && 
2959:.\Generated_Source\PSoC4/BLE_eventHandler.c ****                        (cyBle_disCount <= (uint8) CYBLE_SCDI_HTS_MEASURE_INTERVAL))
2960:.\Generated_Source\PSoC4/BLE_eventHandler.c ****                     {
2961:.\Generated_Source\PSoC4/BLE_eventHandler.c ****                         uint8 charIdx = cyBle_disCount - CYBLE_SCDI_HTS_TEMP_MEASURE;
2962:.\Generated_Source\PSoC4/BLE_eventHandler.c ****                         CyBle_HtscDiscoverCharDescriptorsEventHandler((CYBLE_HTS_CHAR_INDEX_T)charI
2963:.\Generated_Source\PSoC4/BLE_eventHandler.c ****                     }
2964:.\Generated_Source\PSoC4/BLE_eventHandler.c ****                 #endif /* CYBLE_HTS_CLIENT */
2965:.\Generated_Source\PSoC4/BLE_eventHandler.c ****                 
2966:.\Generated_Source\PSoC4/BLE_eventHandler.c ****                 #ifdef CYBLE_LNS_CLIENT
2967:.\Generated_Source\PSoC4/BLE_eventHandler.c ****                     if((cyBle_disCount >= (uint8) CYBLE_SCDI_LNS_LS) && 
2968:.\Generated_Source\PSoC4/BLE_eventHandler.c ****                        (cyBle_disCount <= (uint8) CYBLE_SCDI_LNS_NV))
2969:.\Generated_Source\PSoC4/BLE_eventHandler.c ****                     {
2970:.\Generated_Source\PSoC4/BLE_eventHandler.c ****                         CyBle_LnscDiscoverCharDescriptorsEventHandler(&discDescrInfo);
2971:.\Generated_Source\PSoC4/BLE_eventHandler.c ****                     }
2972:.\Generated_Source\PSoC4/BLE_eventHandler.c ****                 #endif /* CYBLE_LNS_CLIENT */
2973:.\Generated_Source\PSoC4/BLE_eventHandler.c ****                 
2974:.\Generated_Source\PSoC4/BLE_eventHandler.c ****                 #ifdef CYBLE_PASS_CLIENT
2975:.\Generated_Source\PSoC4/BLE_eventHandler.c ****                     if((cyBle_disCount == (uint8) CYBLE_SCDI_PASS_AS) || 
2976:.\Generated_Source\PSoC4/BLE_eventHandler.c ****                         (cyBle_disCount == (uint8) CYBLE_SCDI_PASS_RS))
2977:.\Generated_Source\PSoC4/BLE_eventHandler.c ****                     {
2978:.\Generated_Source\PSoC4/BLE_eventHandler.c ****                         CyBle_PasscDiscoverCharDescriptorsEventHandler(&discDescrInfo);
2979:.\Generated_Source\PSoC4/BLE_eventHandler.c ****                     }
2980:.\Generated_Source\PSoC4/BLE_eventHandler.c ****                 #endif /* CYBLE_PASS_CLIENT */
2981:.\Generated_Source\PSoC4/BLE_eventHandler.c **** 
ARM GAS  C:\Users\YBOURA~1\AppData\Local\Temp\cc3HigXd.s 			page 107


2982:.\Generated_Source\PSoC4/BLE_eventHandler.c ****                 #ifdef CYBLE_RSCS_CLIENT
2983:.\Generated_Source\PSoC4/BLE_eventHandler.c ****                     if((cyBle_disCount >= (uint8) CYBLE_SCDI_RSCS_RSC_MEASUREMENT) && 
2984:.\Generated_Source\PSoC4/BLE_eventHandler.c ****                        (cyBle_disCount <= (uint8) CYBLE_SCDI_RSCS_SC_CONTROL_POINT))
2985:.\Generated_Source\PSoC4/BLE_eventHandler.c ****                     {
2986:.\Generated_Source\PSoC4/BLE_eventHandler.c ****                         if(cyBle_disCount == (uint8) CYBLE_SCDI_RSCS_RSC_MEASUREMENT)
2987:.\Generated_Source\PSoC4/BLE_eventHandler.c ****                         {
2988:.\Generated_Source\PSoC4/BLE_eventHandler.c ****                             /* The CCC descriptor of RSC Measurement is currently discovering */
2989:.\Generated_Source\PSoC4/BLE_eventHandler.c ****                             CyBle_RscscDiscoverCharDescriptorsEventHandler(CYBLE_RSCS_RSC_MEASUREME
2990:.\Generated_Source\PSoC4/BLE_eventHandler.c ****                         }
2991:.\Generated_Source\PSoC4/BLE_eventHandler.c ****                         else if(cyBle_disCount == (uint8) CYBLE_SCDI_RSCS_SC_CONTROL_POINT)
2992:.\Generated_Source\PSoC4/BLE_eventHandler.c ****                         {
2993:.\Generated_Source\PSoC4/BLE_eventHandler.c ****                             /* The CCC descriptor of SC Control Point is currently discovering */
2994:.\Generated_Source\PSoC4/BLE_eventHandler.c ****                             CyBle_RscscDiscoverCharDescriptorsEventHandler(CYBLE_RSCS_SC_CONTROL_PO
2995:.\Generated_Source\PSoC4/BLE_eventHandler.c ****                         }
2996:.\Generated_Source\PSoC4/BLE_eventHandler.c ****                         else
2997:.\Generated_Source\PSoC4/BLE_eventHandler.c ****                         {
2998:.\Generated_Source\PSoC4/BLE_eventHandler.c ****                             /* No other descriptors are present for RSCS */
2999:.\Generated_Source\PSoC4/BLE_eventHandler.c ****                         }
3000:.\Generated_Source\PSoC4/BLE_eventHandler.c ****                     }
3001:.\Generated_Source\PSoC4/BLE_eventHandler.c ****                 #endif /* CYBLE_RSCS_CLIENT */
3002:.\Generated_Source\PSoC4/BLE_eventHandler.c **** 
3003:.\Generated_Source\PSoC4/BLE_eventHandler.c ****                 #ifdef CYBLE_SCPS_CLIENT
3004:.\Generated_Source\PSoC4/BLE_eventHandler.c ****                     if(cyBle_disCount == (uint8) CYBLE_SCDI_SCPS_SCAN_REFRESH)
3005:.\Generated_Source\PSoC4/BLE_eventHandler.c ****                     {
3006:.\Generated_Source\PSoC4/BLE_eventHandler.c ****                         CyBle_ScpscDiscoverCharDescriptorsEventHandler(&discDescrInfo);
3007:.\Generated_Source\PSoC4/BLE_eventHandler.c ****                     }
3008:.\Generated_Source\PSoC4/BLE_eventHandler.c ****                 #endif /* CYBLE_SCPS_CLIENT */
3009:.\Generated_Source\PSoC4/BLE_eventHandler.c ****                 
3010:.\Generated_Source\PSoC4/BLE_eventHandler.c ****                 #ifdef CYBLE_TPS_CLIENT
3011:.\Generated_Source\PSoC4/BLE_eventHandler.c ****                     if(cyBle_disCount == (uint8) CYBLE_SCDI_TPS_TX_PWR_LEVEL)
3012:.\Generated_Source\PSoC4/BLE_eventHandler.c ****                     {
3013:.\Generated_Source\PSoC4/BLE_eventHandler.c ****                         CyBle_TpscDiscoverCharDescriptorsEventHandler(&discDescrInfo);
3014:.\Generated_Source\PSoC4/BLE_eventHandler.c ****                     }
3015:.\Generated_Source\PSoC4/BLE_eventHandler.c ****                 #endif /* CYBLE_TPS_CLIENT */
3016:.\Generated_Source\PSoC4/BLE_eventHandler.c ****                 
3017:.\Generated_Source\PSoC4/BLE_eventHandler.c ****                 #ifdef CYBLE_UDS_CLIENT
3018:.\Generated_Source\PSoC4/BLE_eventHandler.c ****                     if((cyBle_disCount == (uint8) CYBLE_SCDI_UDS_DCI) || 
3019:.\Generated_Source\PSoC4/BLE_eventHandler.c ****                         (cyBle_disCount == (uint8) CYBLE_SCDI_UDS_UCP))
3020:.\Generated_Source\PSoC4/BLE_eventHandler.c ****                     {
3021:.\Generated_Source\PSoC4/BLE_eventHandler.c ****                         CyBle_UdscDiscoverCharDescriptorsEventHandler(&discDescrInfo);
3022:.\Generated_Source\PSoC4/BLE_eventHandler.c ****                     }
3023:.\Generated_Source\PSoC4/BLE_eventHandler.c ****                 #endif /* CYBLE_UDS_CLIENT */
3024:.\Generated_Source\PSoC4/BLE_eventHandler.c ****                 #ifdef CYBLE_WPTS_CLIENT
3025:.\Generated_Source\PSoC4/BLE_eventHandler.c ****                     if(cyBle_disCount == (uint8) CYBLE_SCDI_WPTS_PRU_ALERT)
3026:.\Generated_Source\PSoC4/BLE_eventHandler.c ****                     {
3027:.\Generated_Source\PSoC4/BLE_eventHandler.c ****                         CyBle_WptscDiscoverCharDescriptorsEventHandler(&discDescrInfo);
3028:.\Generated_Source\PSoC4/BLE_eventHandler.c ****                     }
3029:.\Generated_Source\PSoC4/BLE_eventHandler.c ****                 #endif /* CYBLE_WPTS_CLIENT */
3030:.\Generated_Source\PSoC4/BLE_eventHandler.c ****                 #ifdef CYBLE_WSS_CLIENT
3031:.\Generated_Source\PSoC4/BLE_eventHandler.c ****                     if((cyBle_disCount >= (uint8) CYBLE_SCDI_WSS_WEIGHT_SCALE_FEATURE) &&
3032:.\Generated_Source\PSoC4/BLE_eventHandler.c ****                         (cyBle_disCount <= (uint8) CYBLE_SCDI_WSS_WEIGHT_WEIGHT_MEASUREMENT))
3033:.\Generated_Source\PSoC4/BLE_eventHandler.c ****                     {
3034:.\Generated_Source\PSoC4/BLE_eventHandler.c ****                         CyBle_WsscDiscoverCharDescriptorsEventHandler(&discDescrInfo);
3035:.\Generated_Source\PSoC4/BLE_eventHandler.c ****                     }
3036:.\Generated_Source\PSoC4/BLE_eventHandler.c ****                 #endif /* CYBLE_WSS_CLIENT */
3037:.\Generated_Source\PSoC4/BLE_eventHandler.c ****             }
3038:.\Generated_Source\PSoC4/BLE_eventHandler.c ****         }
ARM GAS  C:\Users\YBOURA~1\AppData\Local\Temp\cc3HigXd.s 			page 108


3039:.\Generated_Source\PSoC4/BLE_eventHandler.c ****         /* The sub-procedure is complete when an Error Response is received and the
3040:.\Generated_Source\PSoC4/BLE_eventHandler.c ****            Error Code is set to an Attribute Not Found or the Find Information Response has
3041:.\Generated_Source\PSoC4/BLE_eventHandler.c ****            an Attribute Handle that is equal to the Ending Handle of the request. */
3042:.\Generated_Source\PSoC4/BLE_eventHandler.c ****         if(discDescrInfo.descrHandle == cyBle_charEndHandle)
 3017              		.loc 1 3042 0 is_stmt 1
 3018 0122 0823     		mov	r3, #8
 3019 0124 FB18     		add	r3, r7, r3
 3020 0126 5A88     		ldrh	r2, [r3, #2]
 3021 0128 0B4B     		ldr	r3, .L204+12
 3022 012a 1B88     		ldrh	r3, [r3]
 3023 012c 9A42     		cmp	r2, r3
 3024 012e 02D1     		bne	.L203
3043:.\Generated_Source\PSoC4/BLE_eventHandler.c ****         {
3044:.\Generated_Source\PSoC4/BLE_eventHandler.c ****             CyBle_NextCharDscrDiscovery(CYBLE_DISCOVERY_CONTINUE);
 3025              		.loc 1 3044 0
 3026 0130 0120     		mov	r0, #1
 3027 0132 FFF7FEFF 		bl	CyBle_NextCharDscrDiscovery
 3028              	.L203:
3045:.\Generated_Source\PSoC4/BLE_eventHandler.c ****         }
3046:.\Generated_Source\PSoC4/BLE_eventHandler.c **** 
3047:.\Generated_Source\PSoC4/BLE_eventHandler.c ****         cyBle_eventHandlerFlag &= (uint8)~CYBLE_CALLBACK;
 3029              		.loc 1 3047 0
 3030 0136 064B     		ldr	r3, .L204+4
 3031 0138 1B78     		ldrb	r3, [r3]
 3032 013a DBB2     		uxtb	r3, r3
 3033 013c 0122     		mov	r2, #1
 3034 013e 9343     		bic	r3, r2
 3035 0140 DAB2     		uxtb	r2, r3
 3036 0142 034B     		ldr	r3, .L204+4
 3037 0144 1A70     		strb	r2, [r3]
 3038              	.L193:
3048:.\Generated_Source\PSoC4/BLE_eventHandler.c ****     }
3049:.\Generated_Source\PSoC4/BLE_eventHandler.c **** }
 3039              		.loc 1 3049 0
 3040 0146 BD46     		mov	sp, r7
 3041 0148 0AB0     		add	sp, sp, #40
 3042              		@ sp needed
 3043 014a 80BD     		pop	{r7, pc}
 3044              	.L205:
 3045              		.align	2
 3046              	.L204:
 3047 014c 00000000 		.word	cyBle_clientState
 3048 0150 00000000 		.word	cyBle_eventHandlerFlag
 3049 0154 00000000 		.word	cyBle_disCount
 3050 0158 00000000 		.word	cyBle_charEndHandle
 3051              		.cfi_endproc
 3052              	.LFE21:
 3053              		.size	CyBle_FindInfoEventHandler, .-CyBle_FindInfoEventHandler
 3054              		.section	.text.CyBle_NextCharDscrDiscovery,"ax",%progbits
 3055              		.align	2
 3056              		.global	CyBle_NextCharDscrDiscovery
 3057              		.code	16
 3058              		.thumb_func
 3059              		.type	CyBle_NextCharDscrDiscovery, %function
 3060              	CyBle_NextCharDscrDiscovery:
 3061              	.LFB22:
3050:.\Generated_Source\PSoC4/BLE_eventHandler.c **** 
ARM GAS  C:\Users\YBOURA~1\AppData\Local\Temp\cc3HigXd.s 			page 109


3051:.\Generated_Source\PSoC4/BLE_eventHandler.c **** 
3052:.\Generated_Source\PSoC4/BLE_eventHandler.c **** /****************************************************************************** 
3053:.\Generated_Source\PSoC4/BLE_eventHandler.c **** * Function Name: CyBle_NextCharDscrDiscovery
3054:.\Generated_Source\PSoC4/BLE_eventHandler.c **** ***************************************************************************//**
3055:.\Generated_Source\PSoC4/BLE_eventHandler.c **** *  Looks for a handle range for the current descriptor (pointed by
3056:.\Generated_Source\PSoC4/BLE_eventHandler.c **** *   cyBle_disCount). If the current range is invalid (any of start or end
3057:.\Generated_Source\PSoC4/BLE_eventHandler.c **** *   handles is invalid), then increment the cyBle_disCount and check
3058:.\Generated_Source\PSoC4/BLE_eventHandler.c **** *   the next descriptor range and does so until a valid range is caught or the 
3059:.\Generated_Source\PSoC4/BLE_eventHandler.c **** *   end of the descriptor set is reached.
3060:.\Generated_Source\PSoC4/BLE_eventHandler.c **** * 
3061:.\Generated_Source\PSoC4/BLE_eventHandler.c **** *  \param incrementIndex: Not zero value indicates that characteristic index should be 
3062:.\Generated_Source\PSoC4/BLE_eventHandler.c **** *                         incremented.
3063:.\Generated_Source\PSoC4/BLE_eventHandler.c **** * 
3064:.\Generated_Source\PSoC4/BLE_eventHandler.c **** * \return
3065:.\Generated_Source\PSoC4/BLE_eventHandler.c **** *  None.
3066:.\Generated_Source\PSoC4/BLE_eventHandler.c **** * 
3067:.\Generated_Source\PSoC4/BLE_eventHandler.c **** ******************************************************************************/
3068:.\Generated_Source\PSoC4/BLE_eventHandler.c **** void CyBle_NextCharDscrDiscovery(uint8 incrementIndex)
3069:.\Generated_Source\PSoC4/BLE_eventHandler.c **** {
 3062              		.loc 1 3069 0
 3063              		.cfi_startproc
 3064 0000 80B5     		push	{r7, lr}
 3065              		.cfi_def_cfa_offset 8
 3066              		.cfi_offset 7, -8
 3067              		.cfi_offset 14, -4
 3068 0002 84B0     		sub	sp, sp, #16
 3069              		.cfi_def_cfa_offset 24
 3070 0004 00AF     		add	r7, sp, #0
 3071              		.cfi_def_cfa_register 7
 3072 0006 021C     		mov	r2, r0
 3073 0008 FB1D     		add	r3, r7, #7
 3074 000a 1A70     		strb	r2, [r3]
 3075              	.L214:
3070:.\Generated_Source\PSoC4/BLE_eventHandler.c ****     CYBLE_GATTC_FIND_INFO_REQ_T charRange;
3071:.\Generated_Source\PSoC4/BLE_eventHandler.c **** 
3072:.\Generated_Source\PSoC4/BLE_eventHandler.c ****     do
3073:.\Generated_Source\PSoC4/BLE_eventHandler.c ****     {
3074:.\Generated_Source\PSoC4/BLE_eventHandler.c ****     #ifdef CYBLE_CUSTOM_CLIENT
3075:.\Generated_Source\PSoC4/BLE_eventHandler.c ****         /* Do not increment main index untill custom service is discovered */
3076:.\Generated_Source\PSoC4/BLE_eventHandler.c ****         if(cyBle_disCount != CYBLE_SCDI_CUSTOM_CHARACTERISTICS)
 3076              		.loc 1 3076 0
 3077 000c 464B     		ldr	r3, .L218
 3078 000e 1B78     		ldrb	r3, [r3]
 3079 0010 012B     		cmp	r3, #1
 3080 0012 17D0     		beq	.L207
3077:.\Generated_Source\PSoC4/BLE_eventHandler.c ****     #endif /* CYBLE_CUSTOM_CLIENT */
3078:.\Generated_Source\PSoC4/BLE_eventHandler.c ****         {
3079:.\Generated_Source\PSoC4/BLE_eventHandler.c ****             if(incrementIndex != CYBLE_DISCOVERY_INIT)
 3081              		.loc 1 3079 0
 3082 0014 FB1D     		add	r3, r7, #7
 3083 0016 1B78     		ldrb	r3, [r3]
 3084 0018 002B     		cmp	r3, #0
 3085 001a 0DD0     		beq	.L208
3080:.\Generated_Source\PSoC4/BLE_eventHandler.c ****             {
3081:.\Generated_Source\PSoC4/BLE_eventHandler.c ****             #ifdef CYBLE_HIDS_CLIENT
3082:.\Generated_Source\PSoC4/BLE_eventHandler.c ****                 #if(CYBLE_HIDSC_SERVICE_COUNT > 1u)
3083:.\Generated_Source\PSoC4/BLE_eventHandler.c ****                     if((cyBle_disCount == CYBLE_SCDI_HIDS_REPORT_END) && 
ARM GAS  C:\Users\YBOURA~1\AppData\Local\Temp\cc3HigXd.s 			page 110


3084:.\Generated_Source\PSoC4/BLE_eventHandler.c ****                        (disServiceIndex < (CYBLE_HIDSC_SERVICE_COUNT - 1u)))
3085:.\Generated_Source\PSoC4/BLE_eventHandler.c ****                     {
3086:.\Generated_Source\PSoC4/BLE_eventHandler.c ****                         disServiceIndex++;      /* Discover descriptors for next HID service */
3087:.\Generated_Source\PSoC4/BLE_eventHandler.c ****                         /* Set characteristic index to first characteristic of HID service */
3088:.\Generated_Source\PSoC4/BLE_eventHandler.c ****                         cyBle_disCount = CYBLE_SCDI_HIDS_REPORT_MAP;
3089:.\Generated_Source\PSoC4/BLE_eventHandler.c ****                     }
3090:.\Generated_Source\PSoC4/BLE_eventHandler.c ****                     else
3091:.\Generated_Source\PSoC4/BLE_eventHandler.c ****                     {
3092:.\Generated_Source\PSoC4/BLE_eventHandler.c ****                         cyBle_disCount++;
3093:.\Generated_Source\PSoC4/BLE_eventHandler.c ****                     }
3094:.\Generated_Source\PSoC4/BLE_eventHandler.c ****                 #else
3095:.\Generated_Source\PSoC4/BLE_eventHandler.c ****                     cyBle_disCount++;
3096:.\Generated_Source\PSoC4/BLE_eventHandler.c ****                 #endif /* CYBLE_HIDSC_SERVICE_COUNT > 1u) */
3097:.\Generated_Source\PSoC4/BLE_eventHandler.c ****             #else
3098:.\Generated_Source\PSoC4/BLE_eventHandler.c ****                 cyBle_disCount++;
 3086              		.loc 1 3098 0
 3087 001c 424B     		ldr	r3, .L218
 3088 001e 1B78     		ldrb	r3, [r3]
 3089 0020 0133     		add	r3, r3, #1
 3090 0022 DAB2     		uxtb	r2, r3
 3091 0024 404B     		ldr	r3, .L218
 3092 0026 1A70     		strb	r2, [r3]
3099:.\Generated_Source\PSoC4/BLE_eventHandler.c ****             #endif /* CYBLE_HIDS_CLIENT */
3100:.\Generated_Source\PSoC4/BLE_eventHandler.c ****             #ifdef CYBLE_CUSTOM_CLIENT
3101:.\Generated_Source\PSoC4/BLE_eventHandler.c ****                 if(cyBle_disCount == CYBLE_SCDI_CUSTOM_CHARACTERISTICS)
 3093              		.loc 1 3101 0
 3094 0028 3F4B     		ldr	r3, .L218
 3095 002a 1B78     		ldrb	r3, [r3]
 3096 002c 012B     		cmp	r3, #1
 3097 002e 09D1     		bne	.L207
3102:.\Generated_Source\PSoC4/BLE_eventHandler.c ****                 {   /* Start descriptors discovery for custom service */
3103:.\Generated_Source\PSoC4/BLE_eventHandler.c ****                     incrementIndex = CYBLE_DISCOVERY_INIT;
 3098              		.loc 1 3103 0
 3099 0030 FB1D     		add	r3, r7, #7
 3100 0032 0022     		mov	r2, #0
 3101 0034 1A70     		strb	r2, [r3]
 3102 0036 05E0     		b	.L207
 3103              	.L208:
3104:.\Generated_Source\PSoC4/BLE_eventHandler.c ****                 }
3105:.\Generated_Source\PSoC4/BLE_eventHandler.c ****             #endif /* CYBLE_CUSTOM_CLIENT */
3106:.\Generated_Source\PSoC4/BLE_eventHandler.c ****             }
3107:.\Generated_Source\PSoC4/BLE_eventHandler.c ****             else    /* Increment index in following loop */
3108:.\Generated_Source\PSoC4/BLE_eventHandler.c ****             {
3109:.\Generated_Source\PSoC4/BLE_eventHandler.c ****                 cyBle_disCount = 0u;
 3104              		.loc 1 3109 0
 3105 0038 3B4B     		ldr	r3, .L218
 3106 003a 0022     		mov	r2, #0
 3107 003c 1A70     		strb	r2, [r3]
3110:.\Generated_Source\PSoC4/BLE_eventHandler.c ****                 incrementIndex = 1u;
 3108              		.loc 1 3110 0
 3109 003e FB1D     		add	r3, r7, #7
 3110 0040 0122     		mov	r2, #1
 3111 0042 1A70     		strb	r2, [r3]
 3112              	.L207:
3111:.\Generated_Source\PSoC4/BLE_eventHandler.c ****             }
3112:.\Generated_Source\PSoC4/BLE_eventHandler.c ****         }
3113:.\Generated_Source\PSoC4/BLE_eventHandler.c ****     #ifdef CYBLE_CUSTOM_CLIENT
ARM GAS  C:\Users\YBOURA~1\AppData\Local\Temp\cc3HigXd.s 			page 111


3114:.\Generated_Source\PSoC4/BLE_eventHandler.c ****         if(cyBle_disCount == CYBLE_SCDI_CUSTOM_CHARACTERISTICS)
 3113              		.loc 1 3114 0
 3114 0044 384B     		ldr	r3, .L218
 3115 0046 1B78     		ldrb	r3, [r3]
 3116 0048 012B     		cmp	r3, #1
 3117 004a 0CD1     		bne	.L210
3115:.\Generated_Source\PSoC4/BLE_eventHandler.c ****         {
3116:.\Generated_Source\PSoC4/BLE_eventHandler.c ****             charRange = CyBle_CustomcGetCharRange(incrementIndex);
 3118              		.loc 1 3116 0
 3119 004c FB1D     		add	r3, r7, #7
 3120 004e 1B78     		ldrb	r3, [r3]
 3121 0050 181C     		mov	r0, r3
 3122 0052 FFF7FEFF 		bl	CyBle_CustomcGetCharRange
 3123 0056 031C     		mov	r3, r0
 3124 0058 1A1C     		mov	r2, r3
 3125 005a 0C23     		mov	r3, #12
 3126 005c FB18     		add	r3, r7, r3
 3127 005e 1A60     		str	r2, [r3]
3117:.\Generated_Source\PSoC4/BLE_eventHandler.c ****             incrementIndex = CYBLE_DISCOVERY_CONTINUE;
 3128              		.loc 1 3117 0
 3129 0060 FB1D     		add	r3, r7, #7
 3130 0062 0122     		mov	r2, #1
 3131 0064 1A70     		strb	r2, [r3]
 3132              	.L210:
3118:.\Generated_Source\PSoC4/BLE_eventHandler.c ****         }
3119:.\Generated_Source\PSoC4/BLE_eventHandler.c ****         /* When custom service is done cyBle_disCount will be incremented */
3120:.\Generated_Source\PSoC4/BLE_eventHandler.c ****         if(cyBle_disCount != CYBLE_SCDI_CUSTOM_CHARACTERISTICS)
 3133              		.loc 1 3120 0
 3134 0066 304B     		ldr	r3, .L218
 3135 0068 1B78     		ldrb	r3, [r3]
 3136 006a 012B     		cmp	r3, #1
 3137 006c 06D0     		beq	.L211
3121:.\Generated_Source\PSoC4/BLE_eventHandler.c ****     #endif /* CYBLE_CUSTOM_CLIENT */
3122:.\Generated_Source\PSoC4/BLE_eventHandler.c ****         {
3123:.\Generated_Source\PSoC4/BLE_eventHandler.c ****             charRange = CyBle_GetCharRange();
 3138              		.loc 1 3123 0
 3139 006e FFF7FEFF 		bl	CyBle_GetCharRange
 3140 0072 031C     		mov	r3, r0
 3141 0074 1A1C     		mov	r2, r3
 3142 0076 0C23     		mov	r3, #12
 3143 0078 FB18     		add	r3, r7, r3
 3144 007a 1A60     		str	r2, [r3]
 3145              	.L211:
3124:.\Generated_Source\PSoC4/BLE_eventHandler.c ****         }
3125:.\Generated_Source\PSoC4/BLE_eventHandler.c **** 
3126:.\Generated_Source\PSoC4/BLE_eventHandler.c ****     }while(((charRange.startHandle == (CYBLE_GATT_INVALID_ATTR_HANDLE_VALUE + 1u)) || 
 3146              		.loc 1 3126 0
 3147 007c 0C23     		mov	r3, #12
 3148 007e FB18     		add	r3, r7, r3
 3149 0080 1B88     		ldrh	r3, [r3]
3127:.\Generated_Source\PSoC4/BLE_eventHandler.c ****             (charRange.endHandle == CYBLE_GATT_INVALID_ATTR_HANDLE_VALUE) ||
3128:.\Generated_Source\PSoC4/BLE_eventHandler.c ****             (charRange.startHandle > charRange.endHandle)) && (cyBle_disCount < (uint8) CYBLE_SCDI_
 3150              		.loc 1 3128 0
 3151 0082 012B     		cmp	r3, #1
 3152 0084 0CD0     		beq	.L212
3127:.\Generated_Source\PSoC4/BLE_eventHandler.c ****             (charRange.endHandle == CYBLE_GATT_INVALID_ATTR_HANDLE_VALUE) ||
 3153              		.loc 1 3127 0
ARM GAS  C:\Users\YBOURA~1\AppData\Local\Temp\cc3HigXd.s 			page 112


 3154 0086 0C23     		mov	r3, #12
 3155 0088 FB18     		add	r3, r7, r3
 3156 008a 5B88     		ldrh	r3, [r3, #2]
3126:.\Generated_Source\PSoC4/BLE_eventHandler.c ****             (charRange.endHandle == CYBLE_GATT_INVALID_ATTR_HANDLE_VALUE) ||
 3157              		.loc 1 3126 0
 3158 008c 002B     		cmp	r3, #0
 3159 008e 07D0     		beq	.L212
 3160              		.loc 1 3128 0
 3161 0090 0C23     		mov	r3, #12
 3162 0092 FB18     		add	r3, r7, r3
 3163 0094 1A88     		ldrh	r2, [r3]
 3164 0096 0C23     		mov	r3, #12
 3165 0098 FB18     		add	r3, r7, r3
 3166 009a 5B88     		ldrh	r3, [r3, #2]
3127:.\Generated_Source\PSoC4/BLE_eventHandler.c ****             (charRange.endHandle == CYBLE_GATT_INVALID_ATTR_HANDLE_VALUE) ||
 3167              		.loc 1 3127 0
 3168 009c 9A42     		cmp	r2, r3
 3169 009e 03D9     		bls	.L213
 3170              	.L212:
 3171              		.loc 1 3128 0 discriminator 1
 3172 00a0 214B     		ldr	r3, .L218
 3173 00a2 1B78     		ldrb	r3, [r3]
 3174 00a4 012B     		cmp	r3, #1
 3175 00a6 B1D9     		bls	.L214
 3176              	.L213:
3129:.\Generated_Source\PSoC4/BLE_eventHandler.c **** 
3130:.\Generated_Source\PSoC4/BLE_eventHandler.c ****     if(cyBle_disCount < (uint8) CYBLE_SCDI_COUNT)
 3177              		.loc 1 3130 0
 3178 00a8 1F4B     		ldr	r3, .L218
 3179 00aa 1B78     		ldrb	r3, [r3]
 3180 00ac 012B     		cmp	r3, #1
 3181 00ae 26D8     		bhi	.L215
3131:.\Generated_Source\PSoC4/BLE_eventHandler.c ****     {
3132:.\Generated_Source\PSoC4/BLE_eventHandler.c ****         if(CYBLE_ERROR_OK != CyBle_GattcDiscoverAllCharacteristicDescriptors(cyBle_connHandle, &cha
 3182              		.loc 1 3132 0
 3183 00b0 1E4B     		ldr	r3, .L218+4
 3184 00b2 0C22     		mov	r2, #12
 3185 00b4 B918     		add	r1, r7, r2
 3186 00b6 1A78     		ldrb	r2, [r3]
 3187 00b8 5B78     		ldrb	r3, [r3, #1]
 3188 00ba 1B02     		lsl	r3, r3, #8
 3189 00bc 1A43     		orr	r2, r3
 3190 00be 0023     		mov	r3, #0
 3191 00c0 1204     		lsl	r2, r2, #16
 3192 00c2 120C     		lsr	r2, r2, #16
 3193 00c4 1B0C     		lsr	r3, r3, #16
 3194 00c6 1B04     		lsl	r3, r3, #16
 3195 00c8 1343     		orr	r3, r2
 3196 00ca 181C     		mov	r0, r3
 3197 00cc FFF7FEFF 		bl	CyBle_GattcDiscoverAllCharacteristicDescriptors
 3198 00d0 031E     		sub	r3, r0, #0
 3199 00d2 0ED0     		beq	.L216
3133:.\Generated_Source\PSoC4/BLE_eventHandler.c ****         {
3134:.\Generated_Source\PSoC4/BLE_eventHandler.c ****             CyBle_ApplCallback(CYBLE_EVT_GATTC_DESCR_DISCOVERY_FAILED, NULL);
 3200              		.loc 1 3134 0
 3201 00d4 164B     		ldr	r3, .L218+8
 3202 00d6 1B68     		ldr	r3, [r3]
ARM GAS  C:\Users\YBOURA~1\AppData\Local\Temp\cc3HigXd.s 			page 113


 3203 00d8 8522     		mov	r2, #133
 3204 00da 5200     		lsl	r2, r2, #1
 3205 00dc 101C     		mov	r0, r2
 3206 00de 0021     		mov	r1, #0
 3207 00e0 9847     		blx	r3
3135:.\Generated_Source\PSoC4/BLE_eventHandler.c ****             cyBle_eventHandlerFlag &= (uint8)~CYBLE_AUTO_DISCOVERY;
 3208              		.loc 1 3135 0
 3209 00e2 144B     		ldr	r3, .L218+12
 3210 00e4 1B78     		ldrb	r3, [r3]
 3211 00e6 DBB2     		uxtb	r3, r3
 3212 00e8 0222     		mov	r2, #2
 3213 00ea 9343     		bic	r3, r2
 3214 00ec DAB2     		uxtb	r2, r3
 3215 00ee 114B     		ldr	r3, .L218+12
 3216 00f0 1A70     		strb	r2, [r3]
 3217              	.L216:
3136:.\Generated_Source\PSoC4/BLE_eventHandler.c ****         }
3137:.\Generated_Source\PSoC4/BLE_eventHandler.c ****         cyBle_charEndHandle = charRange.endHandle;
 3218              		.loc 1 3137 0
 3219 00f2 0C23     		mov	r3, #12
 3220 00f4 FB18     		add	r3, r7, r3
 3221 00f6 5A88     		ldrh	r2, [r3, #2]
 3222 00f8 0F4B     		ldr	r3, .L218+16
 3223 00fa 1A80     		strh	r2, [r3]
 3224 00fc 11E0     		b	.L206
 3225              	.L215:
3138:.\Generated_Source\PSoC4/BLE_eventHandler.c ****     }
3139:.\Generated_Source\PSoC4/BLE_eventHandler.c ****     else /* Discovery done */
3140:.\Generated_Source\PSoC4/BLE_eventHandler.c ****     {
3141:.\Generated_Source\PSoC4/BLE_eventHandler.c ****         CyBle_SetClientState(CYBLE_CLIENT_STATE_DISCOVERED);
 3226              		.loc 1 3141 0
 3227 00fe 0F4B     		ldr	r3, .L218+20
 3228 0100 0522     		mov	r2, #5
 3229 0102 1A70     		strb	r2, [r3]
3142:.\Generated_Source\PSoC4/BLE_eventHandler.c ****         CyBle_ApplCallback(CYBLE_EVT_GATTC_DISCOVERY_COMPLETE, NULL);
 3230              		.loc 1 3142 0
 3231 0104 0A4B     		ldr	r3, .L218+8
 3232 0106 1B68     		ldr	r3, [r3]
 3233 0108 1222     		mov	r2, #18
 3234 010a FF32     		add	r2, r2, #255
 3235 010c 101C     		mov	r0, r2
 3236 010e 0021     		mov	r1, #0
 3237 0110 9847     		blx	r3
3143:.\Generated_Source\PSoC4/BLE_eventHandler.c ****         cyBle_eventHandlerFlag &= (uint8)~CYBLE_AUTO_DISCOVERY;
 3238              		.loc 1 3143 0
 3239 0112 084B     		ldr	r3, .L218+12
 3240 0114 1B78     		ldrb	r3, [r3]
 3241 0116 DBB2     		uxtb	r3, r3
 3242 0118 0222     		mov	r2, #2
 3243 011a 9343     		bic	r3, r2
 3244 011c DAB2     		uxtb	r2, r3
 3245 011e 054B     		ldr	r3, .L218+12
 3246 0120 1A70     		strb	r2, [r3]
 3247              	.L206:
3144:.\Generated_Source\PSoC4/BLE_eventHandler.c ****     }
3145:.\Generated_Source\PSoC4/BLE_eventHandler.c **** }
 3248              		.loc 1 3145 0
ARM GAS  C:\Users\YBOURA~1\AppData\Local\Temp\cc3HigXd.s 			page 114


 3249 0122 BD46     		mov	sp, r7
 3250 0124 04B0     		add	sp, sp, #16
 3251              		@ sp needed
 3252 0126 80BD     		pop	{r7, pc}
 3253              	.L219:
 3254              		.align	2
 3255              	.L218:
 3256 0128 00000000 		.word	cyBle_disCount
 3257 012c 00000000 		.word	cyBle_connHandle
 3258 0130 00000000 		.word	CyBle_ApplCallback
 3259 0134 00000000 		.word	cyBle_eventHandlerFlag
 3260 0138 00000000 		.word	cyBle_charEndHandle
 3261 013c 00000000 		.word	cyBle_clientState
 3262              		.cfi_endproc
 3263              	.LFE22:
 3264              		.size	CyBle_NextCharDscrDiscovery, .-CyBle_NextCharDscrDiscovery
 3265              		.section	.text.CyBle_ErrorResponseEventHandler,"ax",%progbits
 3266              		.align	2
 3267              		.global	CyBle_ErrorResponseEventHandler
 3268              		.code	16
 3269              		.thumb_func
 3270              		.type	CyBle_ErrorResponseEventHandler, %function
 3271              	CyBle_ErrorResponseEventHandler:
 3272              	.LFB23:
3146:.\Generated_Source\PSoC4/BLE_eventHandler.c **** 
3147:.\Generated_Source\PSoC4/BLE_eventHandler.c **** 
3148:.\Generated_Source\PSoC4/BLE_eventHandler.c **** /****************************************************************************** 
3149:.\Generated_Source\PSoC4/BLE_eventHandler.c **** * Function Name: CyBle_ErrorResponseEventHandler
3150:.\Generated_Source\PSoC4/BLE_eventHandler.c **** ***************************************************************************//**
3151:.\Generated_Source\PSoC4/BLE_eventHandler.c **** * 
3152:.\Generated_Source\PSoC4/BLE_eventHandler.c **** *  Handles the Find Info Response Event during an automatic server discovery
3153:.\Generated_Source\PSoC4/BLE_eventHandler.c **** *  process.
3154:.\Generated_Source\PSoC4/BLE_eventHandler.c **** * 
3155:.\Generated_Source\PSoC4/BLE_eventHandler.c **** *   \param eventParam:  the event parameters for an Error Response
3156:.\Generated_Source\PSoC4/BLE_eventHandler.c **** * 
3157:.\Generated_Source\PSoC4/BLE_eventHandler.c **** * \return
3158:.\Generated_Source\PSoC4/BLE_eventHandler.c **** *  None
3159:.\Generated_Source\PSoC4/BLE_eventHandler.c **** * 
3160:.\Generated_Source\PSoC4/BLE_eventHandler.c **** ******************************************************************************/
3161:.\Generated_Source\PSoC4/BLE_eventHandler.c **** void CyBle_ErrorResponseEventHandler(const CYBLE_GATTC_ERR_RSP_PARAM_T *eventParam)
3162:.\Generated_Source\PSoC4/BLE_eventHandler.c **** {
 3273              		.loc 1 3162 0
 3274              		.cfi_startproc
 3275 0000 80B5     		push	{r7, lr}
 3276              		.cfi_def_cfa_offset 8
 3277              		.cfi_offset 7, -8
 3278              		.cfi_offset 14, -4
 3279 0002 82B0     		sub	sp, sp, #8
 3280              		.cfi_def_cfa_offset 16
 3281 0004 00AF     		add	r7, sp, #0
 3282              		.cfi_def_cfa_register 7
 3283 0006 7860     		str	r0, [r7, #4]
3163:.\Generated_Source\PSoC4/BLE_eventHandler.c ****     if(((cyBle_eventHandlerFlag & CYBLE_AUTO_DISCOVERY) != 0u) &&
 3284              		.loc 1 3163 0
 3285 0008 264B     		ldr	r3, .L229
 3286 000a 1B78     		ldrb	r3, [r3]
 3287 000c DBB2     		uxtb	r3, r3
ARM GAS  C:\Users\YBOURA~1\AppData\Local\Temp\cc3HigXd.s 			page 115


 3288 000e 1A1C     		mov	r2, r3
 3289 0010 0223     		mov	r3, #2
 3290 0012 1340     		and	r3, r2
 3291 0014 43D0     		beq	.L220
3164:.\Generated_Source\PSoC4/BLE_eventHandler.c ****         (eventParam->errorCode == CYBLE_GATT_ERR_ATTRIBUTE_NOT_FOUND))
 3292              		.loc 1 3164 0 discriminator 1
 3293 0016 7B68     		ldr	r3, [r7, #4]
 3294 0018 9B79     		ldrb	r3, [r3, #6]
3163:.\Generated_Source\PSoC4/BLE_eventHandler.c ****     if(((cyBle_eventHandlerFlag & CYBLE_AUTO_DISCOVERY) != 0u) &&
 3295              		.loc 1 3163 0 discriminator 1
 3296 001a 0A2B     		cmp	r3, #10
 3297 001c 3FD1     		bne	.L220
3165:.\Generated_Source\PSoC4/BLE_eventHandler.c ****     {
3166:.\Generated_Source\PSoC4/BLE_eventHandler.c ****         switch(CyBle_GetClientState())
 3298              		.loc 1 3166 0
 3299 001e 224B     		ldr	r3, .L229+4
 3300 0020 1B78     		ldrb	r3, [r3]
 3301 0022 022B     		cmp	r3, #2
 3302 0024 17D0     		beq	.L223
 3303 0026 02DC     		bgt	.L224
 3304 0028 012B     		cmp	r3, #1
 3305 002a 05D0     		beq	.L225
3167:.\Generated_Source\PSoC4/BLE_eventHandler.c ****         {
3168:.\Generated_Source\PSoC4/BLE_eventHandler.c ****         case CYBLE_CLIENT_STATE_SRVC_DISCOVERING:
3169:.\Generated_Source\PSoC4/BLE_eventHandler.c ****         #if(CYBLE_STACK_MODE_DEBUG)
3170:.\Generated_Source\PSoC4/BLE_eventHandler.c ****             CyBle_ApplCallback(CYBLE_EVT_GATTC_SRVC_DISCOVERY_COMPLETE, NULL);
3171:.\Generated_Source\PSoC4/BLE_eventHandler.c ****         #endif /* CYBLE_STACK_MODE_DEBUG */            
3172:.\Generated_Source\PSoC4/BLE_eventHandler.c ****             CyBle_SetClientState(CYBLE_CLIENT_STATE_INCL_DISCOVERING);
3173:.\Generated_Source\PSoC4/BLE_eventHandler.c ****             CyBle_NextInclDiscovery(CYBLE_DISCOVERY_INIT);
3174:.\Generated_Source\PSoC4/BLE_eventHandler.c ****             cyBle_eventHandlerFlag &= (uint8)~CYBLE_CALLBACK;
3175:.\Generated_Source\PSoC4/BLE_eventHandler.c ****             break;
3176:.\Generated_Source\PSoC4/BLE_eventHandler.c **** 
3177:.\Generated_Source\PSoC4/BLE_eventHandler.c ****         case CYBLE_CLIENT_STATE_INCL_DISCOVERING:
3178:.\Generated_Source\PSoC4/BLE_eventHandler.c ****             CyBle_NextInclDiscovery(CYBLE_DISCOVERY_CONTINUE);
3179:.\Generated_Source\PSoC4/BLE_eventHandler.c ****             cyBle_eventHandlerFlag &= (uint8)~CYBLE_CALLBACK;
3180:.\Generated_Source\PSoC4/BLE_eventHandler.c ****             break;
3181:.\Generated_Source\PSoC4/BLE_eventHandler.c **** 
3182:.\Generated_Source\PSoC4/BLE_eventHandler.c ****         case CYBLE_CLIENT_STATE_CHAR_DISCOVERING:
3183:.\Generated_Source\PSoC4/BLE_eventHandler.c ****             CyBle_NextCharDiscovery(CYBLE_DISCOVERY_CONTINUE);
3184:.\Generated_Source\PSoC4/BLE_eventHandler.c ****             cyBle_eventHandlerFlag &= (uint8)~CYBLE_CALLBACK;
3185:.\Generated_Source\PSoC4/BLE_eventHandler.c ****             break;
3186:.\Generated_Source\PSoC4/BLE_eventHandler.c **** 
3187:.\Generated_Source\PSoC4/BLE_eventHandler.c ****         case CYBLE_CLIENT_STATE_DESCR_DISCOVERING:
3188:.\Generated_Source\PSoC4/BLE_eventHandler.c ****             CyBle_NextCharDscrDiscovery(CYBLE_DISCOVERY_CONTINUE);
3189:.\Generated_Source\PSoC4/BLE_eventHandler.c ****             cyBle_eventHandlerFlag &= (uint8)~CYBLE_CALLBACK;
3190:.\Generated_Source\PSoC4/BLE_eventHandler.c ****             break;
3191:.\Generated_Source\PSoC4/BLE_eventHandler.c ****             
3192:.\Generated_Source\PSoC4/BLE_eventHandler.c ****         default:
3193:.\Generated_Source\PSoC4/BLE_eventHandler.c ****             break;
 3306              		.loc 1 3193 0
 3307 002c 37E0     		b	.L228
 3308              	.L224:
3166:.\Generated_Source\PSoC4/BLE_eventHandler.c ****         {
 3309              		.loc 1 3166 0
 3310 002e 032B     		cmp	r3, #3
 3311 0030 1DD0     		beq	.L226
 3312 0032 042B     		cmp	r3, #4
ARM GAS  C:\Users\YBOURA~1\AppData\Local\Temp\cc3HigXd.s 			page 116


 3313 0034 27D0     		beq	.L227
 3314              		.loc 1 3193 0
 3315 0036 32E0     		b	.L228
 3316              	.L225:
3172:.\Generated_Source\PSoC4/BLE_eventHandler.c ****             CyBle_NextInclDiscovery(CYBLE_DISCOVERY_INIT);
 3317              		.loc 1 3172 0
 3318 0038 1B4B     		ldr	r3, .L229+4
 3319 003a 0222     		mov	r2, #2
 3320 003c 1A70     		strb	r2, [r3]
3173:.\Generated_Source\PSoC4/BLE_eventHandler.c ****             cyBle_eventHandlerFlag &= (uint8)~CYBLE_CALLBACK;
 3321              		.loc 1 3173 0
 3322 003e 0020     		mov	r0, #0
 3323 0040 FFF7FEFF 		bl	CyBle_NextInclDiscovery
3174:.\Generated_Source\PSoC4/BLE_eventHandler.c ****             break;
 3324              		.loc 1 3174 0
 3325 0044 174B     		ldr	r3, .L229
 3326 0046 1B78     		ldrb	r3, [r3]
 3327 0048 DBB2     		uxtb	r3, r3
 3328 004a 0122     		mov	r2, #1
 3329 004c 9343     		bic	r3, r2
 3330 004e DAB2     		uxtb	r2, r3
 3331 0050 144B     		ldr	r3, .L229
 3332 0052 1A70     		strb	r2, [r3]
3175:.\Generated_Source\PSoC4/BLE_eventHandler.c **** 
 3333              		.loc 1 3175 0
 3334 0054 23E0     		b	.L228
 3335              	.L223:
3178:.\Generated_Source\PSoC4/BLE_eventHandler.c ****             cyBle_eventHandlerFlag &= (uint8)~CYBLE_CALLBACK;
 3336              		.loc 1 3178 0
 3337 0056 0120     		mov	r0, #1
 3338 0058 FFF7FEFF 		bl	CyBle_NextInclDiscovery
3179:.\Generated_Source\PSoC4/BLE_eventHandler.c ****             break;
 3339              		.loc 1 3179 0
 3340 005c 114B     		ldr	r3, .L229
 3341 005e 1B78     		ldrb	r3, [r3]
 3342 0060 DBB2     		uxtb	r3, r3
 3343 0062 0122     		mov	r2, #1
 3344 0064 9343     		bic	r3, r2
 3345 0066 DAB2     		uxtb	r2, r3
 3346 0068 0E4B     		ldr	r3, .L229
 3347 006a 1A70     		strb	r2, [r3]
3180:.\Generated_Source\PSoC4/BLE_eventHandler.c **** 
 3348              		.loc 1 3180 0
 3349 006c 17E0     		b	.L228
 3350              	.L226:
3183:.\Generated_Source\PSoC4/BLE_eventHandler.c ****             cyBle_eventHandlerFlag &= (uint8)~CYBLE_CALLBACK;
 3351              		.loc 1 3183 0
 3352 006e 0120     		mov	r0, #1
 3353 0070 FFF7FEFF 		bl	CyBle_NextCharDiscovery
3184:.\Generated_Source\PSoC4/BLE_eventHandler.c ****             break;
 3354              		.loc 1 3184 0
 3355 0074 0B4B     		ldr	r3, .L229
 3356 0076 1B78     		ldrb	r3, [r3]
 3357 0078 DBB2     		uxtb	r3, r3
 3358 007a 0122     		mov	r2, #1
 3359 007c 9343     		bic	r3, r2
 3360 007e DAB2     		uxtb	r2, r3
ARM GAS  C:\Users\YBOURA~1\AppData\Local\Temp\cc3HigXd.s 			page 117


 3361 0080 084B     		ldr	r3, .L229
 3362 0082 1A70     		strb	r2, [r3]
3185:.\Generated_Source\PSoC4/BLE_eventHandler.c **** 
 3363              		.loc 1 3185 0
 3364 0084 0BE0     		b	.L228
 3365              	.L227:
3188:.\Generated_Source\PSoC4/BLE_eventHandler.c ****             cyBle_eventHandlerFlag &= (uint8)~CYBLE_CALLBACK;
 3366              		.loc 1 3188 0
 3367 0086 0120     		mov	r0, #1
 3368 0088 FFF7FEFF 		bl	CyBle_NextCharDscrDiscovery
3189:.\Generated_Source\PSoC4/BLE_eventHandler.c ****             break;
 3369              		.loc 1 3189 0
 3370 008c 054B     		ldr	r3, .L229
 3371 008e 1B78     		ldrb	r3, [r3]
 3372 0090 DBB2     		uxtb	r3, r3
 3373 0092 0122     		mov	r2, #1
 3374 0094 9343     		bic	r3, r2
 3375 0096 DAB2     		uxtb	r2, r3
 3376 0098 024B     		ldr	r3, .L229
 3377 009a 1A70     		strb	r2, [r3]
3190:.\Generated_Source\PSoC4/BLE_eventHandler.c ****             
 3378              		.loc 1 3190 0
 3379 009c C046     		mov	r8, r8
 3380              	.L228:
 3381              	.L220:
3194:.\Generated_Source\PSoC4/BLE_eventHandler.c ****         }
3195:.\Generated_Source\PSoC4/BLE_eventHandler.c ****     }
3196:.\Generated_Source\PSoC4/BLE_eventHandler.c ****     else
3197:.\Generated_Source\PSoC4/BLE_eventHandler.c ****     {
3198:.\Generated_Source\PSoC4/BLE_eventHandler.c ****         #ifdef CYBLE_ANCS_CLIENT
3199:.\Generated_Source\PSoC4/BLE_eventHandler.c ****             CyBle_AncscErrorResponseEventHandler(eventParam);
3200:.\Generated_Source\PSoC4/BLE_eventHandler.c ****         #endif /* CYBLE_ANCS_CLIENT */    
3201:.\Generated_Source\PSoC4/BLE_eventHandler.c ****         #ifdef CYBLE_ANS_CLIENT
3202:.\Generated_Source\PSoC4/BLE_eventHandler.c ****             if((cyBle_eventHandlerFlag & CYBLE_CALLBACK) != 0u)
3203:.\Generated_Source\PSoC4/BLE_eventHandler.c ****             {
3204:.\Generated_Source\PSoC4/BLE_eventHandler.c ****                 CyBle_AnscErrorResponseEventHandler(eventParam);
3205:.\Generated_Source\PSoC4/BLE_eventHandler.c ****             }
3206:.\Generated_Source\PSoC4/BLE_eventHandler.c ****         #endif /* CYBLE_ANS_CLIENT */
3207:.\Generated_Source\PSoC4/BLE_eventHandler.c ****         #ifdef CYBLE_BAS_CLIENT
3208:.\Generated_Source\PSoC4/BLE_eventHandler.c ****             if((cyBle_eventHandlerFlag & CYBLE_CALLBACK) != 0u)
3209:.\Generated_Source\PSoC4/BLE_eventHandler.c ****             {
3210:.\Generated_Source\PSoC4/BLE_eventHandler.c ****                 CyBle_BascErrorResponseEventHandler(eventParam);
3211:.\Generated_Source\PSoC4/BLE_eventHandler.c ****             }
3212:.\Generated_Source\PSoC4/BLE_eventHandler.c ****         #endif /* CYBLE_BAS_CLIENT */
3213:.\Generated_Source\PSoC4/BLE_eventHandler.c ****         #ifdef CYBLE_BLS_CLIENT
3214:.\Generated_Source\PSoC4/BLE_eventHandler.c ****             if((cyBle_eventHandlerFlag & CYBLE_CALLBACK) != 0u)
3215:.\Generated_Source\PSoC4/BLE_eventHandler.c ****             {
3216:.\Generated_Source\PSoC4/BLE_eventHandler.c ****                 CyBle_BlscErrorResponseEventHandler(eventParam);
3217:.\Generated_Source\PSoC4/BLE_eventHandler.c ****             }
3218:.\Generated_Source\PSoC4/BLE_eventHandler.c ****         #endif /* CYBLE_BLS_CLIENT */
3219:.\Generated_Source\PSoC4/BLE_eventHandler.c ****         #ifdef CYBLE_BMS_CLIENT
3220:.\Generated_Source\PSoC4/BLE_eventHandler.c ****             if((cyBle_eventHandlerFlag & CYBLE_CALLBACK) != 0u)
3221:.\Generated_Source\PSoC4/BLE_eventHandler.c ****             {
3222:.\Generated_Source\PSoC4/BLE_eventHandler.c ****                 CyBle_BmscErrorResponseEventHandler(eventParam);
3223:.\Generated_Source\PSoC4/BLE_eventHandler.c ****             }
3224:.\Generated_Source\PSoC4/BLE_eventHandler.c ****         #endif /* CYBLE_BMS_CLIENT */
3225:.\Generated_Source\PSoC4/BLE_eventHandler.c ****         #ifdef CYBLE_CGMS_CLIENT
ARM GAS  C:\Users\YBOURA~1\AppData\Local\Temp\cc3HigXd.s 			page 118


3226:.\Generated_Source\PSoC4/BLE_eventHandler.c ****             if((cyBle_eventHandlerFlag & CYBLE_CALLBACK) != 0u)
3227:.\Generated_Source\PSoC4/BLE_eventHandler.c ****             {
3228:.\Generated_Source\PSoC4/BLE_eventHandler.c ****                 CyBle_CgmscErrorResponseEventHandler(eventParam);
3229:.\Generated_Source\PSoC4/BLE_eventHandler.c ****             }
3230:.\Generated_Source\PSoC4/BLE_eventHandler.c ****         #endif /* CYBLE_CGMS_CLIENT */
3231:.\Generated_Source\PSoC4/BLE_eventHandler.c ****         #ifdef CYBLE_CPS_CLIENT
3232:.\Generated_Source\PSoC4/BLE_eventHandler.c ****             if((cyBle_eventHandlerFlag & CYBLE_CALLBACK) != 0u)
3233:.\Generated_Source\PSoC4/BLE_eventHandler.c ****             {
3234:.\Generated_Source\PSoC4/BLE_eventHandler.c ****                 CyBle_CpscErrorResponseEventHandler(eventParam);
3235:.\Generated_Source\PSoC4/BLE_eventHandler.c ****             }
3236:.\Generated_Source\PSoC4/BLE_eventHandler.c ****         #endif /* CYBLE_CPS_CLIENT */
3237:.\Generated_Source\PSoC4/BLE_eventHandler.c ****         #ifdef CYBLE_CSCS_CLIENT
3238:.\Generated_Source\PSoC4/BLE_eventHandler.c ****             if((cyBle_eventHandlerFlag & CYBLE_CALLBACK) != 0u)
3239:.\Generated_Source\PSoC4/BLE_eventHandler.c ****             {
3240:.\Generated_Source\PSoC4/BLE_eventHandler.c ****                 CyBle_CscscErrorResponseEventHandler(eventParam);
3241:.\Generated_Source\PSoC4/BLE_eventHandler.c ****             }
3242:.\Generated_Source\PSoC4/BLE_eventHandler.c ****         #endif /* CYBLE_CSCS_CLIENT */
3243:.\Generated_Source\PSoC4/BLE_eventHandler.c ****         #ifdef CYBLE_CTS_CLIENT
3244:.\Generated_Source\PSoC4/BLE_eventHandler.c ****             if((cyBle_eventHandlerFlag & CYBLE_CALLBACK) != 0u)
3245:.\Generated_Source\PSoC4/BLE_eventHandler.c ****             {
3246:.\Generated_Source\PSoC4/BLE_eventHandler.c ****                 CyBle_CtscErrorResponseEventHandler(eventParam);
3247:.\Generated_Source\PSoC4/BLE_eventHandler.c ****             }
3248:.\Generated_Source\PSoC4/BLE_eventHandler.c ****         #endif /* CYBLE_CTS_CLIENT */
3249:.\Generated_Source\PSoC4/BLE_eventHandler.c ****         #ifdef CYBLE_DIS_CLIENT
3250:.\Generated_Source\PSoC4/BLE_eventHandler.c ****             if((cyBle_eventHandlerFlag & CYBLE_CALLBACK) != 0u)
3251:.\Generated_Source\PSoC4/BLE_eventHandler.c ****             {
3252:.\Generated_Source\PSoC4/BLE_eventHandler.c ****                 CyBle_DiscErrorResponseEventHandler(eventParam);
3253:.\Generated_Source\PSoC4/BLE_eventHandler.c ****             }
3254:.\Generated_Source\PSoC4/BLE_eventHandler.c ****         #endif /* CYBLE_DIS_CLIENT */
3255:.\Generated_Source\PSoC4/BLE_eventHandler.c ****         #ifdef CYBLE_ESS_CLIENT
3256:.\Generated_Source\PSoC4/BLE_eventHandler.c ****             if((cyBle_eventHandlerFlag & CYBLE_CALLBACK) != 0u)
3257:.\Generated_Source\PSoC4/BLE_eventHandler.c ****             {
3258:.\Generated_Source\PSoC4/BLE_eventHandler.c ****                 CyBle_EsscErrorResponseEventHandler(eventParam);
3259:.\Generated_Source\PSoC4/BLE_eventHandler.c ****             }
3260:.\Generated_Source\PSoC4/BLE_eventHandler.c ****         #endif /* CYBLE_ESS_CLIENT */
3261:.\Generated_Source\PSoC4/BLE_eventHandler.c ****         #ifdef CYBLE_GLS_CLIENT
3262:.\Generated_Source\PSoC4/BLE_eventHandler.c ****             if((cyBle_eventHandlerFlag & CYBLE_CALLBACK) != 0u)
3263:.\Generated_Source\PSoC4/BLE_eventHandler.c ****             {
3264:.\Generated_Source\PSoC4/BLE_eventHandler.c ****                 CyBle_GlscErrorResponseEventHandler(eventParam);
3265:.\Generated_Source\PSoC4/BLE_eventHandler.c ****             }
3266:.\Generated_Source\PSoC4/BLE_eventHandler.c ****         #endif /* CYBLE_GLS_CLIENT */
3267:.\Generated_Source\PSoC4/BLE_eventHandler.c ****         #ifdef CYBLE_HIDS_CLIENT
3268:.\Generated_Source\PSoC4/BLE_eventHandler.c ****             if((cyBle_eventHandlerFlag & CYBLE_CALLBACK) != 0u)
3269:.\Generated_Source\PSoC4/BLE_eventHandler.c ****             {
3270:.\Generated_Source\PSoC4/BLE_eventHandler.c ****                 CyBle_HidscErrorResponseEventHandler(eventParam);
3271:.\Generated_Source\PSoC4/BLE_eventHandler.c ****             }
3272:.\Generated_Source\PSoC4/BLE_eventHandler.c ****         #endif /* CYBLE_HIDS_CLIENT */
3273:.\Generated_Source\PSoC4/BLE_eventHandler.c ****         #ifdef CYBLE_HRS_CLIENT
3274:.\Generated_Source\PSoC4/BLE_eventHandler.c ****             if((cyBle_eventHandlerFlag & CYBLE_CALLBACK) != 0u)
3275:.\Generated_Source\PSoC4/BLE_eventHandler.c ****             {
3276:.\Generated_Source\PSoC4/BLE_eventHandler.c ****                 CyBle_HrscErrorResponseEventHandler(eventParam);
3277:.\Generated_Source\PSoC4/BLE_eventHandler.c ****             }
3278:.\Generated_Source\PSoC4/BLE_eventHandler.c ****         #endif /* CYBLE_HRS_CLIENT */
3279:.\Generated_Source\PSoC4/BLE_eventHandler.c ****         #ifdef CYBLE_HTS_CLIENT
3280:.\Generated_Source\PSoC4/BLE_eventHandler.c ****             if((cyBle_eventHandlerFlag & CYBLE_CALLBACK) != 0u)
3281:.\Generated_Source\PSoC4/BLE_eventHandler.c ****             {
3282:.\Generated_Source\PSoC4/BLE_eventHandler.c ****                 CyBle_HtscErrorResponseEventHandler(eventParam);
ARM GAS  C:\Users\YBOURA~1\AppData\Local\Temp\cc3HigXd.s 			page 119


3283:.\Generated_Source\PSoC4/BLE_eventHandler.c ****             }
3284:.\Generated_Source\PSoC4/BLE_eventHandler.c ****         #endif /* CYBLE_HTS_CLIENT */
3285:.\Generated_Source\PSoC4/BLE_eventHandler.c ****         #ifdef CYBLE_RSCS_CLIENT
3286:.\Generated_Source\PSoC4/BLE_eventHandler.c ****             if((cyBle_eventHandlerFlag & CYBLE_CALLBACK) != 0u)
3287:.\Generated_Source\PSoC4/BLE_eventHandler.c ****             {
3288:.\Generated_Source\PSoC4/BLE_eventHandler.c ****                 CyBle_RscscErrorResponseEventHandler(eventParam);
3289:.\Generated_Source\PSoC4/BLE_eventHandler.c ****             }
3290:.\Generated_Source\PSoC4/BLE_eventHandler.c ****         #endif /* CYBLE_RSCS_CLIENT */
3291:.\Generated_Source\PSoC4/BLE_eventHandler.c ****         #ifdef CYBLE_SCPS_CLIENT
3292:.\Generated_Source\PSoC4/BLE_eventHandler.c ****             if((cyBle_eventHandlerFlag & CYBLE_CALLBACK) != 0u)
3293:.\Generated_Source\PSoC4/BLE_eventHandler.c ****             {
3294:.\Generated_Source\PSoC4/BLE_eventHandler.c ****                 CyBle_ScpscErrorResponseEventHandler(eventParam);
3295:.\Generated_Source\PSoC4/BLE_eventHandler.c ****             }
3296:.\Generated_Source\PSoC4/BLE_eventHandler.c ****         #endif /* CYBLE_SCPS_CLIENT */
3297:.\Generated_Source\PSoC4/BLE_eventHandler.c ****         #ifdef CYBLE_LLS_CLIENT
3298:.\Generated_Source\PSoC4/BLE_eventHandler.c ****             if((cyBle_eventHandlerFlag & CYBLE_CALLBACK) != 0u)
3299:.\Generated_Source\PSoC4/BLE_eventHandler.c ****             {
3300:.\Generated_Source\PSoC4/BLE_eventHandler.c ****                 CyBle_LlscErrorResponseEventHandler(eventParam);
3301:.\Generated_Source\PSoC4/BLE_eventHandler.c ****             }
3302:.\Generated_Source\PSoC4/BLE_eventHandler.c ****         #endif /* CYBLE_LLS_CLIENT */
3303:.\Generated_Source\PSoC4/BLE_eventHandler.c ****         #ifdef CYBLE_LNS_CLIENT
3304:.\Generated_Source\PSoC4/BLE_eventHandler.c ****             if((cyBle_eventHandlerFlag & CYBLE_CALLBACK) != 0u)
3305:.\Generated_Source\PSoC4/BLE_eventHandler.c ****             {
3306:.\Generated_Source\PSoC4/BLE_eventHandler.c ****                 CyBle_LnscErrorResponseEventHandler(eventParam);
3307:.\Generated_Source\PSoC4/BLE_eventHandler.c ****             }
3308:.\Generated_Source\PSoC4/BLE_eventHandler.c ****         #endif /* CYBLE_LNS_CLIENT */
3309:.\Generated_Source\PSoC4/BLE_eventHandler.c ****         #ifdef CYBLE_PASS_CLIENT
3310:.\Generated_Source\PSoC4/BLE_eventHandler.c ****             if((cyBle_eventHandlerFlag & CYBLE_CALLBACK) != 0u)
3311:.\Generated_Source\PSoC4/BLE_eventHandler.c ****             {
3312:.\Generated_Source\PSoC4/BLE_eventHandler.c ****                 CyBle_PasscErrorResponseEventHandler(eventParam);
3313:.\Generated_Source\PSoC4/BLE_eventHandler.c ****             }
3314:.\Generated_Source\PSoC4/BLE_eventHandler.c ****         #endif /* CYBLE_PASS_CLIENT */
3315:.\Generated_Source\PSoC4/BLE_eventHandler.c ****         #ifdef CYBLE_TPS_CLIENT
3316:.\Generated_Source\PSoC4/BLE_eventHandler.c ****             if((cyBle_eventHandlerFlag & CYBLE_CALLBACK) != 0u)
3317:.\Generated_Source\PSoC4/BLE_eventHandler.c ****             {
3318:.\Generated_Source\PSoC4/BLE_eventHandler.c ****                 CyBle_TpscErrorResponseEventHandler(eventParam);
3319:.\Generated_Source\PSoC4/BLE_eventHandler.c ****             }
3320:.\Generated_Source\PSoC4/BLE_eventHandler.c ****         #endif /* CYBLE_TPS_CLIENT */
3321:.\Generated_Source\PSoC4/BLE_eventHandler.c ****         #ifdef CYBLE_UDS_CLIENT
3322:.\Generated_Source\PSoC4/BLE_eventHandler.c ****             if((cyBle_eventHandlerFlag & CYBLE_CALLBACK) != 0u)
3323:.\Generated_Source\PSoC4/BLE_eventHandler.c ****             {
3324:.\Generated_Source\PSoC4/BLE_eventHandler.c ****                 CyBle_UdscErrorResponseEventHandler(eventParam);
3325:.\Generated_Source\PSoC4/BLE_eventHandler.c ****             }
3326:.\Generated_Source\PSoC4/BLE_eventHandler.c ****         #endif /* CYBLE_UDS_CLIENT */
3327:.\Generated_Source\PSoC4/BLE_eventHandler.c ****         #ifdef CYBLE_WPTS_CLIENT
3328:.\Generated_Source\PSoC4/BLE_eventHandler.c ****             if((cyBle_eventHandlerFlag & CYBLE_CALLBACK) != 0u)
3329:.\Generated_Source\PSoC4/BLE_eventHandler.c ****             {
3330:.\Generated_Source\PSoC4/BLE_eventHandler.c ****                 CyBle_WptscErrorResponseEventHandler(eventParam);
3331:.\Generated_Source\PSoC4/BLE_eventHandler.c ****             }
3332:.\Generated_Source\PSoC4/BLE_eventHandler.c ****         #endif /* CYBLE_WPTS_CLIENT */
3333:.\Generated_Source\PSoC4/BLE_eventHandler.c ****         #ifdef CYBLE_WSS_CLIENT
3334:.\Generated_Source\PSoC4/BLE_eventHandler.c ****             if((cyBle_eventHandlerFlag & CYBLE_CALLBACK) != 0u)
3335:.\Generated_Source\PSoC4/BLE_eventHandler.c ****             {
3336:.\Generated_Source\PSoC4/BLE_eventHandler.c ****                 CyBle_WsscErrorResponseEventHandler(eventParam);
3337:.\Generated_Source\PSoC4/BLE_eventHandler.c ****             }
3338:.\Generated_Source\PSoC4/BLE_eventHandler.c ****         #endif /* CYBLE_WSS_CLIENT */
3339:.\Generated_Source\PSoC4/BLE_eventHandler.c ****     }
ARM GAS  C:\Users\YBOURA~1\AppData\Local\Temp\cc3HigXd.s 			page 120


3340:.\Generated_Source\PSoC4/BLE_eventHandler.c **** }
 3382              		.loc 1 3340 0
 3383 009e BD46     		mov	sp, r7
 3384 00a0 02B0     		add	sp, sp, #8
 3385              		@ sp needed
 3386 00a2 80BD     		pop	{r7, pc}
 3387              	.L230:
 3388              		.align	2
 3389              	.L229:
 3390 00a4 00000000 		.word	cyBle_eventHandlerFlag
 3391 00a8 00000000 		.word	cyBle_clientState
 3392              		.cfi_endproc
 3393              	.LFE23:
 3394              		.size	CyBle_ErrorResponseEventHandler, .-CyBle_ErrorResponseEventHandler
 3395              		.text
 3396              	.Letext0:
 3397              		.file 2 ".\\Generated_Source\\PSoC4\\cytypes.h"
 3398              		.file 3 ".\\Generated_Source\\PSoC4\\BLE_Stack.h"
 3399              		.file 4 ".\\Generated_Source\\PSoC4\\BLE_StackHostMain.h"
 3400              		.file 5 ".\\Generated_Source\\PSoC4\\BLE_StackGap.h"
 3401              		.file 6 ".\\Generated_Source\\PSoC4\\BLE_StackGatt.h"
 3402              		.file 7 ".\\Generated_Source\\PSoC4\\BLE_StackGattServer.h"
 3403              		.file 8 ".\\Generated_Source\\PSoC4\\BLE_StackGattClient.h"
 3404              		.file 9 ".\\Generated_Source\\PSoC4\\BLE.h"
 3405              		.file 10 ".\\Generated_Source\\PSoC4\\BLE_gatt.h"
 3406              		.file 11 ".\\Generated_Source\\PSoC4\\BLE_eventHandler.h"
 3407              		.section	.debug_info,"",%progbits
 3408              	.Ldebug_info0:
 3409 0000 181B0000 		.4byte	0x1b18
 3410 0004 0400     		.2byte	0x4
 3411 0006 00000000 		.4byte	.Ldebug_abbrev0
 3412 000a 04       		.byte	0x4
 3413 000b 01       		.uleb128 0x1
 3414 000c 97340000 		.4byte	.LASF634
 3415 0010 01       		.byte	0x1
 3416 0011 BF0D0000 		.4byte	.LASF635
 3417 0015 351A0000 		.4byte	.LASF636
 3418 0019 00000000 		.4byte	.Ldebug_ranges0+0
 3419 001d 00000000 		.4byte	0
 3420 0021 00000000 		.4byte	.Ldebug_line0
 3421 0025 02       		.uleb128 0x2
 3422 0026 01       		.byte	0x1
 3423 0027 06       		.byte	0x6
 3424 0028 440F0000 		.4byte	.LASF0
 3425 002c 02       		.uleb128 0x2
 3426 002d 01       		.byte	0x1
 3427 002e 08       		.byte	0x8
 3428 002f C3100000 		.4byte	.LASF1
 3429 0033 02       		.uleb128 0x2
 3430 0034 02       		.byte	0x2
 3431 0035 05       		.byte	0x5
 3432 0036 CD3A0000 		.4byte	.LASF2
 3433 003a 02       		.uleb128 0x2
 3434 003b 02       		.byte	0x2
 3435 003c 07       		.byte	0x7
 3436 003d 4F430000 		.4byte	.LASF3
 3437 0041 02       		.uleb128 0x2
ARM GAS  C:\Users\YBOURA~1\AppData\Local\Temp\cc3HigXd.s 			page 121


 3438 0042 04       		.byte	0x4
 3439 0043 05       		.byte	0x5
 3440 0044 AB0B0000 		.4byte	.LASF4
 3441 0048 02       		.uleb128 0x2
 3442 0049 04       		.byte	0x4
 3443 004a 07       		.byte	0x7
 3444 004b AD1E0000 		.4byte	.LASF5
 3445 004f 02       		.uleb128 0x2
 3446 0050 08       		.byte	0x8
 3447 0051 05       		.byte	0x5
 3448 0052 7D230000 		.4byte	.LASF6
 3449 0056 02       		.uleb128 0x2
 3450 0057 08       		.byte	0x8
 3451 0058 07       		.byte	0x7
 3452 0059 58310000 		.4byte	.LASF7
 3453 005d 03       		.uleb128 0x3
 3454 005e 04       		.byte	0x4
 3455 005f 05       		.byte	0x5
 3456 0060 696E7400 		.ascii	"int\000"
 3457 0064 02       		.uleb128 0x2
 3458 0065 04       		.byte	0x4
 3459 0066 07       		.byte	0x7
 3460 0067 A6280000 		.4byte	.LASF8
 3461 006b 04       		.uleb128 0x4
 3462 006c 283A0000 		.4byte	.LASF9
 3463 0070 02       		.byte	0x2
 3464 0071 C2       		.byte	0xc2
 3465 0072 2C000000 		.4byte	0x2c
 3466 0076 04       		.uleb128 0x4
 3467 0077 4E460000 		.4byte	.LASF10
 3468 007b 02       		.byte	0x2
 3469 007c C3       		.byte	0xc3
 3470 007d 3A000000 		.4byte	0x3a
 3471 0081 04       		.uleb128 0x4
 3472 0082 42030000 		.4byte	.LASF11
 3473 0086 02       		.byte	0x2
 3474 0087 C4       		.byte	0xc4
 3475 0088 48000000 		.4byte	0x48
 3476 008c 02       		.uleb128 0x2
 3477 008d 04       		.byte	0x4
 3478 008e 04       		.byte	0x4
 3479 008f 06270000 		.4byte	.LASF12
 3480 0093 02       		.uleb128 0x2
 3481 0094 08       		.byte	0x8
 3482 0095 04       		.byte	0x4
 3483 0096 C7240000 		.4byte	.LASF13
 3484 009a 02       		.uleb128 0x2
 3485 009b 01       		.byte	0x1
 3486 009c 08       		.byte	0x8
 3487 009d 7E130000 		.4byte	.LASF14
 3488 00a1 05       		.uleb128 0x5
 3489 00a2 6B000000 		.4byte	0x6b
 3490 00a6 02       		.uleb128 0x2
 3491 00a7 04       		.byte	0x4
 3492 00a8 07       		.byte	0x7
 3493 00a9 7F000000 		.4byte	.LASF15
 3494 00ad 06       		.uleb128 0x6
ARM GAS  C:\Users\YBOURA~1\AppData\Local\Temp\cc3HigXd.s 			page 122


 3495 00ae 04       		.byte	0x4
 3496 00af 07       		.uleb128 0x7
 3497 00b0 01       		.byte	0x1
 3498 00b1 03       		.byte	0x3
 3499 00b2 A4       		.byte	0xa4
 3500 00b3 34020000 		.4byte	0x234
 3501 00b7 08       		.uleb128 0x8
 3502 00b8 22140000 		.4byte	.LASF16
 3503 00bc 00       		.sleb128 0
 3504 00bd 08       		.uleb128 0x8
 3505 00be B90C0000 		.4byte	.LASF17
 3506 00c2 01       		.sleb128 1
 3507 00c3 08       		.uleb128 0x8
 3508 00c4 8D310000 		.4byte	.LASF18
 3509 00c8 02       		.sleb128 2
 3510 00c9 08       		.uleb128 0x8
 3511 00ca EF0F0000 		.4byte	.LASF19
 3512 00ce 03       		.sleb128 3
 3513 00cf 08       		.uleb128 0x8
 3514 00d0 AE440000 		.4byte	.LASF20
 3515 00d4 04       		.sleb128 4
 3516 00d5 08       		.uleb128 0x8
 3517 00d6 61410000 		.4byte	.LASF21
 3518 00da 05       		.sleb128 5
 3519 00db 08       		.uleb128 0x8
 3520 00dc 293D0000 		.4byte	.LASF22
 3521 00e0 20       		.sleb128 32
 3522 00e1 08       		.uleb128 0x8
 3523 00e2 78080000 		.4byte	.LASF23
 3524 00e6 21       		.sleb128 33
 3525 00e7 08       		.uleb128 0x8
 3526 00e8 6C220000 		.4byte	.LASF24
 3527 00ec 22       		.sleb128 34
 3528 00ed 08       		.uleb128 0x8
 3529 00ee 622C0000 		.4byte	.LASF25
 3530 00f2 23       		.sleb128 35
 3531 00f3 08       		.uleb128 0x8
 3532 00f4 291D0000 		.4byte	.LASF26
 3533 00f8 24       		.sleb128 36
 3534 00f9 08       		.uleb128 0x8
 3535 00fa 8C1D0000 		.4byte	.LASF27
 3536 00fe 25       		.sleb128 37
 3537 00ff 08       		.uleb128 0x8
 3538 0100 57390000 		.4byte	.LASF28
 3539 0104 26       		.sleb128 38
 3540 0105 08       		.uleb128 0x8
 3541 0106 A0020000 		.4byte	.LASF29
 3542 010a 27       		.sleb128 39
 3543 010b 08       		.uleb128 0x8
 3544 010c C7450000 		.4byte	.LASF30
 3545 0110 28       		.sleb128 40
 3546 0111 08       		.uleb128 0x8
 3547 0112 582F0000 		.4byte	.LASF31
 3548 0116 29       		.sleb128 41
 3549 0117 08       		.uleb128 0x8
 3550 0118 2E210000 		.4byte	.LASF32
 3551 011c 2A       		.sleb128 42
ARM GAS  C:\Users\YBOURA~1\AppData\Local\Temp\cc3HigXd.s 			page 123


 3552 011d 08       		.uleb128 0x8
 3553 011e 542B0000 		.4byte	.LASF33
 3554 0122 2B       		.sleb128 43
 3555 0123 08       		.uleb128 0x8
 3556 0124 CB410000 		.4byte	.LASF34
 3557 0128 2C       		.sleb128 44
 3558 0129 08       		.uleb128 0x8
 3559 012a 9C3B0000 		.4byte	.LASF35
 3560 012e C000     		.sleb128 64
 3561 0130 08       		.uleb128 0x8
 3562 0131 E0020000 		.4byte	.LASF36
 3563 0135 C100     		.sleb128 65
 3564 0137 08       		.uleb128 0x8
 3565 0138 C3440000 		.4byte	.LASF37
 3566 013c C200     		.sleb128 66
 3567 013e 08       		.uleb128 0x8
 3568 013f C22F0000 		.4byte	.LASF38
 3569 0143 C300     		.sleb128 67
 3570 0145 08       		.uleb128 0x8
 3571 0146 D1100000 		.4byte	.LASF39
 3572 014a C400     		.sleb128 68
 3573 014c 08       		.uleb128 0x8
 3574 014d 70100000 		.4byte	.LASF40
 3575 0151 C500     		.sleb128 69
 3576 0153 08       		.uleb128 0x8
 3577 0154 BF360000 		.4byte	.LASF41
 3578 0158 C600     		.sleb128 70
 3579 015a 08       		.uleb128 0x8
 3580 015b A1360000 		.4byte	.LASF42
 3581 015f C700     		.sleb128 71
 3582 0161 08       		.uleb128 0x8
 3583 0162 0D130000 		.4byte	.LASF43
 3584 0166 C800     		.sleb128 72
 3585 0168 08       		.uleb128 0x8
 3586 0169 D72C0000 		.4byte	.LASF44
 3587 016d C900     		.sleb128 73
 3588 016f 08       		.uleb128 0x8
 3589 0170 CB140000 		.4byte	.LASF45
 3590 0174 CA00     		.sleb128 74
 3591 0176 08       		.uleb128 0x8
 3592 0177 CF130000 		.4byte	.LASF46
 3593 017b CB00     		.sleb128 75
 3594 017d 08       		.uleb128 0x8
 3595 017e F22B0000 		.4byte	.LASF47
 3596 0182 CC00     		.sleb128 76
 3597 0184 08       		.uleb128 0x8
 3598 0185 58380000 		.4byte	.LASF48
 3599 0189 CD00     		.sleb128 77
 3600 018b 08       		.uleb128 0x8
 3601 018c 690B0000 		.4byte	.LASF49
 3602 0190 CE00     		.sleb128 78
 3603 0192 08       		.uleb128 0x8
 3604 0193 B3280000 		.4byte	.LASF50
 3605 0197 CF00     		.sleb128 79
 3606 0199 08       		.uleb128 0x8
 3607 019a 0A3D0000 		.4byte	.LASF51
 3608 019e D000     		.sleb128 80
ARM GAS  C:\Users\YBOURA~1\AppData\Local\Temp\cc3HigXd.s 			page 124


 3609 01a0 08       		.uleb128 0x8
 3610 01a1 46150000 		.4byte	.LASF52
 3611 01a5 D100     		.sleb128 81
 3612 01a7 08       		.uleb128 0x8
 3613 01a8 57080000 		.4byte	.LASF53
 3614 01ac D200     		.sleb128 82
 3615 01ae 08       		.uleb128 0x8
 3616 01af D7400000 		.4byte	.LASF54
 3617 01b3 D300     		.sleb128 83
 3618 01b5 08       		.uleb128 0x8
 3619 01b6 09460000 		.4byte	.LASF55
 3620 01ba D400     		.sleb128 84
 3621 01bc 08       		.uleb128 0x8
 3622 01bd 4A060000 		.4byte	.LASF56
 3623 01c1 D500     		.sleb128 85
 3624 01c3 08       		.uleb128 0x8
 3625 01c4 A9160000 		.4byte	.LASF57
 3626 01c8 D600     		.sleb128 86
 3627 01ca 08       		.uleb128 0x8
 3628 01cb B2270000 		.4byte	.LASF58
 3629 01cf D700     		.sleb128 87
 3630 01d1 08       		.uleb128 0x8
 3631 01d2 66420000 		.4byte	.LASF59
 3632 01d6 F000     		.sleb128 112
 3633 01d8 08       		.uleb128 0x8
 3634 01d9 E51B0000 		.4byte	.LASF60
 3635 01dd F100     		.sleb128 113
 3636 01df 08       		.uleb128 0x8
 3637 01e0 AA0E0000 		.4byte	.LASF61
 3638 01e4 F200     		.sleb128 114
 3639 01e6 08       		.uleb128 0x8
 3640 01e7 EC3C0000 		.4byte	.LASF62
 3641 01eb F300     		.sleb128 115
 3642 01ed 08       		.uleb128 0x8
 3643 01ee 442D0000 		.4byte	.LASF63
 3644 01f2 F400     		.sleb128 116
 3645 01f4 08       		.uleb128 0x8
 3646 01f5 C9210000 		.4byte	.LASF64
 3647 01f9 F500     		.sleb128 117
 3648 01fb 08       		.uleb128 0x8
 3649 01fc EC120000 		.4byte	.LASF65
 3650 0200 F600     		.sleb128 118
 3651 0202 08       		.uleb128 0x8
 3652 0203 5C320000 		.4byte	.LASF66
 3653 0207 F700     		.sleb128 119
 3654 0209 08       		.uleb128 0x8
 3655 020a 6E060000 		.4byte	.LASF67
 3656 020e F800     		.sleb128 120
 3657 0210 08       		.uleb128 0x8
 3658 0211 06120000 		.4byte	.LASF68
 3659 0215 F900     		.sleb128 121
 3660 0217 08       		.uleb128 0x8
 3661 0218 27450000 		.4byte	.LASF69
 3662 021c FA00     		.sleb128 122
 3663 021e 08       		.uleb128 0x8
 3664 021f 13250000 		.4byte	.LASF70
 3665 0223 FA01     		.sleb128 250
ARM GAS  C:\Users\YBOURA~1\AppData\Local\Temp\cc3HigXd.s 			page 125


 3666 0225 08       		.uleb128 0x8
 3667 0226 F13F0000 		.4byte	.LASF71
 3668 022a FB01     		.sleb128 251
 3669 022c 08       		.uleb128 0x8
 3670 022d 462B0000 		.4byte	.LASF72
 3671 0231 FF01     		.sleb128 255
 3672 0233 00       		.byte	0
 3673 0234 09       		.uleb128 0x9
 3674 0235 02       		.byte	0x2
 3675 0236 03       		.byte	0x3
 3676 0237 0C02     		.2byte	0x20c
 3677 0239 EB020000 		.4byte	0x2eb
 3678 023d 08       		.uleb128 0x8
 3679 023e 1B100000 		.4byte	.LASF73
 3680 0242 00       		.sleb128 0
 3681 0243 08       		.uleb128 0x8
 3682 0244 E3170000 		.4byte	.LASF74
 3683 0248 01       		.sleb128 1
 3684 0249 08       		.uleb128 0x8
 3685 024a 90440000 		.4byte	.LASF75
 3686 024e 02       		.sleb128 2
 3687 024f 08       		.uleb128 0x8
 3688 0250 8B190000 		.4byte	.LASF76
 3689 0254 03       		.sleb128 3
 3690 0255 08       		.uleb128 0x8
 3691 0256 041E0000 		.4byte	.LASF77
 3692 025a 04       		.sleb128 4
 3693 025b 08       		.uleb128 0x8
 3694 025c 86240000 		.4byte	.LASF78
 3695 0260 05       		.sleb128 5
 3696 0261 08       		.uleb128 0x8
 3697 0262 643F0000 		.4byte	.LASF79
 3698 0266 06       		.sleb128 6
 3699 0267 08       		.uleb128 0x8
 3700 0268 AE140000 		.4byte	.LASF80
 3701 026c 07       		.sleb128 7
 3702 026d 08       		.uleb128 0x8
 3703 026e 6F260000 		.4byte	.LASF81
 3704 0272 08       		.sleb128 8
 3705 0273 08       		.uleb128 0x8
 3706 0274 ED3D0000 		.4byte	.LASF82
 3707 0278 09       		.sleb128 9
 3708 0279 08       		.uleb128 0x8
 3709 027a 79460000 		.4byte	.LASF83
 3710 027e 0A       		.sleb128 10
 3711 027f 08       		.uleb128 0x8
 3712 0280 EE080000 		.4byte	.LASF84
 3713 0284 0B       		.sleb128 11
 3714 0285 08       		.uleb128 0x8
 3715 0286 4A410000 		.4byte	.LASF85
 3716 028a 0C       		.sleb128 12
 3717 028b 08       		.uleb128 0x8
 3718 028c 832A0000 		.4byte	.LASF86
 3719 0290 0D       		.sleb128 13
 3720 0291 08       		.uleb128 0x8
 3721 0292 03200000 		.4byte	.LASF87
 3722 0296 0E       		.sleb128 14
ARM GAS  C:\Users\YBOURA~1\AppData\Local\Temp\cc3HigXd.s 			page 126


 3723 0297 08       		.uleb128 0x8
 3724 0298 61240000 		.4byte	.LASF88
 3725 029c 0F       		.sleb128 15
 3726 029d 08       		.uleb128 0x8
 3727 029e A1050000 		.4byte	.LASF89
 3728 02a2 10       		.sleb128 16
 3729 02a3 08       		.uleb128 0x8
 3730 02a4 4B260000 		.4byte	.LASF90
 3731 02a8 11       		.sleb128 17
 3732 02a9 08       		.uleb128 0x8
 3733 02aa CC0C0000 		.4byte	.LASF91
 3734 02ae 12       		.sleb128 18
 3735 02af 08       		.uleb128 0x8
 3736 02b0 1C0F0000 		.4byte	.LASF92
 3737 02b4 13       		.sleb128 19
 3738 02b5 08       		.uleb128 0x8
 3739 02b6 CE240000 		.4byte	.LASF93
 3740 02ba 27       		.sleb128 39
 3741 02bb 08       		.uleb128 0x8
 3742 02bc 67270000 		.4byte	.LASF94
 3743 02c0 28       		.sleb128 40
 3744 02c1 08       		.uleb128 0x8
 3745 02c2 F3050000 		.4byte	.LASF95
 3746 02c6 29       		.sleb128 41
 3747 02c7 08       		.uleb128 0x8
 3748 02c8 B21B0000 		.4byte	.LASF96
 3749 02cc FF01     		.sleb128 255
 3750 02ce 08       		.uleb128 0x8
 3751 02cf A12C0000 		.4byte	.LASF97
 3752 02d3 8002     		.sleb128 256
 3753 02d5 08       		.uleb128 0x8
 3754 02d6 882C0000 		.4byte	.LASF98
 3755 02da 8102     		.sleb128 257
 3756 02dc 08       		.uleb128 0x8
 3757 02dd EB0D0000 		.4byte	.LASF99
 3758 02e1 8202     		.sleb128 258
 3759 02e3 08       		.uleb128 0x8
 3760 02e4 16320000 		.4byte	.LASF100
 3761 02e8 8302     		.sleb128 259
 3762 02ea 00       		.byte	0
 3763 02eb 09       		.uleb128 0x9
 3764 02ec 01       		.byte	0x1
 3765 02ed 03       		.byte	0x3
 3766 02ee 9A02     		.2byte	0x29a
 3767 02f0 2B030000 		.4byte	0x32b
 3768 02f4 08       		.uleb128 0x8
 3769 02f5 500F0000 		.4byte	.LASF101
 3770 02f9 01       		.sleb128 1
 3771 02fa 08       		.uleb128 0x8
 3772 02fb BE0A0000 		.4byte	.LASF102
 3773 02ff 02       		.sleb128 2
 3774 0300 08       		.uleb128 0x8
 3775 0301 462E0000 		.4byte	.LASF103
 3776 0305 03       		.sleb128 3
 3777 0306 08       		.uleb128 0x8
 3778 0307 93090000 		.4byte	.LASF104
 3779 030b 04       		.sleb128 4
ARM GAS  C:\Users\YBOURA~1\AppData\Local\Temp\cc3HigXd.s 			page 127


 3780 030c 08       		.uleb128 0x8
 3781 030d 83130000 		.4byte	.LASF105
 3782 0311 05       		.sleb128 5
 3783 0312 08       		.uleb128 0x8
 3784 0313 151F0000 		.4byte	.LASF106
 3785 0317 06       		.sleb128 6
 3786 0318 08       		.uleb128 0x8
 3787 0319 7E3F0000 		.4byte	.LASF107
 3788 031d 07       		.sleb128 7
 3789 031e 08       		.uleb128 0x8
 3790 031f 961E0000 		.4byte	.LASF108
 3791 0323 08       		.sleb128 8
 3792 0324 08       		.uleb128 0x8
 3793 0325 5A250000 		.4byte	.LASF109
 3794 0329 09       		.sleb128 9
 3795 032a 00       		.byte	0
 3796 032b 0A       		.uleb128 0xa
 3797 032c 90220000 		.4byte	.LASF110
 3798 0330 03       		.byte	0x3
 3799 0331 B102     		.2byte	0x2b1
 3800 0333 EB020000 		.4byte	0x2eb
 3801 0337 09       		.uleb128 0x9
 3802 0338 01       		.byte	0x1
 3803 0339 03       		.byte	0x3
 3804 033a B502     		.2byte	0x2b5
 3805 033c 53030000 		.4byte	0x353
 3806 0340 08       		.uleb128 0x8
 3807 0341 B93F0000 		.4byte	.LASF111
 3808 0345 00       		.sleb128 0
 3809 0346 08       		.uleb128 0x8
 3810 0347 61290000 		.4byte	.LASF112
 3811 034b 01       		.sleb128 1
 3812 034c 08       		.uleb128 0x8
 3813 034d 51420000 		.4byte	.LASF113
 3814 0351 02       		.sleb128 2
 3815 0352 00       		.byte	0
 3816 0353 0A       		.uleb128 0xa
 3817 0354 2A100000 		.4byte	.LASF114
 3818 0358 03       		.byte	0x3
 3819 0359 BC02     		.2byte	0x2bc
 3820 035b 37030000 		.4byte	0x337
 3821 035f 0B       		.uleb128 0xb
 3822 0360 02       		.byte	0x2
 3823 0361 03       		.byte	0x3
 3824 0362 BF02     		.2byte	0x2bf
 3825 0364 83030000 		.4byte	0x383
 3826 0368 0C       		.uleb128 0xc
 3827 0369 D3030000 		.4byte	.LASF115
 3828 036d 03       		.byte	0x3
 3829 036e C202     		.2byte	0x2c2
 3830 0370 2B030000 		.4byte	0x32b
 3831 0374 00       		.byte	0
 3832 0375 0C       		.uleb128 0xc
 3833 0376 610E0000 		.4byte	.LASF116
 3834 037a 03       		.byte	0x3
 3835 037b C402     		.2byte	0x2c4
 3836 037d 53030000 		.4byte	0x353
ARM GAS  C:\Users\YBOURA~1\AppData\Local\Temp\cc3HigXd.s 			page 128


 3837 0381 01       		.byte	0x1
 3838 0382 00       		.byte	0
 3839 0383 0A       		.uleb128 0xa
 3840 0384 31420000 		.4byte	.LASF117
 3841 0388 03       		.byte	0x3
 3842 0389 C502     		.2byte	0x2c5
 3843 038b 5F030000 		.4byte	0x35f
 3844 038f 0B       		.uleb128 0xb
 3845 0390 07       		.byte	0x7
 3846 0391 03       		.byte	0x3
 3847 0392 0503     		.2byte	0x305
 3848 0394 B3030000 		.4byte	0x3b3
 3849 0398 0C       		.uleb128 0xc
 3850 0399 B33E0000 		.4byte	.LASF118
 3851 039d 03       		.byte	0x3
 3852 039e 0803     		.2byte	0x308
 3853 03a0 B3030000 		.4byte	0x3b3
 3854 03a4 00       		.byte	0
 3855 03a5 0C       		.uleb128 0xc
 3856 03a6 FE060000 		.4byte	.LASF119
 3857 03aa 03       		.byte	0x3
 3858 03ab 0A03     		.2byte	0x30a
 3859 03ad 6B000000 		.4byte	0x6b
 3860 03b1 06       		.byte	0x6
 3861 03b2 00       		.byte	0
 3862 03b3 0D       		.uleb128 0xd
 3863 03b4 6B000000 		.4byte	0x6b
 3864 03b8 C3030000 		.4byte	0x3c3
 3865 03bc 0E       		.uleb128 0xe
 3866 03bd A6000000 		.4byte	0xa6
 3867 03c1 05       		.byte	0x5
 3868 03c2 00       		.byte	0
 3869 03c3 0A       		.uleb128 0xa
 3870 03c4 6A340000 		.4byte	.LASF120
 3871 03c8 03       		.byte	0x3
 3872 03c9 0B03     		.2byte	0x30b
 3873 03cb 8F030000 		.4byte	0x38f
 3874 03cf 07       		.uleb128 0x7
 3875 03d0 01       		.byte	0x1
 3876 03d1 04       		.byte	0x4
 3877 03d2 4B       		.byte	0x4b
 3878 03d3 F0030000 		.4byte	0x3f0
 3879 03d7 08       		.uleb128 0x8
 3880 03d8 0E2A0000 		.4byte	.LASF121
 3881 03dc 01       		.sleb128 1
 3882 03dd 08       		.uleb128 0x8
 3883 03de D8330000 		.4byte	.LASF122
 3884 03e2 02       		.sleb128 2
 3885 03e3 08       		.uleb128 0x8
 3886 03e4 EF440000 		.4byte	.LASF123
 3887 03e8 03       		.sleb128 3
 3888 03e9 08       		.uleb128 0x8
 3889 03ea 45360000 		.4byte	.LASF124
 3890 03ee 04       		.sleb128 4
 3891 03ef 00       		.byte	0
 3892 03f0 04       		.uleb128 0x4
 3893 03f1 03070000 		.4byte	.LASF125
ARM GAS  C:\Users\YBOURA~1\AppData\Local\Temp\cc3HigXd.s 			page 129


 3894 03f5 04       		.byte	0x4
 3895 03f6 58       		.byte	0x58
 3896 03f7 CF030000 		.4byte	0x3cf
 3897 03fb 07       		.uleb128 0x7
 3898 03fc 01       		.byte	0x1
 3899 03fd 05       		.byte	0x5
 3900 03fe B8       		.byte	0xb8
 3901 03ff 1C040000 		.4byte	0x41c
 3902 0403 08       		.uleb128 0x8
 3903 0404 550C0000 		.4byte	.LASF126
 3904 0408 00       		.sleb128 0
 3905 0409 08       		.uleb128 0x8
 3906 040a 6B0C0000 		.4byte	.LASF127
 3907 040e 01       		.sleb128 1
 3908 040f 08       		.uleb128 0x8
 3909 0410 810C0000 		.4byte	.LASF128
 3910 0414 02       		.sleb128 2
 3911 0415 08       		.uleb128 0x8
 3912 0416 5F160000 		.4byte	.LASF129
 3913 041a 0F       		.sleb128 15
 3914 041b 00       		.byte	0
 3915 041c 07       		.uleb128 0x7
 3916 041d 01       		.byte	0x1
 3917 041e 05       		.byte	0x5
 3918 041f D2       		.byte	0xd2
 3919 0420 43040000 		.4byte	0x443
 3920 0424 08       		.uleb128 0x8
 3921 0425 45090000 		.4byte	.LASF130
 3922 0429 00       		.sleb128 0
 3923 042a 08       		.uleb128 0x8
 3924 042b 89410000 		.4byte	.LASF131
 3925 042f 01       		.sleb128 1
 3926 0430 08       		.uleb128 0x8
 3927 0431 04140000 		.4byte	.LASF132
 3928 0435 02       		.sleb128 2
 3929 0436 08       		.uleb128 0x8
 3930 0437 BF020000 		.4byte	.LASF133
 3931 043b 03       		.sleb128 3
 3932 043c 08       		.uleb128 0x8
 3933 043d B63B0000 		.4byte	.LASF134
 3934 0441 04       		.sleb128 4
 3935 0442 00       		.byte	0
 3936 0443 07       		.uleb128 0x7
 3937 0444 01       		.byte	0x1
 3938 0445 05       		.byte	0x5
 3939 0446 E8       		.byte	0xe8
 3940 0447 9A040000 		.4byte	0x49a
 3941 044b 08       		.uleb128 0x8
 3942 044c 3E2F0000 		.4byte	.LASF135
 3943 0450 00       		.sleb128 0
 3944 0451 08       		.uleb128 0x8
 3945 0452 210A0000 		.4byte	.LASF136
 3946 0456 01       		.sleb128 1
 3947 0457 08       		.uleb128 0x8
 3948 0458 1D300000 		.4byte	.LASF137
 3949 045c 02       		.sleb128 2
 3950 045d 08       		.uleb128 0x8
ARM GAS  C:\Users\YBOURA~1\AppData\Local\Temp\cc3HigXd.s 			page 130


 3951 045e 7E1F0000 		.4byte	.LASF138
 3952 0462 03       		.sleb128 3
 3953 0463 08       		.uleb128 0x8
 3954 0464 21440000 		.4byte	.LASF139
 3955 0468 04       		.sleb128 4
 3956 0469 08       		.uleb128 0x8
 3957 046a F7350000 		.4byte	.LASF140
 3958 046e 05       		.sleb128 5
 3959 046f 08       		.uleb128 0x8
 3960 0470 2B230000 		.4byte	.LASF141
 3961 0474 06       		.sleb128 6
 3962 0475 08       		.uleb128 0x8
 3963 0476 531F0000 		.4byte	.LASF142
 3964 047a 07       		.sleb128 7
 3965 047b 08       		.uleb128 0x8
 3966 047c 8B070000 		.4byte	.LASF143
 3967 0480 08       		.sleb128 8
 3968 0481 08       		.uleb128 0x8
 3969 0482 A2210000 		.4byte	.LASF144
 3970 0486 09       		.sleb128 9
 3971 0487 08       		.uleb128 0x8
 3972 0488 94120000 		.4byte	.LASF145
 3973 048c 0A       		.sleb128 10
 3974 048d 08       		.uleb128 0x8
 3975 048e 3D070000 		.4byte	.LASF146
 3976 0492 15       		.sleb128 21
 3977 0493 08       		.uleb128 0x8
 3978 0494 0B1C0000 		.4byte	.LASF147
 3979 0498 18       		.sleb128 24
 3980 0499 00       		.byte	0
 3981 049a 0A       		.uleb128 0xa
 3982 049b D32B0000 		.4byte	.LASF148
 3983 049f 05       		.byte	0x5
 3984 04a0 1401     		.2byte	0x114
 3985 04a2 43040000 		.4byte	0x443
 3986 04a6 0B       		.uleb128 0xb
 3987 04a7 04       		.byte	0x4
 3988 04a8 05       		.byte	0x5
 3989 04a9 2D01     		.2byte	0x12d
 3990 04ab E4040000 		.4byte	0x4e4
 3991 04af 0C       		.uleb128 0xc
 3992 04b0 5F3A0000 		.4byte	.LASF149
 3993 04b4 05       		.byte	0x5
 3994 04b5 3601     		.2byte	0x136
 3995 04b7 6B000000 		.4byte	0x6b
 3996 04bb 00       		.byte	0
 3997 04bc 0C       		.uleb128 0xc
 3998 04bd 7B280000 		.4byte	.LASF150
 3999 04c1 05       		.byte	0x5
 4000 04c2 3C01     		.2byte	0x13c
 4001 04c4 6B000000 		.4byte	0x6b
 4002 04c8 01       		.byte	0x1
 4003 04c9 0C       		.uleb128 0xc
 4004 04ca 02010000 		.4byte	.LASF151
 4005 04ce 05       		.byte	0x5
 4006 04cf 4201     		.2byte	0x142
 4007 04d1 6B000000 		.4byte	0x6b
ARM GAS  C:\Users\YBOURA~1\AppData\Local\Temp\cc3HigXd.s 			page 131


 4008 04d5 02       		.byte	0x2
 4009 04d6 0C       		.uleb128 0xc
 4010 04d7 D73A0000 		.4byte	.LASF152
 4011 04db 05       		.byte	0x5
 4012 04dc 4601     		.2byte	0x146
 4013 04de 9A040000 		.4byte	0x49a
 4014 04e2 03       		.byte	0x3
 4015 04e3 00       		.byte	0
 4016 04e4 0A       		.uleb128 0xa
 4017 04e5 EE130000 		.4byte	.LASF153
 4018 04e9 05       		.byte	0x5
 4019 04ea 4801     		.2byte	0x148
 4020 04ec A6040000 		.4byte	0x4a6
 4021 04f0 0D       		.uleb128 0xd
 4022 04f1 6B000000 		.4byte	0x6b
 4023 04f5 00050000 		.4byte	0x500
 4024 04f9 0E       		.uleb128 0xe
 4025 04fa A6000000 		.4byte	0xa6
 4026 04fe 0F       		.byte	0xf
 4027 04ff 00       		.byte	0
 4028 0500 0F       		.uleb128 0xf
 4029 0501 04       		.byte	0x4
 4030 0502 6B000000 		.4byte	0x6b
 4031 0506 0B       		.uleb128 0xb
 4032 0507 08       		.byte	0x8
 4033 0508 05       		.byte	0x5
 4034 0509 B402     		.2byte	0x2b4
 4035 050b 44050000 		.4byte	0x544
 4036 050f 0C       		.uleb128 0xc
 4037 0510 0E1F0000 		.4byte	.LASF154
 4038 0514 05       		.byte	0x5
 4039 0515 B802     		.2byte	0x2b8
 4040 0517 6B000000 		.4byte	0x6b
 4041 051b 00       		.byte	0
 4042 051c 0C       		.uleb128 0xc
 4043 051d 46430000 		.4byte	.LASF155
 4044 0521 05       		.byte	0x5
 4045 0522 BE02     		.2byte	0x2be
 4046 0524 76000000 		.4byte	0x76
 4047 0528 02       		.byte	0x2
 4048 0529 0C       		.uleb128 0xc
 4049 052a 7D410000 		.4byte	.LASF156
 4050 052e 05       		.byte	0x5
 4051 052f C302     		.2byte	0x2c3
 4052 0531 76000000 		.4byte	0x76
 4053 0535 04       		.byte	0x4
 4054 0536 0C       		.uleb128 0xc
 4055 0537 E1440000 		.4byte	.LASF157
 4056 053b 05       		.byte	0x5
 4057 053c C902     		.2byte	0x2c9
 4058 053e 76000000 		.4byte	0x76
 4059 0542 06       		.byte	0x6
 4060 0543 00       		.byte	0
 4061 0544 0A       		.uleb128 0xa
 4062 0545 FA300000 		.4byte	.LASF158
 4063 0549 05       		.byte	0x5
 4064 054a CB02     		.2byte	0x2cb
ARM GAS  C:\Users\YBOURA~1\AppData\Local\Temp\cc3HigXd.s 			page 132


 4065 054c 06050000 		.4byte	0x506
 4066 0550 07       		.uleb128 0x7
 4067 0551 01       		.byte	0x1
 4068 0552 06       		.byte	0x6
 4069 0553 4E       		.byte	0x4e
 4070 0554 0A060000 		.4byte	0x60a
 4071 0558 08       		.uleb128 0x8
 4072 0559 CE170000 		.4byte	.LASF159
 4073 055d 01       		.sleb128 1
 4074 055e 08       		.uleb128 0x8
 4075 055f 95140000 		.4byte	.LASF160
 4076 0563 02       		.sleb128 2
 4077 0564 08       		.uleb128 0x8
 4078 0565 0A0B0000 		.4byte	.LASF161
 4079 0569 03       		.sleb128 3
 4080 056a 08       		.uleb128 0x8
 4081 056b D60F0000 		.4byte	.LASF162
 4082 056f 04       		.sleb128 4
 4083 0570 08       		.uleb128 0x8
 4084 0571 04300000 		.4byte	.LASF163
 4085 0575 05       		.sleb128 5
 4086 0576 08       		.uleb128 0x8
 4087 0577 0F2E0000 		.4byte	.LASF164
 4088 057b 06       		.sleb128 6
 4089 057c 08       		.uleb128 0x8
 4090 057d 970C0000 		.4byte	.LASF165
 4091 0581 07       		.sleb128 7
 4092 0582 08       		.uleb128 0x8
 4093 0583 282D0000 		.4byte	.LASF166
 4094 0587 08       		.sleb128 8
 4095 0588 08       		.uleb128 0x8
 4096 0589 CF070000 		.4byte	.LASF167
 4097 058d 09       		.sleb128 9
 4098 058e 08       		.uleb128 0x8
 4099 058f BF1E0000 		.4byte	.LASF168
 4100 0593 0A       		.sleb128 10
 4101 0594 08       		.uleb128 0x8
 4102 0595 2D3F0000 		.4byte	.LASF169
 4103 0599 0B       		.sleb128 11
 4104 059a 08       		.uleb128 0x8
 4105 059b 7E340000 		.4byte	.LASF170
 4106 059f 0C       		.sleb128 12
 4107 05a0 08       		.uleb128 0x8
 4108 05a1 C60E0000 		.4byte	.LASF171
 4109 05a5 0D       		.sleb128 13
 4110 05a6 08       		.uleb128 0x8
 4111 05a7 BA2C0000 		.4byte	.LASF172
 4112 05ab 0E       		.sleb128 14
 4113 05ac 08       		.uleb128 0x8
 4114 05ad C7060000 		.4byte	.LASF173
 4115 05b1 0F       		.sleb128 15
 4116 05b2 08       		.uleb128 0x8
 4117 05b3 F9430000 		.4byte	.LASF174
 4118 05b7 10       		.sleb128 16
 4119 05b8 08       		.uleb128 0x8
 4120 05b9 E71D0000 		.4byte	.LASF175
 4121 05bd 11       		.sleb128 17
ARM GAS  C:\Users\YBOURA~1\AppData\Local\Temp\cc3HigXd.s 			page 133


 4122 05be 08       		.uleb128 0x8
 4123 05bf B83A0000 		.4byte	.LASF176
 4124 05c3 12       		.sleb128 18
 4125 05c4 08       		.uleb128 0x8
 4126 05c5 BA130000 		.4byte	.LASF177
 4127 05c9 13       		.sleb128 19
 4128 05ca 08       		.uleb128 0x8
 4129 05cb 2D030000 		.4byte	.LASF178
 4130 05cf D200     		.sleb128 82
 4131 05d1 08       		.uleb128 0x8
 4132 05d2 5E050000 		.4byte	.LASF179
 4133 05d6 16       		.sleb128 22
 4134 05d7 08       		.uleb128 0x8
 4135 05d8 A82A0000 		.4byte	.LASF180
 4136 05dc 17       		.sleb128 23
 4137 05dd 08       		.uleb128 0x8
 4138 05de EF410000 		.4byte	.LASF181
 4139 05e2 18       		.sleb128 24
 4140 05e3 08       		.uleb128 0x8
 4141 05e4 951B0000 		.4byte	.LASF182
 4142 05e8 19       		.sleb128 25
 4143 05e9 08       		.uleb128 0x8
 4144 05ea C51F0000 		.4byte	.LASF183
 4145 05ee 1B       		.sleb128 27
 4146 05ef 08       		.uleb128 0x8
 4147 05f0 13110000 		.4byte	.LASF184
 4148 05f4 1D       		.sleb128 29
 4149 05f5 08       		.uleb128 0x8
 4150 05f6 2A010000 		.4byte	.LASF185
 4151 05fa 1E       		.sleb128 30
 4152 05fb 08       		.uleb128 0x8
 4153 05fc B91A0000 		.4byte	.LASF186
 4154 0600 D201     		.sleb128 210
 4155 0602 08       		.uleb128 0x8
 4156 0603 EB310000 		.4byte	.LASF187
 4157 0607 FF01     		.sleb128 255
 4158 0609 00       		.byte	0
 4159 060a 04       		.uleb128 0x4
 4160 060b FC0B0000 		.4byte	.LASF188
 4161 060f 06       		.byte	0x6
 4162 0610 A6       		.byte	0xa6
 4163 0611 50050000 		.4byte	0x550
 4164 0615 07       		.uleb128 0x7
 4165 0616 01       		.byte	0x1
 4166 0617 06       		.byte	0x6
 4167 0618 AA       		.byte	0xaa
 4168 0619 08070000 		.4byte	0x708
 4169 061d 08       		.uleb128 0x8
 4170 061e 7B320000 		.4byte	.LASF189
 4171 0622 00       		.sleb128 0
 4172 0623 08       		.uleb128 0x8
 4173 0624 6F310000 		.4byte	.LASF190
 4174 0628 01       		.sleb128 1
 4175 0629 08       		.uleb128 0x8
 4176 062a 17050000 		.4byte	.LASF191
 4177 062e 02       		.sleb128 2
 4178 062f 08       		.uleb128 0x8
ARM GAS  C:\Users\YBOURA~1\AppData\Local\Temp\cc3HigXd.s 			page 134


 4179 0630 10430000 		.4byte	.LASF192
 4180 0634 03       		.sleb128 3
 4181 0635 08       		.uleb128 0x8
 4182 0636 A40D0000 		.4byte	.LASF193
 4183 063a 04       		.sleb128 4
 4184 063b 08       		.uleb128 0x8
 4185 063c D2280000 		.4byte	.LASF194
 4186 0640 05       		.sleb128 5
 4187 0641 08       		.uleb128 0x8
 4188 0642 773B0000 		.4byte	.LASF195
 4189 0646 06       		.sleb128 6
 4190 0647 08       		.uleb128 0x8
 4191 0648 0A2D0000 		.4byte	.LASF196
 4192 064c 07       		.sleb128 7
 4193 064d 08       		.uleb128 0x8
 4194 064e 06280000 		.4byte	.LASF197
 4195 0652 08       		.sleb128 8
 4196 0653 08       		.uleb128 0x8
 4197 0654 39240000 		.4byte	.LASF198
 4198 0658 09       		.sleb128 9
 4199 0659 08       		.uleb128 0x8
 4200 065a EA2A0000 		.4byte	.LASF199
 4201 065e 0A       		.sleb128 10
 4202 065f 08       		.uleb128 0x8
 4203 0660 BF150000 		.4byte	.LASF200
 4204 0664 0B       		.sleb128 11
 4205 0665 08       		.uleb128 0x8
 4206 0666 31250000 		.4byte	.LASF201
 4207 066a 0C       		.sleb128 12
 4208 066b 08       		.uleb128 0x8
 4209 066c DF0E0000 		.4byte	.LASF202
 4210 0670 0D       		.sleb128 13
 4211 0671 08       		.uleb128 0x8
 4212 0672 54140000 		.4byte	.LASF203
 4213 0676 0E       		.sleb128 14
 4214 0677 08       		.uleb128 0x8
 4215 0678 62430000 		.4byte	.LASF204
 4216 067c 0F       		.sleb128 15
 4217 067d 08       		.uleb128 0x8
 4218 067e 7B050000 		.4byte	.LASF205
 4219 0682 10       		.sleb128 16
 4220 0683 08       		.uleb128 0x8
 4221 0684 39050000 		.4byte	.LASF206
 4222 0688 11       		.sleb128 17
 4223 0689 08       		.uleb128 0x8
 4224 068a 65150000 		.4byte	.LASF207
 4225 068e 8001     		.sleb128 128
 4226 0690 08       		.uleb128 0x8
 4227 0691 E11C0000 		.4byte	.LASF208
 4228 0695 8001     		.sleb128 128
 4229 0697 08       		.uleb128 0x8
 4230 0698 233B0000 		.4byte	.LASF209
 4231 069c 8001     		.sleb128 128
 4232 069e 08       		.uleb128 0x8
 4233 069f EA330000 		.4byte	.LASF210
 4234 06a3 8001     		.sleb128 128
 4235 06a5 08       		.uleb128 0x8
ARM GAS  C:\Users\YBOURA~1\AppData\Local\Temp\cc3HigXd.s 			page 135


 4236 06a6 E0290000 		.4byte	.LASF211
 4237 06aa 8001     		.sleb128 128
 4238 06ac 08       		.uleb128 0x8
 4239 06ad 4D1E0000 		.4byte	.LASF212
 4240 06b1 8001     		.sleb128 128
 4241 06b3 08       		.uleb128 0x8
 4242 06b4 39140000 		.4byte	.LASF213
 4243 06b8 8001     		.sleb128 128
 4244 06ba 08       		.uleb128 0x8
 4245 06bb 191B0000 		.4byte	.LASF214
 4246 06bf 8101     		.sleb128 129
 4247 06c1 08       		.uleb128 0x8
 4248 06c2 4D370000 		.4byte	.LASF215
 4249 06c6 8101     		.sleb128 129
 4250 06c8 08       		.uleb128 0x8
 4251 06c9 47000000 		.4byte	.LASF216
 4252 06cd 8101     		.sleb128 129
 4253 06cf 08       		.uleb128 0x8
 4254 06d0 BA3E0000 		.4byte	.LASF217
 4255 06d4 A001     		.sleb128 160
 4256 06d6 08       		.uleb128 0x8
 4257 06d7 63200000 		.4byte	.LASF218
 4258 06db A001     		.sleb128 160
 4259 06dd 08       		.uleb128 0x8
 4260 06de 4B0A0000 		.4byte	.LASF219
 4261 06e2 A101     		.sleb128 161
 4262 06e4 08       		.uleb128 0x8
 4263 06e5 C73D0000 		.4byte	.LASF220
 4264 06e9 A201     		.sleb128 162
 4265 06eb 08       		.uleb128 0x8
 4266 06ec 15170000 		.4byte	.LASF221
 4267 06f0 A301     		.sleb128 163
 4268 06f2 08       		.uleb128 0x8
 4269 06f3 46100000 		.4byte	.LASF222
 4270 06f7 FD01     		.sleb128 253
 4271 06f9 08       		.uleb128 0x8
 4272 06fa B0250000 		.4byte	.LASF223
 4273 06fe FE01     		.sleb128 254
 4274 0700 08       		.uleb128 0x8
 4275 0701 C22D0000 		.4byte	.LASF224
 4276 0705 FF01     		.sleb128 255
 4277 0707 00       		.byte	0
 4278 0708 0A       		.uleb128 0xa
 4279 0709 9F330000 		.4byte	.LASF225
 4280 070d 06       		.byte	0x6
 4281 070e 5901     		.2byte	0x159
 4282 0710 15060000 		.4byte	0x615
 4283 0714 0A       		.uleb128 0xa
 4284 0715 87210000 		.4byte	.LASF226
 4285 0719 06       		.byte	0x6
 4286 071a 6701     		.2byte	0x167
 4287 071c 76000000 		.4byte	0x76
 4288 0720 0B       		.uleb128 0xb
 4289 0721 10       		.byte	0x10
 4290 0722 06       		.byte	0x6
 4291 0723 6C01     		.2byte	0x16c
 4292 0725 37070000 		.4byte	0x737
ARM GAS  C:\Users\YBOURA~1\AppData\Local\Temp\cc3HigXd.s 			page 136


 4293 0729 0C       		.uleb128 0xc
 4294 072a 8F320000 		.4byte	.LASF227
 4295 072e 06       		.byte	0x6
 4296 072f 6E01     		.2byte	0x16e
 4297 0731 F0040000 		.4byte	0x4f0
 4298 0735 00       		.byte	0
 4299 0736 00       		.byte	0
 4300 0737 0A       		.uleb128 0xa
 4301 0738 2C200000 		.4byte	.LASF228
 4302 073c 06       		.byte	0x6
 4303 073d 6F01     		.2byte	0x16f
 4304 073f 20070000 		.4byte	0x720
 4305 0743 10       		.uleb128 0x10
 4306 0744 10       		.byte	0x10
 4307 0745 06       		.byte	0x6
 4308 0746 7401     		.2byte	0x174
 4309 0748 65070000 		.4byte	0x765
 4310 074c 11       		.uleb128 0x11
 4311 074d 16330000 		.4byte	.LASF229
 4312 0751 06       		.byte	0x6
 4313 0752 7701     		.2byte	0x177
 4314 0754 14070000 		.4byte	0x714
 4315 0758 11       		.uleb128 0x11
 4316 0759 752F0000 		.4byte	.LASF230
 4317 075d 06       		.byte	0x6
 4318 075e 7B01     		.2byte	0x17b
 4319 0760 37070000 		.4byte	0x737
 4320 0764 00       		.byte	0
 4321 0765 0A       		.uleb128 0xa
 4322 0766 DA460000 		.4byte	.LASF231
 4323 076a 06       		.byte	0x6
 4324 076b 7E01     		.2byte	0x17e
 4325 076d 43070000 		.4byte	0x743
 4326 0771 0A       		.uleb128 0xa
 4327 0772 30320000 		.4byte	.LASF232
 4328 0776 06       		.byte	0x6
 4329 0777 8801     		.2byte	0x188
 4330 0779 76000000 		.4byte	0x76
 4331 077d 0B       		.uleb128 0xb
 4332 077e 02       		.byte	0x2
 4333 077f 06       		.byte	0x6
 4334 0780 9201     		.2byte	0x192
 4335 0782 A1070000 		.4byte	0x7a1
 4336 0786 0C       		.uleb128 0xc
 4337 0787 BA090000 		.4byte	.LASF233
 4338 078b 06       		.byte	0x6
 4339 078c 9901     		.2byte	0x199
 4340 078e 6B000000 		.4byte	0x6b
 4341 0792 00       		.byte	0
 4342 0793 0C       		.uleb128 0xc
 4343 0794 8A440000 		.4byte	.LASF234
 4344 0798 06       		.byte	0x6
 4345 0799 9F01     		.2byte	0x19f
 4346 079b 6B000000 		.4byte	0x6b
 4347 079f 01       		.byte	0x1
 4348 07a0 00       		.byte	0
 4349 07a1 0A       		.uleb128 0xa
ARM GAS  C:\Users\YBOURA~1\AppData\Local\Temp\cc3HigXd.s 			page 137


 4350 07a2 B7080000 		.4byte	.LASF235
 4351 07a6 06       		.byte	0x6
 4352 07a7 A101     		.2byte	0x1a1
 4353 07a9 7D070000 		.4byte	0x77d
 4354 07ad 0B       		.uleb128 0xb
 4355 07ae 08       		.byte	0x8
 4356 07af 06       		.byte	0x6
 4357 07b0 BD01     		.2byte	0x1bd
 4358 07b2 DE070000 		.4byte	0x7de
 4359 07b6 12       		.uleb128 0x12
 4360 07b7 76616C00 		.ascii	"val\000"
 4361 07bb 06       		.byte	0x6
 4362 07bc C001     		.2byte	0x1c0
 4363 07be 00050000 		.4byte	0x500
 4364 07c2 00       		.byte	0
 4365 07c3 12       		.uleb128 0x12
 4366 07c4 6C656E00 		.ascii	"len\000"
 4367 07c8 06       		.byte	0x6
 4368 07c9 C301     		.2byte	0x1c3
 4369 07cb 76000000 		.4byte	0x76
 4370 07cf 04       		.byte	0x4
 4371 07d0 0C       		.uleb128 0xc
 4372 07d1 E4430000 		.4byte	.LASF236
 4373 07d5 06       		.byte	0x6
 4374 07d6 CA01     		.2byte	0x1ca
 4375 07d8 76000000 		.4byte	0x76
 4376 07dc 06       		.byte	0x6
 4377 07dd 00       		.byte	0
 4378 07de 0A       		.uleb128 0xa
 4379 07df 91060000 		.4byte	.LASF237
 4380 07e3 06       		.byte	0x6
 4381 07e4 CC01     		.2byte	0x1cc
 4382 07e6 AD070000 		.4byte	0x7ad
 4383 07ea 0B       		.uleb128 0xb
 4384 07eb 0C       		.byte	0xc
 4385 07ec 06       		.byte	0x6
 4386 07ed CF01     		.2byte	0x1cf
 4387 07ef 0E080000 		.4byte	0x80e
 4388 07f3 0C       		.uleb128 0xc
 4389 07f4 8F320000 		.4byte	.LASF227
 4390 07f8 06       		.byte	0x6
 4391 07f9 D201     		.2byte	0x1d2
 4392 07fb DE070000 		.4byte	0x7de
 4393 07ff 00       		.byte	0
 4394 0800 0C       		.uleb128 0xc
 4395 0801 30280000 		.4byte	.LASF238
 4396 0805 06       		.byte	0x6
 4397 0806 D501     		.2byte	0x1d5
 4398 0808 71070000 		.4byte	0x771
 4399 080c 08       		.byte	0x8
 4400 080d 00       		.byte	0
 4401 080e 0A       		.uleb128 0xa
 4402 080f 330E0000 		.4byte	.LASF239
 4403 0813 06       		.byte	0x6
 4404 0814 D701     		.2byte	0x1d7
 4405 0816 EA070000 		.4byte	0x7ea
 4406 081a 0B       		.uleb128 0xb
ARM GAS  C:\Users\YBOURA~1\AppData\Local\Temp\cc3HigXd.s 			page 138


 4407 081b 04       		.byte	0x4
 4408 081c 06       		.byte	0x6
 4409 081d DA01     		.2byte	0x1da
 4410 081f 3E080000 		.4byte	0x83e
 4411 0823 0C       		.uleb128 0xc
 4412 0824 D51C0000 		.4byte	.LASF240
 4413 0828 06       		.byte	0x6
 4414 0829 DD01     		.2byte	0x1dd
 4415 082b 71070000 		.4byte	0x771
 4416 082f 00       		.byte	0
 4417 0830 0C       		.uleb128 0xc
 4418 0831 6B3E0000 		.4byte	.LASF241
 4419 0835 06       		.byte	0x6
 4420 0836 E001     		.2byte	0x1e0
 4421 0838 71070000 		.4byte	0x771
 4422 083c 02       		.byte	0x2
 4423 083d 00       		.byte	0
 4424 083e 0A       		.uleb128 0xa
 4425 083f D73B0000 		.4byte	.LASF242
 4426 0843 06       		.byte	0x6
 4427 0844 E201     		.2byte	0x1e2
 4428 0846 1A080000 		.4byte	0x81a
 4429 084a 0B       		.uleb128 0xb
 4430 084b 04       		.byte	0x4
 4431 084c 06       		.byte	0x6
 4432 084d E501     		.2byte	0x1e5
 4433 084f 6E080000 		.4byte	0x86e
 4434 0853 0C       		.uleb128 0xc
 4435 0854 7E350000 		.4byte	.LASF243
 4436 0858 06       		.byte	0x6
 4437 0859 E801     		.2byte	0x1e8
 4438 085b A1070000 		.4byte	0x7a1
 4439 085f 00       		.byte	0
 4440 0860 12       		.uleb128 0x12
 4441 0861 6D747500 		.ascii	"mtu\000"
 4442 0865 06       		.byte	0x6
 4443 0866 EB01     		.2byte	0x1eb
 4444 0868 76000000 		.4byte	0x76
 4445 086c 02       		.byte	0x2
 4446 086d 00       		.byte	0
 4447 086e 0A       		.uleb128 0xa
 4448 086f 22290000 		.4byte	.LASF244
 4449 0873 06       		.byte	0x6
 4450 0874 ED01     		.2byte	0x1ed
 4451 0876 4A080000 		.4byte	0x84a
 4452 087a 13       		.uleb128 0x13
 4453 087b 04       		.byte	0x4
 4454 087c 07       		.byte	0x7
 4455 087d 3A       		.byte	0x3a
 4456 087e A7080000 		.4byte	0x8a7
 4457 0882 14       		.uleb128 0x14
 4458 0883 30280000 		.4byte	.LASF238
 4459 0887 07       		.byte	0x7
 4460 0888 3D       		.byte	0x3d
 4461 0889 71070000 		.4byte	0x771
 4462 088d 00       		.byte	0
 4463 088e 14       		.uleb128 0x14
ARM GAS  C:\Users\YBOURA~1\AppData\Local\Temp\cc3HigXd.s 			page 139


 4464 088f FF270000 		.4byte	.LASF245
 4465 0893 07       		.byte	0x7
 4466 0894 43       		.byte	0x43
 4467 0895 6B000000 		.4byte	0x6b
 4468 0899 02       		.byte	0x2
 4469 089a 14       		.uleb128 0x14
 4470 089b 77120000 		.4byte	.LASF246
 4471 089f 07       		.byte	0x7
 4472 08a0 46       		.byte	0x46
 4473 08a1 08070000 		.4byte	0x708
 4474 08a5 03       		.byte	0x3
 4475 08a6 00       		.byte	0
 4476 08a7 04       		.uleb128 0x4
 4477 08a8 AB100000 		.4byte	.LASF247
 4478 08ac 07       		.byte	0x7
 4479 08ad 48       		.byte	0x48
 4480 08ae 7A080000 		.4byte	0x87a
 4481 08b2 13       		.uleb128 0x13
 4482 08b3 10       		.byte	0x10
 4483 08b4 07       		.byte	0x7
 4484 08b5 8A       		.byte	0x8a
 4485 08b6 D3080000 		.4byte	0x8d3
 4486 08ba 14       		.uleb128 0x14
 4487 08bb 7E350000 		.4byte	.LASF243
 4488 08bf 07       		.byte	0x7
 4489 08c0 8D       		.byte	0x8d
 4490 08c1 A1070000 		.4byte	0x7a1
 4491 08c5 00       		.byte	0
 4492 08c6 14       		.uleb128 0x14
 4493 08c7 4A350000 		.4byte	.LASF248
 4494 08cb 07       		.byte	0x7
 4495 08cc 90       		.byte	0x90
 4496 08cd 0E080000 		.4byte	0x80e
 4497 08d1 04       		.byte	0x4
 4498 08d2 00       		.byte	0
 4499 08d3 04       		.uleb128 0x4
 4500 08d4 88280000 		.4byte	.LASF249
 4501 08d8 07       		.byte	0x7
 4502 08d9 92       		.byte	0x92
 4503 08da B2080000 		.4byte	0x8b2
 4504 08de 13       		.uleb128 0x13
 4505 08df 08       		.byte	0x8
 4506 08e0 08       		.byte	0x8
 4507 08e1 2D       		.byte	0x2d
 4508 08e2 17090000 		.4byte	0x917
 4509 08e6 14       		.uleb128 0x14
 4510 08e7 7E350000 		.4byte	.LASF243
 4511 08eb 08       		.byte	0x8
 4512 08ec 30       		.byte	0x30
 4513 08ed A1070000 		.4byte	0x7a1
 4514 08f1 00       		.byte	0
 4515 08f2 14       		.uleb128 0x14
 4516 08f3 A9250000 		.4byte	.LASF250
 4517 08f7 08       		.byte	0x8
 4518 08f8 33       		.byte	0x33
 4519 08f9 0A060000 		.4byte	0x60a
 4520 08fd 02       		.byte	0x2
ARM GAS  C:\Users\YBOURA~1\AppData\Local\Temp\cc3HigXd.s 			page 140


 4521 08fe 14       		.uleb128 0x14
 4522 08ff 30280000 		.4byte	.LASF238
 4523 0903 08       		.byte	0x8
 4524 0904 36       		.byte	0x36
 4525 0905 71070000 		.4byte	0x771
 4526 0909 04       		.byte	0x4
 4527 090a 14       		.uleb128 0x14
 4528 090b 77120000 		.4byte	.LASF246
 4529 090f 08       		.byte	0x8
 4530 0910 39       		.byte	0x39
 4531 0911 08070000 		.4byte	0x708
 4532 0915 06       		.byte	0x6
 4533 0916 00       		.byte	0
 4534 0917 04       		.uleb128 0x4
 4535 0918 83330000 		.4byte	.LASF251
 4536 091c 08       		.byte	0x8
 4537 091d 3B       		.byte	0x3b
 4538 091e DE080000 		.4byte	0x8de
 4539 0922 04       		.uleb128 0x4
 4540 0923 7C400000 		.4byte	.LASF252
 4541 0927 08       		.byte	0x8
 4542 0928 4F       		.byte	0x4f
 4543 0929 3E080000 		.4byte	0x83e
 4544 092d 13       		.uleb128 0x13
 4545 092e 0C       		.byte	0xc
 4546 092f 08       		.byte	0x8
 4547 0930 7D       		.byte	0x7d
 4548 0931 4E090000 		.4byte	0x94e
 4549 0935 14       		.uleb128 0x14
 4550 0936 7E350000 		.4byte	.LASF243
 4551 093a 08       		.byte	0x8
 4552 093b 80       		.byte	0x80
 4553 093c A1070000 		.4byte	0x7a1
 4554 0940 00       		.byte	0
 4555 0941 14       		.uleb128 0x14
 4556 0942 8F320000 		.4byte	.LASF227
 4557 0946 08       		.byte	0x8
 4558 0947 83       		.byte	0x83
 4559 0948 DE070000 		.4byte	0x7de
 4560 094c 04       		.byte	0x4
 4561 094d 00       		.byte	0
 4562 094e 04       		.uleb128 0x4
 4563 094f 193C0000 		.4byte	.LASF253
 4564 0953 08       		.byte	0x8
 4565 0954 85       		.byte	0x85
 4566 0955 2D090000 		.4byte	0x92d
 4567 0959 13       		.uleb128 0x13
 4568 095a 10       		.byte	0x10
 4569 095b 08       		.byte	0x8
 4570 095c 88       		.byte	0x88
 4571 095d 7A090000 		.4byte	0x97a
 4572 0961 14       		.uleb128 0x14
 4573 0962 7E350000 		.4byte	.LASF243
 4574 0966 08       		.byte	0x8
 4575 0967 8B       		.byte	0x8b
 4576 0968 A1070000 		.4byte	0x7a1
 4577 096c 00       		.byte	0
ARM GAS  C:\Users\YBOURA~1\AppData\Local\Temp\cc3HigXd.s 			page 141


 4578 096d 14       		.uleb128 0x14
 4579 096e 4A350000 		.4byte	.LASF248
 4580 0972 08       		.byte	0x8
 4581 0973 8E       		.byte	0x8e
 4582 0974 0E080000 		.4byte	0x80e
 4583 0978 04       		.byte	0x4
 4584 0979 00       		.byte	0
 4585 097a 04       		.uleb128 0x4
 4586 097b 32080000 		.4byte	.LASF254
 4587 097f 08       		.byte	0x8
 4588 0980 90       		.byte	0x90
 4589 0981 59090000 		.4byte	0x959
 4590 0985 04       		.uleb128 0x4
 4591 0986 D5320000 		.4byte	.LASF255
 4592 098a 08       		.byte	0x8
 4593 098b 93       		.byte	0x93
 4594 098c 7A090000 		.4byte	0x97a
 4595 0990 13       		.uleb128 0x13
 4596 0991 08       		.byte	0x8
 4597 0992 08       		.byte	0x8
 4598 0993 96       		.byte	0x96
 4599 0994 BD090000 		.4byte	0x9bd
 4600 0998 14       		.uleb128 0x14
 4601 0999 2B1A0000 		.4byte	.LASF256
 4602 099d 08       		.byte	0x8
 4603 099e 99       		.byte	0x99
 4604 099f 00050000 		.4byte	0x500
 4605 09a3 00       		.byte	0
 4606 09a4 14       		.uleb128 0x14
 4607 09a5 C2310000 		.4byte	.LASF257
 4608 09a9 08       		.byte	0x8
 4609 09aa 9C       		.byte	0x9c
 4610 09ab 76000000 		.4byte	0x76
 4611 09af 04       		.byte	0x4
 4612 09b0 14       		.uleb128 0x14
 4613 09b1 49420000 		.4byte	.LASF258
 4614 09b5 08       		.byte	0x8
 4615 09b6 9F       		.byte	0x9f
 4616 09b7 76000000 		.4byte	0x76
 4617 09bb 06       		.byte	0x6
 4618 09bc 00       		.byte	0
 4619 09bd 04       		.uleb128 0x4
 4620 09be 2D020000 		.4byte	.LASF259
 4621 09c2 08       		.byte	0x8
 4622 09c3 A0       		.byte	0xa0
 4623 09c4 90090000 		.4byte	0x990
 4624 09c8 13       		.uleb128 0x13
 4625 09c9 0C       		.byte	0xc
 4626 09ca 08       		.byte	0x8
 4627 09cb A4       		.byte	0xa4
 4628 09cc E9090000 		.4byte	0x9e9
 4629 09d0 14       		.uleb128 0x14
 4630 09d1 7E350000 		.4byte	.LASF243
 4631 09d5 08       		.byte	0x8
 4632 09d6 A7       		.byte	0xa7
 4633 09d7 A1070000 		.4byte	0x7a1
 4634 09db 00       		.byte	0
ARM GAS  C:\Users\YBOURA~1\AppData\Local\Temp\cc3HigXd.s 			page 142


 4635 09dc 14       		.uleb128 0x14
 4636 09dd 05220000 		.4byte	.LASF260
 4637 09e1 08       		.byte	0x8
 4638 09e2 AA       		.byte	0xaa
 4639 09e3 BD090000 		.4byte	0x9bd
 4640 09e7 04       		.byte	0x4
 4641 09e8 00       		.byte	0
 4642 09e9 04       		.uleb128 0x4
 4643 09ea C31D0000 		.4byte	.LASF261
 4644 09ee 08       		.byte	0x8
 4645 09ef AC       		.byte	0xac
 4646 09f0 C8090000 		.4byte	0x9c8
 4647 09f4 04       		.uleb128 0x4
 4648 09f5 72380000 		.4byte	.LASF262
 4649 09f9 08       		.byte	0x8
 4650 09fa AF       		.byte	0xaf
 4651 09fb E9090000 		.4byte	0x9e9
 4652 09ff 13       		.uleb128 0x13
 4653 0a00 08       		.byte	0x8
 4654 0a01 08       		.byte	0x8
 4655 0a02 C0       		.byte	0xc0
 4656 0a03 200A0000 		.4byte	0xa20
 4657 0a07 14       		.uleb128 0x14
 4658 0a08 412B0000 		.4byte	.LASF263
 4659 0a0c 08       		.byte	0x8
 4660 0a0d C4       		.byte	0xc4
 4661 0a0e 00050000 		.4byte	0x500
 4662 0a12 00       		.byte	0
 4663 0a13 14       		.uleb128 0x14
 4664 0a14 0F1D0000 		.4byte	.LASF264
 4665 0a18 08       		.byte	0x8
 4666 0a19 C7       		.byte	0xc7
 4667 0a1a 76000000 		.4byte	0x76
 4668 0a1e 04       		.byte	0x4
 4669 0a1f 00       		.byte	0
 4670 0a20 04       		.uleb128 0x4
 4671 0a21 9A110000 		.4byte	.LASF265
 4672 0a25 08       		.byte	0x8
 4673 0a26 C9       		.byte	0xc9
 4674 0a27 FF090000 		.4byte	0x9ff
 4675 0a2b 13       		.uleb128 0x13
 4676 0a2c 10       		.byte	0x10
 4677 0a2d 08       		.byte	0x8
 4678 0a2e CC       		.byte	0xcc
 4679 0a2f 580A0000 		.4byte	0xa58
 4680 0a33 14       		.uleb128 0x14
 4681 0a34 7E350000 		.4byte	.LASF243
 4682 0a38 08       		.byte	0x8
 4683 0a39 CF       		.byte	0xcf
 4684 0a3a A1070000 		.4byte	0x7a1
 4685 0a3e 00       		.byte	0
 4686 0a3f 14       		.uleb128 0x14
 4687 0a40 06320000 		.4byte	.LASF266
 4688 0a44 08       		.byte	0x8
 4689 0a45 D2       		.byte	0xd2
 4690 0a46 200A0000 		.4byte	0xa20
 4691 0a4a 04       		.byte	0x4
ARM GAS  C:\Users\YBOURA~1\AppData\Local\Temp\cc3HigXd.s 			page 143


 4692 0a4b 14       		.uleb128 0x14
 4693 0a4c BC120000 		.4byte	.LASF267
 4694 0a50 08       		.byte	0x8
 4695 0a51 D5       		.byte	0xd5
 4696 0a52 6B000000 		.4byte	0x6b
 4697 0a56 0C       		.byte	0xc
 4698 0a57 00       		.byte	0
 4699 0a58 04       		.uleb128 0x4
 4700 0a59 612E0000 		.4byte	.LASF268
 4701 0a5d 08       		.byte	0x8
 4702 0a5e D7       		.byte	0xd7
 4703 0a5f 2B0A0000 		.4byte	0xa2b
 4704 0a63 0A       		.uleb128 0xa
 4705 0a64 EB070000 		.4byte	.LASF269
 4706 0a68 09       		.byte	0x9
 4707 0a69 3C01     		.2byte	0x13c
 4708 0a6b 6F0A0000 		.4byte	0xa6f
 4709 0a6f 0F       		.uleb128 0xf
 4710 0a70 04       		.byte	0x4
 4711 0a71 750A0000 		.4byte	0xa75
 4712 0a75 15       		.uleb128 0x15
 4713 0a76 850A0000 		.4byte	0xa85
 4714 0a7a 16       		.uleb128 0x16
 4715 0a7b 81000000 		.4byte	0x81
 4716 0a7f 16       		.uleb128 0x16
 4717 0a80 AD000000 		.4byte	0xad
 4718 0a84 00       		.byte	0
 4719 0a85 13       		.uleb128 0x13
 4720 0a86 06       		.byte	0x6
 4721 0a87 0A       		.byte	0xa
 4722 0a88 50       		.byte	0x50
 4723 0a89 A60A0000 		.4byte	0xaa6
 4724 0a8d 14       		.uleb128 0x14
 4725 0a8e 1D3B0000 		.4byte	.LASF270
 4726 0a92 0A       		.byte	0xa
 4727 0a93 52       		.byte	0x52
 4728 0a94 3E080000 		.4byte	0x83e
 4729 0a98 00       		.byte	0
 4730 0a99 14       		.uleb128 0x14
 4731 0a9a 83280000 		.4byte	.LASF271
 4732 0a9e 0A       		.byte	0xa
 4733 0a9f 53       		.byte	0x53
 4734 0aa0 76000000 		.4byte	0x76
 4735 0aa4 04       		.byte	0x4
 4736 0aa5 00       		.byte	0
 4737 0aa6 04       		.uleb128 0x4
 4738 0aa7 C9290000 		.4byte	.LASF272
 4739 0aab 0A       		.byte	0xa
 4740 0aac 54       		.byte	0x54
 4741 0aad 850A0000 		.4byte	0xa85
 4742 0ab1 13       		.uleb128 0x13
 4743 0ab2 14       		.byte	0x14
 4744 0ab3 0A       		.byte	0xa
 4745 0ab4 57       		.byte	0x57
 4746 0ab5 D20A0000 		.4byte	0xad2
 4747 0ab9 14       		.uleb128 0x14
 4748 0aba 1D3B0000 		.4byte	.LASF270
ARM GAS  C:\Users\YBOURA~1\AppData\Local\Temp\cc3HigXd.s 			page 144


 4749 0abe 0A       		.byte	0xa
 4750 0abf 59       		.byte	0x59
 4751 0ac0 3E080000 		.4byte	0x83e
 4752 0ac4 00       		.byte	0
 4753 0ac5 14       		.uleb128 0x14
 4754 0ac6 83280000 		.4byte	.LASF271
 4755 0aca 0A       		.byte	0xa
 4756 0acb 5A       		.byte	0x5a
 4757 0acc 65070000 		.4byte	0x765
 4758 0ad0 04       		.byte	0x4
 4759 0ad1 00       		.byte	0
 4760 0ad2 04       		.uleb128 0x4
 4761 0ad3 C3090000 		.4byte	.LASF273
 4762 0ad7 0A       		.byte	0xa
 4763 0ad8 5B       		.byte	0x5b
 4764 0ad9 B10A0000 		.4byte	0xab1
 4765 0add 13       		.uleb128 0x13
 4766 0ade 18       		.byte	0x18
 4767 0adf 0A       		.byte	0xa
 4768 0ae0 5E       		.byte	0x5e
 4769 0ae1 160B0000 		.4byte	0xb16
 4770 0ae5 14       		.uleb128 0x14
 4771 0ae6 9B160000 		.4byte	.LASF274
 4772 0aea 0A       		.byte	0xa
 4773 0aeb 60       		.byte	0x60
 4774 0aec 71070000 		.4byte	0x771
 4775 0af0 00       		.byte	0
 4776 0af1 14       		.uleb128 0x14
 4777 0af2 9A170000 		.4byte	.LASF275
 4778 0af6 0A       		.byte	0xa
 4779 0af7 61       		.byte	0x61
 4780 0af8 3E080000 		.4byte	0x83e
 4781 0afc 02       		.byte	0x2
 4782 0afd 14       		.uleb128 0x14
 4783 0afe 83280000 		.4byte	.LASF271
 4784 0b02 0A       		.byte	0xa
 4785 0b03 62       		.byte	0x62
 4786 0b04 65070000 		.4byte	0x765
 4787 0b08 06       		.byte	0x6
 4788 0b09 14       		.uleb128 0x14
 4789 0b0a BC120000 		.4byte	.LASF267
 4790 0b0e 0A       		.byte	0xa
 4791 0b0f 63       		.byte	0x63
 4792 0b10 6B000000 		.4byte	0x6b
 4793 0b14 16       		.byte	0x16
 4794 0b15 00       		.byte	0
 4795 0b16 04       		.uleb128 0x4
 4796 0b17 A61C0000 		.4byte	.LASF276
 4797 0b1b 0A       		.byte	0xa
 4798 0b1c 64       		.byte	0x64
 4799 0b1d DD0A0000 		.4byte	0xadd
 4800 0b21 13       		.uleb128 0x13
 4801 0b22 18       		.byte	0x18
 4802 0b23 0A       		.byte	0xa
 4803 0b24 67       		.byte	0x67
 4804 0b25 660B0000 		.4byte	0xb66
 4805 0b29 14       		.uleb128 0x14
ARM GAS  C:\Users\YBOURA~1\AppData\Local\Temp\cc3HigXd.s 			page 145


 4806 0b2a C9310000 		.4byte	.LASF277
 4807 0b2e 0A       		.byte	0xa
 4808 0b2f 69       		.byte	0x69
 4809 0b30 71070000 		.4byte	0x771
 4810 0b34 00       		.byte	0
 4811 0b35 14       		.uleb128 0x14
 4812 0b36 A3350000 		.4byte	.LASF278
 4813 0b3a 0A       		.byte	0xa
 4814 0b3b 6A       		.byte	0x6a
 4815 0b3c 6B000000 		.4byte	0x6b
 4816 0b40 02       		.byte	0x2
 4817 0b41 14       		.uleb128 0x14
 4818 0b42 26470000 		.4byte	.LASF279
 4819 0b46 0A       		.byte	0xa
 4820 0b47 6B       		.byte	0x6b
 4821 0b48 71070000 		.4byte	0x771
 4822 0b4c 04       		.byte	0x4
 4823 0b4d 14       		.uleb128 0x14
 4824 0b4e 83280000 		.4byte	.LASF271
 4825 0b52 0A       		.byte	0xa
 4826 0b53 6C       		.byte	0x6c
 4827 0b54 65070000 		.4byte	0x765
 4828 0b58 06       		.byte	0x6
 4829 0b59 14       		.uleb128 0x14
 4830 0b5a BC120000 		.4byte	.LASF267
 4831 0b5e 0A       		.byte	0xa
 4832 0b5f 6D       		.byte	0x6d
 4833 0b60 6B000000 		.4byte	0x6b
 4834 0b64 16       		.byte	0x16
 4835 0b65 00       		.byte	0
 4836 0b66 04       		.uleb128 0x4
 4837 0b67 F82D0000 		.4byte	.LASF280
 4838 0b6b 0A       		.byte	0xa
 4839 0b6c 6E       		.byte	0x6e
 4840 0b6d 210B0000 		.4byte	0xb21
 4841 0b71 13       		.uleb128 0x13
 4842 0b72 04       		.byte	0x4
 4843 0b73 0A       		.byte	0xa
 4844 0b74 71       		.byte	0x71
 4845 0b75 920B0000 		.4byte	0xb92
 4846 0b79 14       		.uleb128 0x14
 4847 0b7a A3350000 		.4byte	.LASF278
 4848 0b7e 0A       		.byte	0xa
 4849 0b7f 74       		.byte	0x74
 4850 0b80 6B000000 		.4byte	0x6b
 4851 0b84 00       		.byte	0
 4852 0b85 14       		.uleb128 0x14
 4853 0b86 26470000 		.4byte	.LASF279
 4854 0b8a 0A       		.byte	0xa
 4855 0b8b 77       		.byte	0x77
 4856 0b8c 71070000 		.4byte	0x771
 4857 0b90 02       		.byte	0x2
 4858 0b91 00       		.byte	0
 4859 0b92 04       		.uleb128 0x4
 4860 0b93 AE1F0000 		.4byte	.LASF281
 4861 0b97 0A       		.byte	0xa
 4862 0b98 78       		.byte	0x78
ARM GAS  C:\Users\YBOURA~1\AppData\Local\Temp\cc3HigXd.s 			page 146


 4863 0b99 710B0000 		.4byte	0xb71
 4864 0b9d 13       		.uleb128 0x13
 4865 0b9e 16       		.byte	0x16
 4866 0b9f 0A       		.byte	0xa
 4867 0ba0 7B       		.byte	0x7b
 4868 0ba1 D60B0000 		.4byte	0xbd6
 4869 0ba5 14       		.uleb128 0x14
 4870 0ba6 7E350000 		.4byte	.LASF243
 4871 0baa 0A       		.byte	0xa
 4872 0bab 7D       		.byte	0x7d
 4873 0bac A1070000 		.4byte	0x7a1
 4874 0bb0 00       		.byte	0
 4875 0bb1 14       		.uleb128 0x14
 4876 0bb2 AE090000 		.4byte	.LASF282
 4877 0bb6 0A       		.byte	0xa
 4878 0bb7 7E       		.byte	0x7e
 4879 0bb8 71070000 		.4byte	0x771
 4880 0bbc 02       		.byte	0x2
 4881 0bbd 14       		.uleb128 0x14
 4882 0bbe 83280000 		.4byte	.LASF271
 4883 0bc2 0A       		.byte	0xa
 4884 0bc3 7F       		.byte	0x7f
 4885 0bc4 65070000 		.4byte	0x765
 4886 0bc8 04       		.byte	0x4
 4887 0bc9 14       		.uleb128 0x14
 4888 0bca BC120000 		.4byte	.LASF267
 4889 0bce 0A       		.byte	0xa
 4890 0bcf 80       		.byte	0x80
 4891 0bd0 6B000000 		.4byte	0x6b
 4892 0bd4 14       		.byte	0x14
 4893 0bd5 00       		.byte	0
 4894 0bd6 04       		.uleb128 0x4
 4895 0bd7 BD1C0000 		.4byte	.LASF283
 4896 0bdb 0A       		.byte	0xa
 4897 0bdc 81       		.byte	0x81
 4898 0bdd 9D0B0000 		.4byte	0xb9d
 4899 0be1 13       		.uleb128 0x13
 4900 0be2 06       		.byte	0x6
 4901 0be3 0A       		.byte	0xa
 4902 0be4 93       		.byte	0x93
 4903 0be5 020C0000 		.4byte	0xc02
 4904 0be9 14       		.uleb128 0x14
 4905 0bea 1E030000 		.4byte	.LASF284
 4906 0bee 0A       		.byte	0xa
 4907 0bef 95       		.byte	0x95
 4908 0bf0 920B0000 		.4byte	0xb92
 4909 0bf4 00       		.byte	0
 4910 0bf5 14       		.uleb128 0x14
 4911 0bf6 EE430000 		.4byte	.LASF285
 4912 0bfa 0A       		.byte	0xa
 4913 0bfb 96       		.byte	0x96
 4914 0bfc 71070000 		.4byte	0x771
 4915 0c00 04       		.byte	0x4
 4916 0c01 00       		.byte	0
 4917 0c02 04       		.uleb128 0x4
 4918 0c03 4E120000 		.4byte	.LASF286
 4919 0c07 0A       		.byte	0xa
ARM GAS  C:\Users\YBOURA~1\AppData\Local\Temp\cc3HigXd.s 			page 147


 4920 0c08 97       		.byte	0x97
 4921 0c09 E10B0000 		.4byte	0xbe1
 4922 0c0d 17       		.uleb128 0x17
 4923 0c0e 7901     		.2byte	0x179
 4924 0c10 0A       		.byte	0xa
 4925 0c11 9C       		.byte	0x9c
 4926 0c12 4A0C0000 		.4byte	0xc4a
 4927 0c16 14       		.uleb128 0x14
 4928 0c17 7A1C0000 		.4byte	.LASF287
 4929 0c1b 0A       		.byte	0xa
 4930 0c1c 9E       		.byte	0x9e
 4931 0c1d 4A0C0000 		.4byte	0xc4a
 4932 0c21 00       		.byte	0
 4933 0c22 18       		.uleb128 0x18
 4934 0c23 121A0000 		.4byte	.LASF288
 4935 0c27 0A       		.byte	0xa
 4936 0c28 9F       		.byte	0x9f
 4937 0c29 5B0C0000 		.4byte	0xc5b
 4938 0c2d 6D01     		.2byte	0x16d
 4939 0c2f 18       		.uleb128 0x18
 4940 0c30 BD3D0000 		.4byte	.LASF289
 4941 0c34 0A       		.byte	0xa
 4942 0c35 A0       		.byte	0xa0
 4943 0c36 6B000000 		.4byte	0x6b
 4944 0c3a 7701     		.2byte	0x177
 4945 0c3c 18       		.uleb128 0x18
 4946 0c3d AC180000 		.4byte	.LASF290
 4947 0c41 0A       		.byte	0xa
 4948 0c42 A1       		.byte	0xa1
 4949 0c43 6B000000 		.4byte	0x6b
 4950 0c47 7801     		.2byte	0x178
 4951 0c49 00       		.byte	0
 4952 0c4a 0D       		.uleb128 0xd
 4953 0c4b 6B000000 		.4byte	0x6b
 4954 0c4f 5B0C0000 		.4byte	0xc5b
 4955 0c53 19       		.uleb128 0x19
 4956 0c54 A6000000 		.4byte	0xa6
 4957 0c58 6C01     		.2byte	0x16c
 4958 0c5a 00       		.byte	0
 4959 0c5b 0D       		.uleb128 0xd
 4960 0c5c 6B000000 		.4byte	0x6b
 4961 0c60 710C0000 		.4byte	0xc71
 4962 0c64 0E       		.uleb128 0xe
 4963 0c65 A6000000 		.4byte	0xa6
 4964 0c69 04       		.byte	0x4
 4965 0c6a 0E       		.uleb128 0xe
 4966 0c6b A6000000 		.4byte	0xa6
 4967 0c6f 01       		.byte	0x1
 4968 0c70 00       		.byte	0
 4969 0c71 04       		.uleb128 0x4
 4970 0c72 A6220000 		.4byte	.LASF291
 4971 0c76 0A       		.byte	0xa
 4972 0c77 A2       		.byte	0xa2
 4973 0c78 0D0C0000 		.4byte	0xc0d
 4974 0c7c 07       		.uleb128 0x7
 4975 0c7d 02       		.byte	0x2
 4976 0c7e 0B       		.byte	0xb
ARM GAS  C:\Users\YBOURA~1\AppData\Local\Temp\cc3HigXd.s 			page 148


 4977 0c7f 9D       		.byte	0x9d
 4978 0c80 71130000 		.4byte	0x1371
 4979 0c84 08       		.uleb128 0x8
 4980 0c85 462A0000 		.4byte	.LASF292
 4981 0c89 8002     		.sleb128 256
 4982 0c8b 08       		.uleb128 0x8
 4983 0c8c 4B450000 		.4byte	.LASF293
 4984 0c90 8102     		.sleb128 257
 4985 0c92 08       		.uleb128 0x8
 4986 0c93 C2430000 		.4byte	.LASF294
 4987 0c97 8202     		.sleb128 258
 4988 0c99 08       		.uleb128 0x8
 4989 0c9a 01450000 		.4byte	.LASF295
 4990 0c9e 8302     		.sleb128 259
 4991 0ca0 08       		.uleb128 0x8
 4992 0ca1 35310000 		.4byte	.LASF296
 4993 0ca5 8402     		.sleb128 260
 4994 0ca7 08       		.uleb128 0x8
 4995 0ca8 F93A0000 		.4byte	.LASF297
 4996 0cac 8502     		.sleb128 261
 4997 0cae 08       		.uleb128 0x8
 4998 0caf 5C120000 		.4byte	.LASF298
 4999 0cb3 8602     		.sleb128 262
 5000 0cb5 08       		.uleb128 0x8
 5001 0cb6 793C0000 		.4byte	.LASF299
 5002 0cba 8702     		.sleb128 263
 5003 0cbc 08       		.uleb128 0x8
 5004 0cbd EA420000 		.4byte	.LASF300
 5005 0cc1 8802     		.sleb128 264
 5006 0cc3 08       		.uleb128 0x8
 5007 0cc4 24060000 		.4byte	.LASF301
 5008 0cc8 8902     		.sleb128 265
 5009 0cca 08       		.uleb128 0x8
 5010 0ccb 49030000 		.4byte	.LASF302
 5011 0ccf 8A02     		.sleb128 266
 5012 0cd1 08       		.uleb128 0x8
 5013 0cd2 0A340000 		.4byte	.LASF303
 5014 0cd6 8B02     		.sleb128 267
 5015 0cd8 08       		.uleb128 0x8
 5016 0cd9 CE230000 		.4byte	.LASF304
 5017 0cdd 8C02     		.sleb128 268
 5018 0cdf 08       		.uleb128 0x8
 5019 0ce0 A02F0000 		.4byte	.LASF305
 5020 0ce4 8D02     		.sleb128 269
 5021 0ce6 08       		.uleb128 0x8
 5022 0ce7 29040000 		.4byte	.LASF306
 5023 0ceb 8E02     		.sleb128 270
 5024 0ced 08       		.uleb128 0x8
 5025 0cee 63010000 		.4byte	.LASF307
 5026 0cf2 8F02     		.sleb128 271
 5027 0cf4 08       		.uleb128 0x8
 5028 0cf5 8F080000 		.4byte	.LASF308
 5029 0cf9 9002     		.sleb128 272
 5030 0cfb 08       		.uleb128 0x8
 5031 0cfc 59400000 		.4byte	.LASF309
 5032 0d00 9102     		.sleb128 273
 5033 0d02 08       		.uleb128 0x8
ARM GAS  C:\Users\YBOURA~1\AppData\Local\Temp\cc3HigXd.s 			page 149


 5034 0d03 34130000 		.4byte	.LASF310
 5035 0d07 9202     		.sleb128 274
 5036 0d09 08       		.uleb128 0x8
 5037 0d0a 58350000 		.4byte	.LASF311
 5038 0d0e 9302     		.sleb128 275
 5039 0d10 08       		.uleb128 0x8
 5040 0d11 6C040000 		.4byte	.LASF312
 5041 0d15 9402     		.sleb128 276
 5042 0d17 08       		.uleb128 0x8
 5043 0d18 C7390000 		.4byte	.LASF313
 5044 0d1c 9502     		.sleb128 277
 5045 0d1e 08       		.uleb128 0x8
 5046 0d1f D90B0000 		.4byte	.LASF314
 5047 0d23 9602     		.sleb128 278
 5048 0d25 08       		.uleb128 0x8
 5049 0d26 55460000 		.4byte	.LASF315
 5050 0d2a 9702     		.sleb128 279
 5051 0d2c 08       		.uleb128 0x8
 5052 0d2d DB270000 		.4byte	.LASF316
 5053 0d31 9802     		.sleb128 280
 5054 0d33 08       		.uleb128 0x8
 5055 0d34 1B180000 		.4byte	.LASF317
 5056 0d38 9902     		.sleb128 281
 5057 0d3a 08       		.uleb128 0x8
 5058 0d3b 363C0000 		.4byte	.LASF318
 5059 0d3f 9A02     		.sleb128 282
 5060 0d41 08       		.uleb128 0x8
 5061 0d42 8E2B0000 		.4byte	.LASF319
 5062 0d46 9B02     		.sleb128 283
 5063 0d48 08       		.uleb128 0x8
 5064 0d49 E7460000 		.4byte	.LASF320
 5065 0d4d 9C02     		.sleb128 284
 5066 0d4f 08       		.uleb128 0x8
 5067 0d50 C13C0000 		.4byte	.LASF321
 5068 0d54 9D02     		.sleb128 285
 5069 0d56 08       		.uleb128 0x8
 5070 0d57 AB450000 		.4byte	.LASF322
 5071 0d5b 9E02     		.sleb128 286
 5072 0d5d 08       		.uleb128 0x8
 5073 0d5e E11F0000 		.4byte	.LASF323
 5074 0d62 9F02     		.sleb128 287
 5075 0d64 08       		.uleb128 0x8
 5076 0d65 321C0000 		.4byte	.LASF324
 5077 0d69 A002     		.sleb128 288
 5078 0d6b 08       		.uleb128 0x8
 5079 0d6c F4040000 		.4byte	.LASF325
 5080 0d70 A102     		.sleb128 289
 5081 0d72 08       		.uleb128 0x8
 5082 0d73 90300000 		.4byte	.LASF326
 5083 0d77 A202     		.sleb128 290
 5084 0d79 08       		.uleb128 0x8
 5085 0d7a 87200000 		.4byte	.LASF327
 5086 0d7e A302     		.sleb128 291
 5087 0d80 08       		.uleb128 0x8
 5088 0d81 AE350000 		.4byte	.LASF328
 5089 0d85 A402     		.sleb128 292
 5090 0d87 08       		.uleb128 0x8
ARM GAS  C:\Users\YBOURA~1\AppData\Local\Temp\cc3HigXd.s 			page 150


 5091 0d88 222F0000 		.4byte	.LASF329
 5092 0d8c A502     		.sleb128 293
 5093 0d8e 08       		.uleb128 0x8
 5094 0d8f 753E0000 		.4byte	.LASF330
 5095 0d93 A602     		.sleb128 294
 5096 0d95 08       		.uleb128 0x8
 5097 0d96 B30F0000 		.4byte	.LASF331
 5098 0d9a A702     		.sleb128 295
 5099 0d9c 08       		.uleb128 0x8
 5100 0d9d 553C0000 		.4byte	.LASF332
 5101 0da1 A802     		.sleb128 296
 5102 0da3 08       		.uleb128 0x8
 5103 0da4 F71A0000 		.4byte	.LASF333
 5104 0da8 A902     		.sleb128 297
 5105 0daa 08       		.uleb128 0x8
 5106 0dab 020D0000 		.4byte	.LASF334
 5107 0daf AA02     		.sleb128 298
 5108 0db1 08       		.uleb128 0x8
 5109 0db2 95030000 		.4byte	.LASF335
 5110 0db6 AB02     		.sleb128 299
 5111 0db8 08       		.uleb128 0x8
 5112 0db9 B9030000 		.4byte	.LASF336
 5113 0dbd AC02     		.sleb128 300
 5114 0dbf 08       		.uleb128 0x8
 5115 0dc0 88000000 		.4byte	.LASF337
 5116 0dc4 AD02     		.sleb128 301
 5117 0dc6 08       		.uleb128 0x8
 5118 0dc7 6C0F0000 		.4byte	.LASF338
 5119 0dcb AE02     		.sleb128 302
 5120 0dcd 08       		.uleb128 0x8
 5121 0dce 6D450000 		.4byte	.LASF339
 5122 0dd2 AF02     		.sleb128 303
 5123 0dd4 08       		.uleb128 0x8
 5124 0dd5 69070000 		.4byte	.LASF340
 5125 0dd9 B002     		.sleb128 304
 5126 0ddb 08       		.uleb128 0x8
 5127 0ddc 3E290000 		.4byte	.LASF341
 5128 0de0 B102     		.sleb128 305
 5129 0de2 08       		.uleb128 0x8
 5130 0de3 7F390000 		.4byte	.LASF342
 5131 0de7 B202     		.sleb128 306
 5132 0de9 08       		.uleb128 0x8
 5133 0dea AA170000 		.4byte	.LASF343
 5134 0dee B302     		.sleb128 307
 5135 0df0 08       		.uleb128 0x8
 5136 0df1 C52A0000 		.4byte	.LASF344
 5137 0df5 B402     		.sleb128 308
 5138 0df7 08       		.uleb128 0x8
 5139 0df8 AA000000 		.4byte	.LASF345
 5140 0dfc B502     		.sleb128 309
 5141 0dfe 08       		.uleb128 0x8
 5142 0dff B3070000 		.4byte	.LASF346
 5143 0e03 B602     		.sleb128 310
 5144 0e05 08       		.uleb128 0x8
 5145 0e06 7E020000 		.4byte	.LASF347
 5146 0e0a B702     		.sleb128 311
 5147 0e0c 08       		.uleb128 0x8
ARM GAS  C:\Users\YBOURA~1\AppData\Local\Temp\cc3HigXd.s 			page 151


 5148 0e0d 9B0A0000 		.4byte	.LASF348
 5149 0e11 B802     		.sleb128 312
 5150 0e13 08       		.uleb128 0x8
 5151 0e14 B1320000 		.4byte	.LASF349
 5152 0e18 B902     		.sleb128 313
 5153 0e1a 08       		.uleb128 0x8
 5154 0e1b DF3A0000 		.4byte	.LASF350
 5155 0e1f BA02     		.sleb128 314
 5156 0e21 08       		.uleb128 0x8
 5157 0e22 71090000 		.4byte	.LASF351
 5158 0e26 BB02     		.sleb128 315
 5159 0e28 08       		.uleb128 0x8
 5160 0e29 622D0000 		.4byte	.LASF352
 5161 0e2d BC02     		.sleb128 316
 5162 0e2f 08       		.uleb128 0x8
 5163 0e30 CE3F0000 		.4byte	.LASF353
 5164 0e34 BD02     		.sleb128 317
 5165 0e36 08       		.uleb128 0x8
 5166 0e37 A4240000 		.4byte	.LASF354
 5167 0e3b BE02     		.sleb128 318
 5168 0e3d 08       		.uleb128 0x8
 5169 0e3e 10400000 		.4byte	.LASF355
 5170 0e42 BF02     		.sleb128 319
 5171 0e44 08       		.uleb128 0x8
 5172 0e45 DD090000 		.4byte	.LASF356
 5173 0e49 C002     		.sleb128 320
 5174 0e4b 08       		.uleb128 0x8
 5175 0e4c 29120000 		.4byte	.LASF357
 5176 0e50 C102     		.sleb128 321
 5177 0e52 08       		.uleb128 0x8
 5178 0e53 8C420000 		.4byte	.LASF358
 5179 0e57 C202     		.sleb128 322
 5180 0e59 08       		.uleb128 0x8
 5181 0e5a 98400000 		.4byte	.LASF359
 5182 0e5e C302     		.sleb128 323
 5183 0e60 08       		.uleb128 0x8
 5184 0e61 C4000000 		.4byte	.LASF360
 5185 0e65 C402     		.sleb128 324
 5186 0e67 08       		.uleb128 0x8
 5187 0e68 5A3B0000 		.4byte	.LASF361
 5188 0e6c C502     		.sleb128 325
 5189 0e6e 08       		.uleb128 0x8
 5190 0e6f 57210000 		.4byte	.LASF362
 5191 0e73 C602     		.sleb128 326
 5192 0e75 08       		.uleb128 0x8
 5193 0e76 043A0000 		.4byte	.LASF363
 5194 0e7a C702     		.sleb128 327
 5195 0e7c 08       		.uleb128 0x8
 5196 0e7d 06370000 		.4byte	.LASF364
 5197 0e81 C802     		.sleb128 328
 5198 0e83 08       		.uleb128 0x8
 5199 0e84 08020000 		.4byte	.LASF365
 5200 0e88 C902     		.sleb128 329
 5201 0e8a 08       		.uleb128 0x8
 5202 0e8b D3350000 		.4byte	.LASF366
 5203 0e8f CA02     		.sleb128 330
 5204 0e91 08       		.uleb128 0x8
ARM GAS  C:\Users\YBOURA~1\AppData\Local\Temp\cc3HigXd.s 			page 152


 5205 0e92 2F110000 		.4byte	.LASF367
 5206 0e96 CB02     		.sleb128 331
 5207 0e98 08       		.uleb128 0x8
 5208 0e99 230B0000 		.4byte	.LASF368
 5209 0e9d CC02     		.sleb128 332
 5210 0e9f 08       		.uleb128 0x8
 5211 0ea0 E70A0000 		.4byte	.LASF369
 5212 0ea4 CD02     		.sleb128 333
 5213 0ea6 08       		.uleb128 0x8
 5214 0ea7 EF100000 		.4byte	.LASF370
 5215 0eab CE02     		.sleb128 334
 5216 0ead 08       		.uleb128 0x8
 5217 0eae BB220000 		.4byte	.LASF371
 5218 0eb2 CF02     		.sleb128 335
 5219 0eb4 08       		.uleb128 0x8
 5220 0eb5 68440000 		.4byte	.LASF372
 5221 0eb9 D002     		.sleb128 336
 5222 0ebb 08       		.uleb128 0x8
 5223 0ebc D6160000 		.4byte	.LASF373
 5224 0ec0 D102     		.sleb128 337
 5225 0ec2 08       		.uleb128 0x8
 5226 0ec3 95320000 		.4byte	.LASF374
 5227 0ec7 D202     		.sleb128 338
 5228 0ec9 08       		.uleb128 0x8
 5229 0eca F02C0000 		.4byte	.LASF375
 5230 0ece D302     		.sleb128 339
 5231 0ed0 08       		.uleb128 0x8
 5232 0ed1 AD010000 		.4byte	.LASF376
 5233 0ed5 D402     		.sleb128 340
 5234 0ed7 08       		.uleb128 0x8
 5235 0ed8 0B210000 		.4byte	.LASF377
 5236 0edc D502     		.sleb128 341
 5237 0ede 08       		.uleb128 0x8
 5238 0edf DF000000 		.4byte	.LASF378
 5239 0ee3 D602     		.sleb128 342
 5240 0ee5 08       		.uleb128 0x8
 5241 0ee6 870B0000 		.4byte	.LASF379
 5242 0eea D702     		.sleb128 343
 5243 0eec 08       		.uleb128 0x8
 5244 0eed F8400000 		.4byte	.LASF380
 5245 0ef1 D802     		.sleb128 344
 5246 0ef3 08       		.uleb128 0x8
 5247 0ef4 ED190000 		.4byte	.LASF381
 5248 0ef8 D902     		.sleb128 345
 5249 0efa 08       		.uleb128 0x8
 5250 0efb BC180000 		.4byte	.LASF382
 5251 0eff DA02     		.sleb128 346
 5252 0f01 08       		.uleb128 0x8
 5253 0f02 A4060000 		.4byte	.LASF383
 5254 0f06 DB02     		.sleb128 347
 5255 0f08 08       		.uleb128 0x8
 5256 0f09 953F0000 		.4byte	.LASF384
 5257 0f0d DC02     		.sleb128 348
 5258 0f0f 08       		.uleb128 0x8
 5259 0f10 23260000 		.4byte	.LASF385
 5260 0f14 DD02     		.sleb128 349
 5261 0f16 08       		.uleb128 0x8
ARM GAS  C:\Users\YBOURA~1\AppData\Local\Temp\cc3HigXd.s 			page 153


 5262 0f17 EA210000 		.4byte	.LASF386
 5263 0f1b DE02     		.sleb128 350
 5264 0f1d 08       		.uleb128 0x8
 5265 0f1e 0E090000 		.4byte	.LASF387
 5266 0f22 DF02     		.sleb128 351
 5267 0f24 08       		.uleb128 0x8
 5268 0f25 FC070000 		.4byte	.LASF388
 5269 0f29 E002     		.sleb128 352
 5270 0f2b 08       		.uleb128 0x8
 5271 0f2c CF010000 		.4byte	.LASF389
 5272 0f30 E102     		.sleb128 353
 5273 0f32 08       		.uleb128 0x8
 5274 0f33 E2260000 		.4byte	.LASF390
 5275 0f37 E202     		.sleb128 354
 5276 0f39 08       		.uleb128 0x8
 5277 0f3a 2A460000 		.4byte	.LASF391
 5278 0f3e E302     		.sleb128 355
 5279 0f40 08       		.uleb128 0x8
 5280 0f41 05160000 		.4byte	.LASF392
 5281 0f45 E402     		.sleb128 356
 5282 0f47 08       		.uleb128 0x8
 5283 0f48 E2180000 		.4byte	.LASF393
 5284 0f4c E502     		.sleb128 357
 5285 0f4e 08       		.uleb128 0x8
 5286 0f4f FD280000 		.4byte	.LASF394
 5287 0f53 E602     		.sleb128 358
 5288 0f55 08       		.uleb128 0x8
 5289 0f56 5E3D0000 		.4byte	.LASF395
 5290 0f5a E702     		.sleb128 359
 5291 0f5c 08       		.uleb128 0x8
 5292 0f5d 67330000 		.4byte	.LASF396
 5293 0f61 E802     		.sleb128 360
 5294 0f63 08       		.uleb128 0x8
 5295 0f64 07040000 		.4byte	.LASF397
 5296 0f68 E902     		.sleb128 361
 5297 0f6a 08       		.uleb128 0x8
 5298 0f6b 9F310000 		.4byte	.LASF398
 5299 0f6f EA02     		.sleb128 362
 5300 0f71 08       		.uleb128 0x8
 5301 0f72 E1150000 		.4byte	.LASF399
 5302 0f76 EB02     		.sleb128 363
 5303 0f78 08       		.uleb128 0x8
 5304 0f79 CD200000 		.4byte	.LASF400
 5305 0f7d EC02     		.sleb128 364
 5306 0f7f 08       		.uleb128 0x8
 5307 0f80 AB200000 		.4byte	.LASF401
 5308 0f84 ED02     		.sleb128 365
 5309 0f86 08       		.uleb128 0x8
 5310 0f87 473E0000 		.4byte	.LASF402
 5311 0f8b EE02     		.sleb128 366
 5312 0f8d 08       		.uleb128 0x8
 5313 0f8e 37170000 		.4byte	.LASF403
 5314 0f92 EF02     		.sleb128 367
 5315 0f94 08       		.uleb128 0x8
 5316 0f95 A8260000 		.4byte	.LASF404
 5317 0f99 F002     		.sleb128 368
 5318 0f9b 08       		.uleb128 0x8
ARM GAS  C:\Users\YBOURA~1\AppData\Local\Temp\cc3HigXd.s 			page 154


 5319 0f9c F0240000 		.4byte	.LASF405
 5320 0fa0 F102     		.sleb128 369
 5321 0fa2 08       		.uleb128 0x8
 5322 0fa3 9D290000 		.4byte	.LASF406
 5323 0fa7 F202     		.sleb128 370
 5324 0fa9 08       		.uleb128 0x8
 5325 0faa 3E380000 		.4byte	.LASF407
 5326 0fae F302     		.sleb128 371
 5327 0fb0 08       		.uleb128 0x8
 5328 0fb1 881C0000 		.4byte	.LASF408
 5329 0fb5 F402     		.sleb128 372
 5330 0fb7 08       		.uleb128 0x8
 5331 0fb8 8D260000 		.4byte	.LASF409
 5332 0fbc F502     		.sleb128 373
 5333 0fbe 08       		.uleb128 0x8
 5334 0fbf 4B270000 		.4byte	.LASF410
 5335 0fc3 F602     		.sleb128 374
 5336 0fc5 08       		.uleb128 0x8
 5337 0fc6 01180000 		.4byte	.LASF411
 5338 0fca F702     		.sleb128 375
 5339 0fcc 08       		.uleb128 0x8
 5340 0fcd 6B0E0000 		.4byte	.LASF412
 5341 0fd1 F802     		.sleb128 376
 5342 0fd3 08       		.uleb128 0x8
 5343 0fd4 F63B0000 		.4byte	.LASF413
 5344 0fd8 F902     		.sleb128 377
 5345 0fda 08       		.uleb128 0x8
 5346 0fdb 691D0000 		.4byte	.LASF414
 5347 0fdf FA02     		.sleb128 378
 5348 0fe1 08       		.uleb128 0x8
 5349 0fe2 5C0D0000 		.4byte	.LASF415
 5350 0fe6 FB02     		.sleb128 379
 5351 0fe8 08       		.uleb128 0x8
 5352 0fe9 9F3C0000 		.4byte	.LASF416
 5353 0fed FC02     		.sleb128 380
 5354 0fef 08       		.uleb128 0x8
 5355 0ff0 B5330000 		.4byte	.LASF417
 5356 0ff4 FD02     		.sleb128 381
 5357 0ff6 08       		.uleb128 0x8
 5358 0ff7 D6300000 		.4byte	.LASF418
 5359 0ffb FE02     		.sleb128 382
 5360 0ffd 08       		.uleb128 0x8
 5361 0ffe EF230000 		.4byte	.LASF419
 5362 1002 FF02     		.sleb128 383
 5363 1004 08       		.uleb128 0x8
 5364 1005 4E020000 		.4byte	.LASF420
 5365 1009 8003     		.sleb128 384
 5366 100b 08       		.uleb128 0x8
 5367 100c DE2D0000 		.4byte	.LASF421
 5368 1010 8103     		.sleb128 385
 5369 1012 08       		.uleb128 0x8
 5370 1013 4E440000 		.4byte	.LASF422
 5371 1017 8203     		.sleb128 386
 5372 1019 08       		.uleb128 0x8
 5373 101a 973E0000 		.4byte	.LASF423
 5374 101e 8303     		.sleb128 387
 5375 1020 08       		.uleb128 0x8
ARM GAS  C:\Users\YBOURA~1\AppData\Local\Temp\cc3HigXd.s 			page 155


 5376 1021 B0380000 		.4byte	.LASF424
 5377 1025 8403     		.sleb128 388
 5378 1027 08       		.uleb128 0x8
 5379 1028 FB020000 		.4byte	.LASF425
 5380 102c 8503     		.sleb128 389
 5381 102e 08       		.uleb128 0x8
 5382 102f 72140000 		.4byte	.LASF426
 5383 1033 8603     		.sleb128 390
 5384 1035 08       		.uleb128 0x8
 5385 1036 B3400000 		.4byte	.LASF427
 5386 103a 8703     		.sleb128 391
 5387 103c 08       		.uleb128 0x8
 5388 103d 32470000 		.4byte	.LASF428
 5389 1041 8803     		.sleb128 392
 5390 1043 08       		.uleb128 0x8
 5391 1044 8C270000 		.4byte	.LASF429
 5392 1048 8903     		.sleb128 393
 5393 104a 08       		.uleb128 0x8
 5394 104b E9450000 		.4byte	.LASF430
 5395 104f 8A03     		.sleb128 394
 5396 1051 08       		.uleb128 0x8
 5397 1052 29270000 		.4byte	.LASF431
 5398 1056 8B03     		.sleb128 395
 5399 1058 08       		.uleb128 0x8
 5400 1059 040F0000 		.4byte	.LASF432
 5401 105d 8C03     		.sleb128 396
 5402 105f 08       		.uleb128 0x8
 5403 1060 A61D0000 		.4byte	.LASF433
 5404 1064 8D03     		.sleb128 397
 5405 1066 08       		.uleb128 0x8
 5406 1067 D51A0000 		.4byte	.LASF434
 5407 106b 8E03     		.sleb128 398
 5408 106d 08       		.uleb128 0x8
 5409 106e 8D0E0000 		.4byte	.LASF435
 5410 1072 8F03     		.sleb128 399
 5411 1074 08       		.uleb128 0x8
 5412 1075 2A370000 		.4byte	.LASF436
 5413 1079 9003     		.sleb128 400
 5414 107b 08       		.uleb128 0x8
 5415 107c 721E0000 		.4byte	.LASF437
 5416 1080 9103     		.sleb128 401
 5417 1082 08       		.uleb128 0x8
 5418 1083 DC2E0000 		.4byte	.LASF438
 5419 1087 9203     		.sleb128 402
 5420 1089 08       		.uleb128 0x8
 5421 108a AB040000 		.4byte	.LASF439
 5422 108e 9303     		.sleb128 403
 5423 1090 08       		.uleb128 0x8
 5424 1091 F0160000 		.4byte	.LASF440
 5425 1095 9403     		.sleb128 404
 5426 1097 08       		.uleb128 0x8
 5427 1098 88180000 		.4byte	.LASF441
 5428 109c 9503     		.sleb128 405
 5429 109e 08       		.uleb128 0x8
 5430 109f A0470000 		.4byte	.LASF442
 5431 10a3 9603     		.sleb128 406
 5432 10a5 08       		.uleb128 0x8
ARM GAS  C:\Users\YBOURA~1\AppData\Local\Temp\cc3HigXd.s 			page 156


 5433 10a6 832E0000 		.4byte	.LASF443
 5434 10aa 9703     		.sleb128 407
 5435 10ac 08       		.uleb128 0x8
 5436 10ad 002F0000 		.4byte	.LASF444
 5437 10b1 9803     		.sleb128 408
 5438 10b3 08       		.uleb128 0x8
 5439 10b4 CB080000 		.4byte	.LASF445
 5440 10b8 9903     		.sleb128 409
 5441 10ba 08       		.uleb128 0x8
 5442 10bb B0190000 		.4byte	.LASF446
 5443 10bf 9A03     		.sleb128 410
 5444 10c1 08       		.uleb128 0x8
 5445 10c2 00380000 		.4byte	.LASF447
 5446 10c6 9B03     		.sleb128 411
 5447 10c8 08       		.uleb128 0x8
 5448 10c9 800D0000 		.4byte	.LASF448
 5449 10cd 9C03     		.sleb128 412
 5450 10cf 08       		.uleb128 0x8
 5451 10d0 22000000 		.4byte	.LASF449
 5452 10d4 9D03     		.sleb128 413
 5453 10d6 08       		.uleb128 0x8
 5454 10d7 023E0000 		.4byte	.LASF450
 5455 10db 9E03     		.sleb128 414
 5456 10dd 08       		.uleb128 0x8
 5457 10de E9140000 		.4byte	.LASF451
 5458 10e2 9F03     		.sleb128 415
 5459 10e4 08       		.uleb128 0x8
 5460 10e5 57470000 		.4byte	.LASF452
 5461 10e9 A003     		.sleb128 416
 5462 10eb 08       		.uleb128 0x8
 5463 10ec 49200000 		.4byte	.LASF453
 5464 10f0 A103     		.sleb128 417
 5465 10f2 08       		.uleb128 0x8
 5466 10f3 61230000 		.4byte	.LASF454
 5467 10f7 A203     		.sleb128 418
 5468 10f9 08       		.uleb128 0x8
 5469 10fa 0C470000 		.4byte	.LASF455
 5470 10fe A303     		.sleb128 419
 5471 1100 08       		.uleb128 0x8
 5472 1101 2E3A0000 		.4byte	.LASF456
 5473 1105 A403     		.sleb128 420
 5474 1107 08       		.uleb128 0x8
 5475 1108 0D2B0000 		.4byte	.LASF457
 5476 110c A503     		.sleb128 421
 5477 110e 08       		.uleb128 0x8
 5478 110f 852D0000 		.4byte	.LASF458
 5479 1113 A603     		.sleb128 422
 5480 1115 08       		.uleb128 0x8
 5481 1116 A7410000 		.4byte	.LASF459
 5482 111a A703     		.sleb128 423
 5483 111c 08       		.uleb128 0x8
 5484 111d F01E0000 		.4byte	.LASF460
 5485 1121 A803     		.sleb128 424
 5486 1123 08       		.uleb128 0x8
 5487 1124 6D190000 		.4byte	.LASF461
 5488 1128 A903     		.sleb128 425
 5489 112a 08       		.uleb128 0x8
ARM GAS  C:\Users\YBOURA~1\AppData\Local\Temp\cc3HigXd.s 			page 157


 5490 112b 01260000 		.4byte	.LASF462
 5491 112f AA03     		.sleb128 426
 5492 1131 08       		.uleb128 0x8
 5493 1132 413F0000 		.4byte	.LASF463
 5494 1136 AB03     		.sleb128 427
 5495 1138 08       		.uleb128 0x8
 5496 1139 48340000 		.4byte	.LASF464
 5497 113d AC03     		.sleb128 428
 5498 113f 08       		.uleb128 0x8
 5499 1140 E4030000 		.4byte	.LASF465
 5500 1144 AD03     		.sleb128 429
 5501 1146 08       		.uleb128 0x8
 5502 1147 49300000 		.4byte	.LASF466
 5503 114b AE03     		.sleb128 430
 5504 114d 08       		.uleb128 0x8
 5505 114e 450B0000 		.4byte	.LASF467
 5506 1152 AF03     		.sleb128 431
 5507 1154 08       		.uleb128 0x8
 5508 1155 B40B0000 		.4byte	.LASF468
 5509 1159 B003     		.sleb128 432
 5510 115b 08       		.uleb128 0x8
 5511 115c 24380000 		.4byte	.LASF469
 5512 1160 B103     		.sleb128 433
 5513 1162 08       		.uleb128 0x8
 5514 1163 E4060000 		.4byte	.LASF470
 5515 1167 B203     		.sleb128 434
 5516 1169 08       		.uleb128 0x8
 5517 116a FA320000 		.4byte	.LASF471
 5518 116e B303     		.sleb128 435
 5519 1170 08       		.uleb128 0x8
 5520 1171 B4300000 		.4byte	.LASF472
 5521 1175 B403     		.sleb128 436
 5522 1177 08       		.uleb128 0x8
 5523 1178 C21B0000 		.4byte	.LASF473
 5524 117c B503     		.sleb128 437
 5525 117e 08       		.uleb128 0x8
 5526 117f 89430000 		.4byte	.LASF474
 5527 1183 B603     		.sleb128 438
 5528 1185 08       		.uleb128 0x8
 5529 1186 DD250000 		.4byte	.LASF475
 5530 118a B703     		.sleb128 439
 5531 118c 08       		.uleb128 0x8
 5532 118d 7D2F0000 		.4byte	.LASF476
 5533 1191 B803     		.sleb128 440
 5534 1193 08       		.uleb128 0x8
 5535 1194 25350000 		.4byte	.LASF477
 5536 1198 B903     		.sleb128 441
 5537 119a 08       		.uleb128 0x8
 5538 119b E0360000 		.4byte	.LASF478
 5539 119f BA03     		.sleb128 442
 5540 11a1 08       		.uleb128 0x8
 5541 11a2 F0200000 		.4byte	.LASF479
 5542 11a6 BB03     		.sleb128 443
 5543 11a8 08       		.uleb128 0x8
 5544 11a9 62000000 		.4byte	.LASF480
 5545 11ad BC03     		.sleb128 444
 5546 11af 08       		.uleb128 0x8
ARM GAS  C:\Users\YBOURA~1\AppData\Local\Temp\cc3HigXd.s 			page 158


 5547 11b0 1A070000 		.4byte	.LASF481
 5548 11b4 BD03     		.sleb128 445
 5549 11b6 08       		.uleb128 0x8
 5550 11b7 0D0C0000 		.4byte	.LASF482
 5551 11bb BE03     		.sleb128 446
 5552 11bd 08       		.uleb128 0x8
 5553 11be 451D0000 		.4byte	.LASF483
 5554 11c2 BF03     		.sleb128 447
 5555 11c4 08       		.uleb128 0x8
 5556 11c5 683A0000 		.4byte	.LASF484
 5557 11c9 C003     		.sleb128 448
 5558 11cb 08       		.uleb128 0x8
 5559 11cc 93460000 		.4byte	.LASF485
 5560 11d0 C103     		.sleb128 449
 5561 11d2 08       		.uleb128 0x8
 5562 11d3 271E0000 		.4byte	.LASF486
 5563 11d7 C203     		.sleb128 450
 5564 11d9 08       		.uleb128 0x8
 5565 11da 9A3D0000 		.4byte	.LASF487
 5566 11de C303     		.sleb128 451
 5567 11e0 08       		.uleb128 0x8
 5568 11e1 2E190000 		.4byte	.LASF488
 5569 11e5 C403     		.sleb128 452
 5570 11e7 08       		.uleb128 0x8
 5571 11e8 9F2E0000 		.4byte	.LASF489
 5572 11ec C503     		.sleb128 453
 5573 11ee 08       		.uleb128 0x8
 5574 11ef 51040000 		.4byte	.LASF490
 5575 11f3 C603     		.sleb128 454
 5576 11f5 08       		.uleb128 0x8
 5577 11f6 3A390000 		.4byte	.LASF491
 5578 11fa C703     		.sleb128 455
 5579 11fc 08       		.uleb128 0x8
 5580 11fd 7F110000 		.4byte	.LASF492
 5581 1201 C803     		.sleb128 456
 5582 1203 08       		.uleb128 0x8
 5583 1204 2E220000 		.4byte	.LASF493
 5584 1208 C903     		.sleb128 457
 5585 120a 08       		.uleb128 0x8
 5586 120b 64180000 		.4byte	.LASF494
 5587 120f CA03     		.sleb128 458
 5588 1211 08       		.uleb128 0x8
 5589 1212 1C410000 		.4byte	.LASF495
 5590 1216 CB03     		.sleb128 459
 5591 1218 08       		.uleb128 0x8
 5592 1219 70030000 		.4byte	.LASF496
 5593 121d CC03     		.sleb128 460
 5594 121f 08       		.uleb128 0x8
 5595 1220 0B010000 		.4byte	.LASF497
 5596 1224 CD03     		.sleb128 461
 5597 1226 08       		.uleb128 0x8
 5598 1227 0C150000 		.4byte	.LASF498
 5599 122b CE03     		.sleb128 462
 5600 122d 08       		.uleb128 0x8
 5601 122e C7120000 		.4byte	.LASF499
 5602 1232 CF03     		.sleb128 463
 5603 1234 08       		.uleb128 0x8
ARM GAS  C:\Users\YBOURA~1\AppData\Local\Temp\cc3HigXd.s 			page 159


 5604 1235 77290000 		.4byte	.LASF500
 5605 1239 D003     		.sleb128 464
 5606 123b 08       		.uleb128 0x8
 5607 123c EC3E0000 		.4byte	.LASF501
 5608 1240 D103     		.sleb128 465
 5609 1242 08       		.uleb128 0x8
 5610 1243 0C270000 		.4byte	.LASF502
 5611 1247 D203     		.sleb128 466
 5612 1249 08       		.uleb128 0x8
 5613 124a DC370000 		.4byte	.LASF503
 5614 124e D303     		.sleb128 467
 5615 1250 08       		.uleb128 0x8
 5616 1251 59130000 		.4byte	.LASF504
 5617 1255 D403     		.sleb128 468
 5618 1257 08       		.uleb128 0x8
 5619 1258 D0040000 		.4byte	.LASF505
 5620 125c D503     		.sleb128 469
 5621 125e 08       		.uleb128 0x8
 5622 125f B7370000 		.4byte	.LASF506
 5623 1263 D603     		.sleb128 470
 5624 1265 08       		.uleb128 0x8
 5625 1266 9E130000 		.4byte	.LASF507
 5626 126a D703     		.sleb128 471
 5627 126c 08       		.uleb128 0x8
 5628 126d AC230000 		.4byte	.LASF508
 5629 1271 D803     		.sleb128 472
 5630 1273 08       		.uleb128 0x8
 5631 1274 22360000 		.4byte	.LASF509
 5632 1278 D903     		.sleb128 473
 5633 127a 08       		.uleb128 0x8
 5634 127b 40180000 		.4byte	.LASF510
 5635 127f DA03     		.sleb128 474
 5636 1281 08       		.uleb128 0x8
 5637 1282 783D0000 		.4byte	.LASF511
 5638 1286 DB03     		.sleb128 475
 5639 1288 08       		.uleb128 0x8
 5640 1289 78160000 		.4byte	.LASF512
 5641 128d DC03     		.sleb128 476
 5642 128f 08       		.uleb128 0x8
 5643 1290 310C0000 		.4byte	.LASF513
 5644 1294 DD03     		.sleb128 477
 5645 1296 08       		.uleb128 0x8
 5646 1297 E02F0000 		.4byte	.LASF514
 5647 129b DE03     		.sleb128 478
 5648 129d 08       		.uleb128 0x8
 5649 129e 551C0000 		.4byte	.LASF515
 5650 12a2 DF03     		.sleb128 479
 5651 12a4 08       		.uleb128 0x8
 5652 12a5 0E0E0000 		.4byte	.LASF516
 5653 12a9 E003     		.sleb128 480
 5654 12ab 08       		.uleb128 0x8
 5655 12ac 91450000 		.4byte	.LASF517
 5656 12b0 E103     		.sleb128 481
 5657 12b2 08       		.uleb128 0x8
 5658 12b3 2B090000 		.4byte	.LASF518
 5659 12b7 E203     		.sleb128 482
 5660 12b9 08       		.uleb128 0x8
ARM GAS  C:\Users\YBOURA~1\AppData\Local\Temp\cc3HigXd.s 			page 160


 5661 12ba 3B280000 		.4byte	.LASF519
 5662 12be E303     		.sleb128 483
 5663 12c0 08       		.uleb128 0x8
 5664 12c1 00000000 		.4byte	.LASF520
 5665 12c5 E403     		.sleb128 484
 5666 12c7 08       		.uleb128 0x8
 5667 12c8 0C2C0000 		.4byte	.LASF521
 5668 12cc E503     		.sleb128 485
 5669 12ce 08       		.uleb128 0x8
 5670 12cf 243E0000 		.4byte	.LASF522
 5671 12d3 E603     		.sleb128 486
 5672 12d5 08       		.uleb128 0x8
 5673 12d6 87040000 		.4byte	.LASF523
 5674 12da E703     		.sleb128 487
 5675 12dc 08       		.uleb128 0x8
 5676 12dd 83360000 		.4byte	.LASF524
 5677 12e1 E803     		.sleb128 488
 5678 12e3 08       		.uleb128 0x8
 5679 12e4 6F250000 		.4byte	.LASF525
 5680 12e8 E903     		.sleb128 489
 5681 12ea 08       		.uleb128 0x8
 5682 12eb 5C170000 		.4byte	.LASF526
 5683 12ef EA03     		.sleb128 490
 5684 12f1 08       		.uleb128 0x8
 5685 12f2 301F0000 		.4byte	.LASF527
 5686 12f6 EB03     		.sleb128 491
 5687 12f8 08       		.uleb128 0x8
 5688 12f9 E2110000 		.4byte	.LASF528
 5689 12fd EC03     		.sleb128 492
 5690 12ff 08       		.uleb128 0x8
 5691 1300 7B470000 		.4byte	.LASF529
 5692 1304 ED03     		.sleb128 493
 5693 1306 08       		.uleb128 0x8
 5694 1307 52190000 		.4byte	.LASF530
 5695 130b EE03     		.sleb128 494
 5696 130d 08       		.uleb128 0x8
 5697 130e 46010000 		.4byte	.LASF531
 5698 1312 EF03     		.sleb128 495
 5699 1314 08       		.uleb128 0x8
 5700 1315 472C0000 		.4byte	.LASF532
 5701 1319 F003     		.sleb128 496
 5702 131b 08       		.uleb128 0x8
 5703 131c 57280000 		.4byte	.LASF533
 5704 1320 F103     		.sleb128 497
 5705 1322 08       		.uleb128 0x8
 5706 1323 721B0000 		.4byte	.LASF534
 5707 1327 F203     		.sleb128 498
 5708 1329 08       		.uleb128 0x8
 5709 132a A3390000 		.4byte	.LASF535
 5710 132e F303     		.sleb128 499
 5711 1330 08       		.uleb128 0x8
 5712 1331 0C420000 		.4byte	.LASF536
 5713 1335 F403     		.sleb128 500
 5714 1337 08       		.uleb128 0x8
 5715 1338 8B010000 		.4byte	.LASF537
 5716 133c F503     		.sleb128 501
 5717 133e 08       		.uleb128 0x8
ARM GAS  C:\Users\YBOURA~1\AppData\Local\Temp\cc3HigXd.s 			page 161


 5718 133f 6D300000 		.4byte	.LASF538
 5719 1343 F603     		.sleb128 502
 5720 1345 08       		.uleb128 0x8
 5721 1346 9B150000 		.4byte	.LASF539
 5722 134a F703     		.sleb128 503
 5723 134c 08       		.uleb128 0x8
 5724 134d 692A0000 		.4byte	.LASF540
 5725 1351 F803     		.sleb128 504
 5726 1353 08       		.uleb128 0x8
 5727 1354 B8460000 		.4byte	.LASF541
 5728 1358 F903     		.sleb128 505
 5729 135a 08       		.uleb128 0x8
 5730 135b BF110000 		.4byte	.LASF542
 5731 135f FA03     		.sleb128 506
 5732 1361 08       		.uleb128 0x8
 5733 1362 8F0F0000 		.4byte	.LASF543
 5734 1366 FB03     		.sleb128 507
 5735 1368 08       		.uleb128 0x8
 5736 1369 A82D0000 		.4byte	.LASF544
 5737 136d 80C003   		.sleb128 57344
 5738 1370 00       		.byte	0
 5739 1371 09       		.uleb128 0x9
 5740 1372 01       		.byte	0x1
 5741 1373 0B       		.byte	0xb
 5742 1374 3707     		.2byte	0x737
 5743 1376 99130000 		.4byte	0x1399
 5744 137a 08       		.uleb128 0x8
 5745 137b 97100000 		.4byte	.LASF545
 5746 137f 00       		.sleb128 0
 5747 1380 08       		.uleb128 0x8
 5748 1381 143F0000 		.4byte	.LASF546
 5749 1385 01       		.sleb128 1
 5750 1386 08       		.uleb128 0x8
 5751 1387 AC430000 		.4byte	.LASF547
 5752 138b 02       		.sleb128 2
 5753 138c 08       		.uleb128 0x8
 5754 138d 0F060000 		.4byte	.LASF548
 5755 1391 03       		.sleb128 3
 5756 1392 08       		.uleb128 0x8
 5757 1393 97380000 		.4byte	.LASF549
 5758 1397 04       		.sleb128 4
 5759 1398 00       		.byte	0
 5760 1399 0A       		.uleb128 0xa
 5761 139a 27310000 		.4byte	.LASF550
 5762 139e 0B       		.byte	0xb
 5763 139f 4507     		.2byte	0x745
 5764 13a1 71130000 		.4byte	0x1371
 5765 13a5 09       		.uleb128 0x9
 5766 13a6 01       		.byte	0x1
 5767 13a7 0B       		.byte	0xb
 5768 13a8 5007     		.2byte	0x750
 5769 13aa E5130000 		.4byte	0x13e5
 5770 13ae 08       		.uleb128 0x8
 5771 13af 2B340000 		.4byte	.LASF551
 5772 13b3 00       		.sleb128 0
 5773 13b4 08       		.uleb128 0x8
 5774 13b5 2A160000 		.4byte	.LASF552
ARM GAS  C:\Users\YBOURA~1\AppData\Local\Temp\cc3HigXd.s 			page 162


 5775 13b9 01       		.sleb128 1
 5776 13ba 08       		.uleb128 0x8
 5777 13bb D2380000 		.4byte	.LASF553
 5778 13bf 02       		.sleb128 2
 5779 13c0 08       		.uleb128 0x8
 5780 13c1 CF050000 		.4byte	.LASF554
 5781 13c5 03       		.sleb128 3
 5782 13c6 08       		.uleb128 0x8
 5783 13c7 92370000 		.4byte	.LASF555
 5784 13cb 04       		.sleb128 4
 5785 13cc 08       		.uleb128 0x8
 5786 13cd 56360000 		.4byte	.LASF556
 5787 13d1 05       		.sleb128 5
 5788 13d2 08       		.uleb128 0x8
 5789 13d3 B22B0000 		.4byte	.LASF557
 5790 13d7 06       		.sleb128 6
 5791 13d8 08       		.uleb128 0x8
 5792 13d9 54110000 		.4byte	.LASF558
 5793 13dd 07       		.sleb128 7
 5794 13de 08       		.uleb128 0x8
 5795 13df 0E220000 		.4byte	.LASF559
 5796 13e3 08       		.sleb128 8
 5797 13e4 00       		.byte	0
 5798 13e5 0A       		.uleb128 0xa
 5799 13e6 312E0000 		.4byte	.LASF560
 5800 13ea 0B       		.byte	0xb
 5801 13eb 5A07     		.2byte	0x75a
 5802 13ed A5130000 		.4byte	0x13a5
 5803 13f1 0B       		.uleb128 0xb
 5804 13f2 0A       		.byte	0xa
 5805 13f3 0B       		.byte	0xb
 5806 13f4 6407     		.2byte	0x764
 5807 13f6 3C140000 		.4byte	0x143c
 5808 13fa 0C       		.uleb128 0xc
 5809 13fb 94250000 		.4byte	.LASF561
 5810 13ff 0B       		.byte	0xb
 5811 1400 6707     		.2byte	0x767
 5812 1402 71070000 		.4byte	0x771
 5813 1406 00       		.byte	0
 5814 1407 0C       		.uleb128 0xc
 5815 1408 C72E0000 		.4byte	.LASF562
 5816 140c 0B       		.byte	0xb
 5817 140d 6907     		.2byte	0x769
 5818 140f 71070000 		.4byte	0x771
 5819 1413 02       		.byte	0x2
 5820 1414 0C       		.uleb128 0xc
 5821 1415 82170000 		.4byte	.LASF563
 5822 1419 0B       		.byte	0xb
 5823 141a 6B07     		.2byte	0x76b
 5824 141c 71070000 		.4byte	0x771
 5825 1420 04       		.byte	0x4
 5826 1421 0C       		.uleb128 0xc
 5827 1422 390D0000 		.4byte	.LASF564
 5828 1426 0B       		.byte	0xb
 5829 1427 6D07     		.2byte	0x76d
 5830 1429 71070000 		.4byte	0x771
 5831 142d 06       		.byte	0x6
ARM GAS  C:\Users\YBOURA~1\AppData\Local\Temp\cc3HigXd.s 			page 163


 5832 142e 0C       		.uleb128 0xc
 5833 142f 2F2C0000 		.4byte	.LASF565
 5834 1433 0B       		.byte	0xb
 5835 1434 7007     		.2byte	0x770
 5836 1436 71070000 		.4byte	0x771
 5837 143a 08       		.byte	0x8
 5838 143b 00       		.byte	0
 5839 143c 0A       		.uleb128 0xa
 5840 143d DA0A0000 		.4byte	.LASF566
 5841 1441 0B       		.byte	0xb
 5842 1442 7107     		.2byte	0x771
 5843 1444 F1130000 		.4byte	0x13f1
 5844 1448 09       		.uleb128 0x9
 5845 1449 01       		.byte	0x1
 5846 144a 0B       		.byte	0xb
 5847 144b 7707     		.2byte	0x777
 5848 144d 70140000 		.4byte	0x1470
 5849 1451 08       		.uleb128 0x8
 5850 1452 74360000 		.4byte	.LASF567
 5851 1456 00       		.sleb128 0
 5852 1457 08       		.uleb128 0x8
 5853 1458 191D0000 		.4byte	.LASF568
 5854 145c 01       		.sleb128 1
 5855 145d 08       		.uleb128 0x8
 5856 145e 33430000 		.4byte	.LASF569
 5857 1462 02       		.sleb128 2
 5858 1463 08       		.uleb128 0x8
 5859 1464 3D330000 		.4byte	.LASF570
 5860 1468 02       		.sleb128 2
 5861 1469 08       		.uleb128 0x8
 5862 146a DB3C0000 		.4byte	.LASF571
 5863 146e 03       		.sleb128 3
 5864 146f 00       		.byte	0
 5865 1470 09       		.uleb128 0x9
 5866 1471 01       		.byte	0x1
 5867 1472 0B       		.byte	0xb
 5868 1473 DD07     		.2byte	0x7dd
 5869 1475 8C140000 		.4byte	0x148c
 5870 1479 08       		.uleb128 0x8
 5871 147a F8220000 		.4byte	.LASF572
 5872 147e 00       		.sleb128 0
 5873 147f 08       		.uleb128 0x8
 5874 1480 6F0A0000 		.4byte	.LASF573
 5875 1484 01       		.sleb128 1
 5876 1485 08       		.uleb128 0x8
 5877 1486 4E160000 		.4byte	.LASF574
 5878 148a 02       		.sleb128 2
 5879 148b 00       		.byte	0
 5880 148c 1A       		.uleb128 0x1a
 5881 148d F2010000 		.4byte	.LASF577
 5882 1491 01       		.byte	0x1
 5883 1492 E4       		.byte	0xe4
 5884 1493 00000000 		.4byte	.LFB2
 5885 1497 70000000 		.4byte	.LFE2-.LFB2
 5886 149b 01       		.uleb128 0x1
 5887 149c 9C       		.byte	0x9c
 5888 149d D7140000 		.4byte	0x14d7
ARM GAS  C:\Users\YBOURA~1\AppData\Local\Temp\cc3HigXd.s 			page 164


 5889 14a1 1B       		.uleb128 0x1b
 5890 14a2 73020000 		.4byte	.LASF579
 5891 14a6 01       		.byte	0x1
 5892 14a7 E4       		.byte	0xe4
 5893 14a8 D7140000 		.4byte	0x14d7
 5894 14ac 02       		.uleb128 0x2
 5895 14ad 91       		.byte	0x91
 5896 14ae 64       		.sleb128 -28
 5897 14af 1C       		.uleb128 0x1c
 5898 14b0 E2420000 		.4byte	.LASF575
 5899 14b4 01       		.byte	0x1
 5900 14b5 E6       		.byte	0xe6
 5901 14b6 08070000 		.4byte	0x708
 5902 14ba 02       		.uleb128 0x2
 5903 14bb 91       		.byte	0x91
 5904 14bc 6F       		.sleb128 -17
 5905 14bd 1D       		.uleb128 0x1d
 5906 14be 30000000 		.4byte	.LBB2
 5907 14c2 2C000000 		.4byte	.LBE2-.LBB2
 5908 14c6 1E       		.uleb128 0x1e
 5909 14c7 3C2A0000 		.4byte	.LASF576
 5910 14cb 01       		.byte	0x1
 5911 14cc 8801     		.2byte	0x188
 5912 14ce A7080000 		.4byte	0x8a7
 5913 14d2 02       		.uleb128 0x2
 5914 14d3 91       		.byte	0x91
 5915 14d4 68       		.sleb128 -24
 5916 14d5 00       		.byte	0
 5917 14d6 00       		.byte	0
 5918 14d7 0F       		.uleb128 0xf
 5919 14d8 04       		.byte	0x4
 5920 14d9 D3080000 		.4byte	0x8d3
 5921 14dd 1F       		.uleb128 0x1f
 5922 14de CA260000 		.4byte	.LASF578
 5923 14e2 01       		.byte	0x1
 5924 14e3 A501     		.2byte	0x1a5
 5925 14e5 00000000 		.4byte	.LFB3
 5926 14e9 0E000000 		.4byte	.LFE3-.LFB3
 5927 14ed 01       		.uleb128 0x1
 5928 14ee 9C       		.byte	0x9c
 5929 14ef 03150000 		.4byte	0x1503
 5930 14f3 20       		.uleb128 0x20
 5931 14f4 73020000 		.4byte	.LASF579
 5932 14f8 01       		.byte	0x1
 5933 14f9 A501     		.2byte	0x1a5
 5934 14fb 03150000 		.4byte	0x1503
 5935 14ff 02       		.uleb128 0x2
 5936 1500 91       		.byte	0x91
 5937 1501 74       		.sleb128 -12
 5938 1502 00       		.byte	0
 5939 1503 0F       		.uleb128 0xf
 5940 1504 04       		.byte	0x4
 5941 1505 09150000 		.4byte	0x1509
 5942 1509 21       		.uleb128 0x21
 5943 150a A1070000 		.4byte	0x7a1
 5944 150e 1F       		.uleb128 0x1f
 5945 150f 15390000 		.4byte	.LASF580
ARM GAS  C:\Users\YBOURA~1\AppData\Local\Temp\cc3HigXd.s 			page 165


 5946 1513 01       		.byte	0x1
 5947 1514 1302     		.2byte	0x213
 5948 1516 00000000 		.4byte	.LFB4
 5949 151a 0E000000 		.4byte	.LFE4-.LFB4
 5950 151e 01       		.uleb128 0x1
 5951 151f 9C       		.byte	0x9c
 5952 1520 34150000 		.4byte	0x1534
 5953 1524 20       		.uleb128 0x20
 5954 1525 73020000 		.4byte	.LASF579
 5955 1529 01       		.byte	0x1
 5956 152a 1302     		.2byte	0x213
 5957 152c 03150000 		.4byte	0x1503
 5958 1530 02       		.uleb128 0x2
 5959 1531 91       		.byte	0x91
 5960 1532 74       		.sleb128 -12
 5961 1533 00       		.byte	0
 5962 1534 1F       		.uleb128 0x1f
 5963 1535 F6380000 		.4byte	.LASF581
 5964 1539 01       		.byte	0x1
 5965 153a C602     		.2byte	0x2c6
 5966 153c 00000000 		.4byte	.LFB5
 5967 1540 0E000000 		.4byte	.LFE5-.LFB5
 5968 1544 01       		.uleb128 0x1
 5969 1545 9C       		.byte	0x9c
 5970 1546 5A150000 		.4byte	0x155a
 5971 154a 20       		.uleb128 0x20
 5972 154b 73020000 		.4byte	.LASF579
 5973 154f 01       		.byte	0x1
 5974 1550 C602     		.2byte	0x2c6
 5975 1552 5A150000 		.4byte	0x155a
 5976 1556 02       		.uleb128 0x2
 5977 1557 91       		.byte	0x91
 5978 1558 74       		.sleb128 -12
 5979 1559 00       		.byte	0
 5980 155a 0F       		.uleb128 0xf
 5981 155b 04       		.byte	0x4
 5982 155c 7A090000 		.4byte	0x97a
 5983 1560 1F       		.uleb128 0x1f
 5984 1561 D31E0000 		.4byte	.LASF582
 5985 1565 01       		.byte	0x1
 5986 1566 4C03     		.2byte	0x34c
 5987 1568 00000000 		.4byte	.LFB6
 5988 156c 0E000000 		.4byte	.LFE6-.LFB6
 5989 1570 01       		.uleb128 0x1
 5990 1571 9C       		.byte	0x9c
 5991 1572 86150000 		.4byte	0x1586
 5992 1576 20       		.uleb128 0x20
 5993 1577 73020000 		.4byte	.LASF579
 5994 157b 01       		.byte	0x1
 5995 157c 4C03     		.2byte	0x34c
 5996 157e 86150000 		.4byte	0x1586
 5997 1582 02       		.uleb128 0x2
 5998 1583 91       		.byte	0x91
 5999 1584 74       		.sleb128 -12
 6000 1585 00       		.byte	0
 6001 1586 0F       		.uleb128 0xf
 6002 1587 04       		.byte	0x4
ARM GAS  C:\Users\YBOURA~1\AppData\Local\Temp\cc3HigXd.s 			page 166


 6003 1588 85090000 		.4byte	0x985
 6004 158c 22       		.uleb128 0x22
 6005 158d 020A0000 		.4byte	.LASF583
 6006 1591 01       		.byte	0x1
 6007 1592 AC03     		.2byte	0x3ac
 6008 1594 00000000 		.4byte	.LFB7
 6009 1598 0C010000 		.4byte	.LFE7-.LFB7
 6010 159c 01       		.uleb128 0x1
 6011 159d 9C       		.byte	0x9c
 6012 159e CB150000 		.4byte	0x15cb
 6013 15a2 20       		.uleb128 0x20
 6014 15a3 73020000 		.4byte	.LASF579
 6015 15a7 01       		.byte	0x1
 6016 15a8 AC03     		.2byte	0x3ac
 6017 15aa CB150000 		.4byte	0x15cb
 6018 15ae 02       		.uleb128 0x2
 6019 15af 91       		.byte	0x91
 6020 15b0 54       		.sleb128 -44
 6021 15b1 1D       		.uleb128 0x1d
 6022 15b2 18000000 		.4byte	.LBB3
 6023 15b6 D0000000 		.4byte	.LBE3-.LBB3
 6024 15ba 1E       		.uleb128 0x1e
 6025 15bb 85370000 		.4byte	.LASF584
 6026 15bf 01       		.byte	0x1
 6027 15c0 B303     		.2byte	0x3b3
 6028 15c2 D20A0000 		.4byte	0xad2
 6029 15c6 02       		.uleb128 0x2
 6030 15c7 91       		.byte	0x91
 6031 15c8 5C       		.sleb128 -36
 6032 15c9 00       		.byte	0
 6033 15ca 00       		.byte	0
 6034 15cb 0F       		.uleb128 0xf
 6035 15cc 04       		.byte	0x4
 6036 15cd 4E090000 		.4byte	0x94e
 6037 15d1 23       		.uleb128 0x23
 6038 15d2 8B230000 		.4byte	.LASF586
 6039 15d6 01       		.byte	0x1
 6040 15d7 8204     		.2byte	0x482
 6041 15d9 00000000 		.4byte	.LFB8
 6042 15dd 34000000 		.4byte	.LFE8-.LFB8
 6043 15e1 01       		.uleb128 0x1
 6044 15e2 9C       		.byte	0x9c
 6045 15e3 22       		.uleb128 0x22
 6046 15e4 89350000 		.4byte	.LASF585
 6047 15e8 01       		.byte	0x1
 6048 15e9 BA04     		.2byte	0x4ba
 6049 15eb 00000000 		.4byte	.LFB9
 6050 15ef A0000000 		.4byte	.LFE9-.LFB9
 6051 15f3 01       		.uleb128 0x1
 6052 15f4 9C       		.byte	0x9c
 6053 15f5 09160000 		.4byte	0x1609
 6054 15f9 20       		.uleb128 0x20
 6055 15fa 73020000 		.4byte	.LASF579
 6056 15fe 01       		.byte	0x1
 6057 15ff BA04     		.2byte	0x4ba
 6058 1601 09160000 		.4byte	0x1609
 6059 1605 02       		.uleb128 0x2
ARM GAS  C:\Users\YBOURA~1\AppData\Local\Temp\cc3HigXd.s 			page 167


 6060 1606 91       		.byte	0x91
 6061 1607 74       		.sleb128 -12
 6062 1608 00       		.byte	0
 6063 1609 0F       		.uleb128 0xf
 6064 160a 04       		.byte	0x4
 6065 160b 0F160000 		.4byte	0x160f
 6066 160f 21       		.uleb128 0x21
 6067 1610 F0030000 		.4byte	0x3f0
 6068 1614 23       		.uleb128 0x23
 6069 1615 DC220000 		.4byte	.LASF587
 6070 1619 01       		.byte	0x1
 6071 161a F204     		.2byte	0x4f2
 6072 161c 00000000 		.4byte	.LFB10
 6073 1620 08000000 		.4byte	.LFE10-.LFB10
 6074 1624 01       		.uleb128 0x1
 6075 1625 9C       		.byte	0x9c
 6076 1626 24       		.uleb128 0x24
 6077 1627 732B0000 		.4byte	.LASF609
 6078 162b 01       		.byte	0x1
 6079 162c 1E05     		.2byte	0x51e
 6080 162e 6B000000 		.4byte	0x6b
 6081 1632 00000000 		.4byte	.LFB11
 6082 1636 60000000 		.4byte	.LFE11-.LFB11
 6083 163a 01       		.uleb128 0x1
 6084 163b 9C       		.byte	0x9c
 6085 163c 6C160000 		.4byte	0x166c
 6086 1640 20       		.uleb128 0x20
 6087 1641 13240000 		.4byte	.LASF588
 6088 1645 01       		.byte	0x1
 6089 1646 1E05     		.2byte	0x51e
 6090 1648 6C160000 		.4byte	0x166c
 6091 164c 02       		.uleb128 0x2
 6092 164d 91       		.byte	0x91
 6093 164e 6C       		.sleb128 -20
 6094 164f 25       		.uleb128 0x25
 6095 1650 6900     		.ascii	"i\000"
 6096 1652 01       		.byte	0x1
 6097 1653 2005     		.2byte	0x520
 6098 1655 6B000000 		.4byte	0x6b
 6099 1659 02       		.uleb128 0x2
 6100 165a 91       		.byte	0x91
 6101 165b 77       		.sleb128 -9
 6102 165c 1E       		.uleb128 0x1e
 6103 165d D8310000 		.4byte	.LASF589
 6104 1661 01       		.byte	0x1
 6105 1662 2105     		.2byte	0x521
 6106 1664 6B000000 		.4byte	0x6b
 6107 1668 02       		.uleb128 0x2
 6108 1669 91       		.byte	0x91
 6109 166a 76       		.sleb128 -10
 6110 166b 00       		.byte	0
 6111 166c 0F       		.uleb128 0xf
 6112 166d 04       		.byte	0x4
 6113 166e 72160000 		.4byte	0x1672
 6114 1672 21       		.uleb128 0x21
 6115 1673 C3030000 		.4byte	0x3c3
 6116 1677 1F       		.uleb128 0x1f
ARM GAS  C:\Users\YBOURA~1\AppData\Local\Temp\cc3HigXd.s 			page 168


 6117 1678 8D3A0000 		.4byte	.LASF590
 6118 167c 01       		.byte	0x1
 6119 167d 4605     		.2byte	0x546
 6120 167f 00000000 		.4byte	.LFB12
 6121 1683 12000000 		.4byte	.LFE12-.LFB12
 6122 1687 01       		.uleb128 0x1
 6123 1688 9C       		.byte	0x9c
 6124 1689 9D160000 		.4byte	0x169d
 6125 168d 20       		.uleb128 0x20
 6126 168e E33E0000 		.4byte	.LASF591
 6127 1692 01       		.byte	0x1
 6128 1693 4605     		.2byte	0x546
 6129 1695 76000000 		.4byte	0x76
 6130 1699 02       		.uleb128 0x2
 6131 169a 91       		.byte	0x91
 6132 169b 76       		.sleb128 -10
 6133 169c 00       		.byte	0
 6134 169d 1F       		.uleb128 0x1f
 6135 169e 06190000 		.4byte	.LASF592
 6136 16a2 01       		.byte	0x1
 6137 16a3 6005     		.2byte	0x560
 6138 16a5 00000000 		.4byte	.LFB13
 6139 16a9 0E000000 		.4byte	.LFE13-.LFB13
 6140 16ad 01       		.uleb128 0x1
 6141 16ae 9C       		.byte	0x9c
 6142 16af C3160000 		.4byte	0x16c3
 6143 16b3 20       		.uleb128 0x20
 6144 16b4 73020000 		.4byte	.LASF579
 6145 16b8 01       		.byte	0x1
 6146 16b9 6005     		.2byte	0x560
 6147 16bb C3160000 		.4byte	0x16c3
 6148 16bf 02       		.uleb128 0x2
 6149 16c0 91       		.byte	0x91
 6150 16c1 74       		.sleb128 -12
 6151 16c2 00       		.byte	0
 6152 16c3 0F       		.uleb128 0xf
 6153 16c4 04       		.byte	0x4
 6154 16c5 C9160000 		.4byte	0x16c9
 6155 16c9 21       		.uleb128 0x21
 6156 16ca 44050000 		.4byte	0x544
 6157 16ce 26       		.uleb128 0x26
 6158 16cf 08100000 		.4byte	.LASF596
 6159 16d3 01       		.byte	0x1
 6160 16d4 7A05     		.2byte	0x57a
 6161 16d6 00000000 		.4byte	.LFB14
 6162 16da FC020000 		.4byte	.LFE14-.LFB14
 6163 16de 01       		.uleb128 0x1
 6164 16df 9C       		.byte	0x9c
 6165 16e0 39170000 		.4byte	0x1739
 6166 16e4 20       		.uleb128 0x20
 6167 16e5 40410000 		.4byte	.LASF593
 6168 16e9 01       		.byte	0x1
 6169 16ea 7A05     		.2byte	0x57a
 6170 16ec 6B000000 		.4byte	0x6b
 6171 16f0 02       		.uleb128 0x2
 6172 16f1 91       		.byte	0x91
 6173 16f2 6F       		.sleb128 -17
ARM GAS  C:\Users\YBOURA~1\AppData\Local\Temp\cc3HigXd.s 			page 169


 6174 16f3 20       		.uleb128 0x20
 6175 16f4 73020000 		.4byte	.LASF579
 6176 16f8 01       		.byte	0x1
 6177 16f9 7A05     		.2byte	0x57a
 6178 16fb AD000000 		.4byte	0xad
 6179 16ff 02       		.uleb128 0x2
 6180 1700 91       		.byte	0x91
 6181 1701 68       		.sleb128 -24
 6182 1702 27       		.uleb128 0x27
 6183 1703 32000000 		.4byte	.LBB4
 6184 1707 34000000 		.4byte	.LBE4-.LBB4
 6185 170b 1F170000 		.4byte	0x171f
 6186 170f 1E       		.uleb128 0x1e
 6187 1710 4C320000 		.4byte	.LASF594
 6188 1714 01       		.byte	0x1
 6189 1715 8705     		.2byte	0x587
 6190 1717 83030000 		.4byte	0x383
 6191 171b 02       		.uleb128 0x2
 6192 171c 91       		.byte	0x91
 6193 171d 74       		.sleb128 -12
 6194 171e 00       		.byte	0
 6195 171f 1D       		.uleb128 0x1d
 6196 1720 CA010000 		.4byte	.LBB5
 6197 1724 38000000 		.4byte	.LBE5-.LBB5
 6198 1728 1E       		.uleb128 0x1e
 6199 1729 94210000 		.4byte	.LASF595
 6200 172d 01       		.byte	0x1
 6201 172e 5D06     		.2byte	0x65d
 6202 1730 76000000 		.4byte	0x76
 6203 1734 02       		.uleb128 0x2
 6204 1735 91       		.byte	0x91
 6205 1736 76       		.sleb128 -10
 6206 1737 00       		.byte	0
 6207 1738 00       		.byte	0
 6208 1739 26       		.uleb128 0x26
 6209 173a 7E1A0000 		.4byte	.LASF597
 6210 173e 01       		.byte	0x1
 6211 173f 3907     		.2byte	0x739
 6212 1741 00000000 		.4byte	.LFB15
 6213 1745 C8010000 		.4byte	.LFE15-.LFB15
 6214 1749 01       		.uleb128 0x1
 6215 174a 9C       		.byte	0x9c
 6216 174b B5170000 		.4byte	0x17b5
 6217 174f 20       		.uleb128 0x20
 6218 1750 73020000 		.4byte	.LASF579
 6219 1754 01       		.byte	0x1
 6220 1755 3907     		.2byte	0x739
 6221 1757 B5170000 		.4byte	0x17b5
 6222 175b 02       		.uleb128 0x2
 6223 175c 91       		.byte	0x91
 6224 175d 64       		.sleb128 -28
 6225 175e 25       		.uleb128 0x25
 6226 175f 6A00     		.ascii	"j\000"
 6227 1761 01       		.byte	0x1
 6228 1762 3B07     		.2byte	0x73b
 6229 1764 76000000 		.4byte	0x76
 6230 1768 02       		.uleb128 0x2
ARM GAS  C:\Users\YBOURA~1\AppData\Local\Temp\cc3HigXd.s 			page 170


 6231 1769 91       		.byte	0x91
 6232 176a 76       		.sleb128 -10
 6233 176b 1E       		.uleb128 0x1e
 6234 176c 16440000 		.4byte	.LASF598
 6235 1770 01       		.byte	0x1
 6236 1771 3C07     		.2byte	0x73c
 6237 1773 76000000 		.4byte	0x76
 6238 1777 02       		.uleb128 0x2
 6239 1778 91       		.byte	0x91
 6240 1779 6C       		.sleb128 -20
 6241 177a 1E       		.uleb128 0x1e
 6242 177b 6E370000 		.4byte	.LASF599
 6243 177f 01       		.byte	0x1
 6244 1780 3D07     		.2byte	0x73d
 6245 1782 76000000 		.4byte	0x76
 6246 1786 02       		.uleb128 0x2
 6247 1787 91       		.byte	0x91
 6248 1788 6A       		.sleb128 -22
 6249 1789 25       		.uleb128 0x25
 6250 178a 6900     		.ascii	"i\000"
 6251 178c 01       		.byte	0x1
 6252 178d 3E07     		.2byte	0x73e
 6253 178f 76000000 		.4byte	0x76
 6254 1793 02       		.uleb128 0x2
 6255 1794 91       		.byte	0x91
 6256 1795 74       		.sleb128 -12
 6257 1796 1E       		.uleb128 0x1e
 6258 1797 85370000 		.4byte	.LASF584
 6259 179b 01       		.byte	0x1
 6260 179c 3F07     		.2byte	0x73f
 6261 179e BB170000 		.4byte	0x17bb
 6262 17a2 02       		.uleb128 0x2
 6263 17a3 91       		.byte	0x91
 6264 17a4 70       		.sleb128 -16
 6265 17a5 1E       		.uleb128 0x1e
 6266 17a6 C4290000 		.4byte	.LASF600
 6267 17aa 01       		.byte	0x1
 6268 17ab 4007     		.2byte	0x740
 6269 17ad 6B000000 		.4byte	0x6b
 6270 17b1 02       		.uleb128 0x2
 6271 17b2 91       		.byte	0x91
 6272 17b3 6F       		.sleb128 -17
 6273 17b4 00       		.byte	0
 6274 17b5 0F       		.uleb128 0xf
 6275 17b6 04       		.byte	0x4
 6276 17b7 E9090000 		.4byte	0x9e9
 6277 17bb 0F       		.uleb128 0xf
 6278 17bc 04       		.byte	0x4
 6279 17bd D20A0000 		.4byte	0xad2
 6280 17c1 26       		.uleb128 0x26
 6281 17c2 242A0000 		.4byte	.LASF601
 6282 17c6 01       		.byte	0x1
 6283 17c7 9507     		.2byte	0x795
 6284 17c9 00000000 		.4byte	.LFB16
 6285 17cd E4000000 		.4byte	.LFE16-.LFB16
 6286 17d1 01       		.uleb128 0x1
 6287 17d2 9C       		.byte	0x9c
ARM GAS  C:\Users\YBOURA~1\AppData\Local\Temp\cc3HigXd.s 			page 171


 6288 17d3 E7170000 		.4byte	0x17e7
 6289 17d7 20       		.uleb128 0x20
 6290 17d8 520E0000 		.4byte	.LASF602
 6291 17dc 01       		.byte	0x1
 6292 17dd 9507     		.2byte	0x795
 6293 17df 6B000000 		.4byte	0x6b
 6294 17e3 02       		.uleb128 0x2
 6295 17e4 91       		.byte	0x91
 6296 17e5 77       		.sleb128 -9
 6297 17e6 00       		.byte	0
 6298 17e7 22       		.uleb128 0x22
 6299 17e8 441B0000 		.4byte	.LASF603
 6300 17ec 01       		.byte	0x1
 6301 17ed CA07     		.2byte	0x7ca
 6302 17ef 00000000 		.4byte	.LFB17
 6303 17f3 EC000000 		.4byte	.LFE17-.LFB17
 6304 17f7 01       		.uleb128 0x1
 6305 17f8 9C       		.byte	0x9c
 6306 17f9 0D180000 		.4byte	0x180d
 6307 17fd 20       		.uleb128 0x20
 6308 17fe 7A210000 		.4byte	.LASF604
 6309 1802 01       		.byte	0x1
 6310 1803 CA07     		.2byte	0x7ca
 6311 1805 0D180000 		.4byte	0x180d
 6312 1809 02       		.uleb128 0x2
 6313 180a 91       		.byte	0x91
 6314 180b 74       		.sleb128 -12
 6315 180c 00       		.byte	0
 6316 180d 0F       		.uleb128 0xf
 6317 180e 04       		.byte	0x4
 6318 180f 660B0000 		.4byte	0xb66
 6319 1813 26       		.uleb128 0x26
 6320 1814 9C1A0000 		.4byte	.LASF605
 6321 1818 01       		.byte	0x1
 6322 1819 F407     		.2byte	0x7f4
 6323 181b 00000000 		.4byte	.LFB18
 6324 181f 18040000 		.4byte	.LFE18-.LFB18
 6325 1823 01       		.uleb128 0x1
 6326 1824 9C       		.byte	0x9c
 6327 1825 B8180000 		.4byte	0x18b8
 6328 1829 20       		.uleb128 0x20
 6329 182a 73020000 		.4byte	.LASF579
 6330 182e 01       		.byte	0x1
 6331 182f F407     		.2byte	0x7f4
 6332 1831 B8180000 		.4byte	0x18b8
 6333 1835 03       		.uleb128 0x3
 6334 1836 91       		.byte	0x91
 6335 1837 AC7F     		.sleb128 -84
 6336 1839 1E       		.uleb128 0x1e
 6337 183a 16440000 		.4byte	.LASF598
 6338 183e 01       		.byte	0x1
 6339 183f F607     		.2byte	0x7f6
 6340 1841 76000000 		.4byte	0x76
 6341 1845 02       		.uleb128 0x2
 6342 1846 91       		.byte	0x91
 6343 1847 66       		.sleb128 -26
 6344 1848 1E       		.uleb128 0x1e
ARM GAS  C:\Users\YBOURA~1\AppData\Local\Temp\cc3HigXd.s 			page 172


 6345 1849 6E370000 		.4byte	.LASF599
 6346 184d 01       		.byte	0x1
 6347 184e F707     		.2byte	0x7f7
 6348 1850 76000000 		.4byte	0x76
 6349 1854 02       		.uleb128 0x2
 6350 1855 91       		.byte	0x91
 6351 1856 64       		.sleb128 -28
 6352 1857 25       		.uleb128 0x25
 6353 1858 6900     		.ascii	"i\000"
 6354 185a 01       		.byte	0x1
 6355 185b F807     		.2byte	0x7f8
 6356 185d 76000000 		.4byte	0x76
 6357 1861 02       		.uleb128 0x2
 6358 1862 91       		.byte	0x91
 6359 1863 6E       		.sleb128 -18
 6360 1864 25       		.uleb128 0x25
 6361 1865 6A00     		.ascii	"j\000"
 6362 1867 01       		.byte	0x1
 6363 1868 F807     		.2byte	0x7f8
 6364 186a 76000000 		.4byte	0x76
 6365 186e 02       		.uleb128 0x2
 6366 186f 91       		.byte	0x91
 6367 1870 6C       		.sleb128 -20
 6368 1871 1E       		.uleb128 0x1e
 6369 1872 FC390000 		.4byte	.LASF606
 6370 1876 01       		.byte	0x1
 6371 1877 F907     		.2byte	0x7f9
 6372 1879 00050000 		.4byte	0x500
 6373 187d 02       		.uleb128 0x2
 6374 187e 91       		.byte	0x91
 6375 187f 68       		.sleb128 -24
 6376 1880 27       		.uleb128 0x27
 6377 1881 3C000000 		.4byte	.LBB6
 6378 1885 A8010000 		.4byte	.LBE6-.LBB6
 6379 1889 9D180000 		.4byte	0x189d
 6380 188d 1E       		.uleb128 0x1e
 6381 188e 7A210000 		.4byte	.LASF604
 6382 1892 01       		.byte	0x1
 6383 1893 0408     		.2byte	0x804
 6384 1895 660B0000 		.4byte	0xb66
 6385 1899 02       		.uleb128 0x2
 6386 189a 91       		.byte	0x91
 6387 189b 4C       		.sleb128 -52
 6388 189c 00       		.byte	0
 6389 189d 1D       		.uleb128 0x1d
 6390 189e F0010000 		.4byte	.LBB7
 6391 18a2 0E020000 		.4byte	.LBE7-.LBB7
 6392 18a6 1E       		.uleb128 0x1e
 6393 18a7 3C200000 		.4byte	.LASF607
 6394 18ab 01       		.byte	0x1
 6395 18ac DE08     		.2byte	0x8de
 6396 18ae 160B0000 		.4byte	0xb16
 6397 18b2 03       		.uleb128 0x3
 6398 18b3 91       		.byte	0x91
 6399 18b4 B47F     		.sleb128 -76
 6400 18b6 00       		.byte	0
 6401 18b7 00       		.byte	0
ARM GAS  C:\Users\YBOURA~1\AppData\Local\Temp\cc3HigXd.s 			page 173


 6402 18b8 0F       		.uleb128 0xf
 6403 18b9 04       		.byte	0x4
 6404 18ba F4090000 		.4byte	0x9f4
 6405 18be 26       		.uleb128 0x26
 6406 18bf E4390000 		.4byte	.LASF608
 6407 18c3 01       		.byte	0x1
 6408 18c4 4C09     		.2byte	0x94c
 6409 18c6 00000000 		.4byte	.LFB19
 6410 18ca E8000000 		.4byte	.LFE19-.LFB19
 6411 18ce 01       		.uleb128 0x1
 6412 18cf 9C       		.byte	0x9c
 6413 18d0 E4180000 		.4byte	0x18e4
 6414 18d4 20       		.uleb128 0x20
 6415 18d5 520E0000 		.4byte	.LASF602
 6416 18d9 01       		.byte	0x1
 6417 18da 4C09     		.2byte	0x94c
 6418 18dc 6B000000 		.4byte	0x6b
 6419 18e0 02       		.uleb128 0x2
 6420 18e1 91       		.byte	0x91
 6421 18e2 77       		.sleb128 -9
 6422 18e3 00       		.byte	0
 6423 18e4 24       		.uleb128 0x24
 6424 18e5 81120000 		.4byte	.LASF610
 6425 18e9 01       		.byte	0x1
 6426 18ea 8109     		.2byte	0x981
 6427 18ec 3E080000 		.4byte	0x83e
 6428 18f0 00000000 		.4byte	.LFB20
 6429 18f4 64000000 		.4byte	.LFE20-.LFB20
 6430 18f8 01       		.uleb128 0x1
 6431 18f9 9C       		.byte	0x9c
 6432 18fa 0E190000 		.4byte	0x190e
 6433 18fe 1E       		.uleb128 0x1e
 6434 18ff 910A0000 		.4byte	.LASF611
 6435 1903 01       		.byte	0x1
 6436 1904 8309     		.2byte	0x983
 6437 1906 3E080000 		.4byte	0x83e
 6438 190a 02       		.uleb128 0x2
 6439 190b 91       		.byte	0x91
 6440 190c 70       		.sleb128 -16
 6441 190d 00       		.byte	0
 6442 190e 26       		.uleb128 0x26
 6443 190f 51220000 		.4byte	.LASF612
 6444 1913 01       		.byte	0x1
 6445 1914 D50A     		.2byte	0xad5
 6446 1916 00000000 		.4byte	.LFB21
 6447 191a 5C010000 		.4byte	.LFE21-.LFB21
 6448 191e 01       		.uleb128 0x1
 6449 191f 9C       		.byte	0x9c
 6450 1920 7D190000 		.4byte	0x197d
 6451 1924 20       		.uleb128 0x20
 6452 1925 73020000 		.4byte	.LASF579
 6453 1929 01       		.byte	0x1
 6454 192a D50A     		.2byte	0xad5
 6455 192c 7D190000 		.4byte	0x197d
 6456 1930 02       		.uleb128 0x2
 6457 1931 91       		.byte	0x91
 6458 1932 54       		.sleb128 -44
ARM GAS  C:\Users\YBOURA~1\AppData\Local\Temp\cc3HigXd.s 			page 174


 6459 1933 1E       		.uleb128 0x1e
 6460 1934 16440000 		.4byte	.LASF598
 6461 1938 01       		.byte	0x1
 6462 1939 D70A     		.2byte	0xad7
 6463 193b 76000000 		.4byte	0x76
 6464 193f 02       		.uleb128 0x2
 6465 1940 91       		.byte	0x91
 6466 1941 76       		.sleb128 -10
 6467 1942 1E       		.uleb128 0x1e
 6468 1943 6E370000 		.4byte	.LASF599
 6469 1947 01       		.byte	0x1
 6470 1948 D80A     		.2byte	0xad8
 6471 194a 76000000 		.4byte	0x76
 6472 194e 02       		.uleb128 0x2
 6473 194f 91       		.byte	0x91
 6474 1950 6E       		.sleb128 -18
 6475 1951 25       		.uleb128 0x25
 6476 1952 6900     		.ascii	"i\000"
 6477 1954 01       		.byte	0x1
 6478 1955 D90A     		.2byte	0xad9
 6479 1957 76000000 		.4byte	0x76
 6480 195b 02       		.uleb128 0x2
 6481 195c 91       		.byte	0x91
 6482 195d 74       		.sleb128 -12
 6483 195e 1E       		.uleb128 0x1e
 6484 195f FC390000 		.4byte	.LASF606
 6485 1963 01       		.byte	0x1
 6486 1964 DA0A     		.2byte	0xada
 6487 1966 00050000 		.4byte	0x500
 6488 196a 02       		.uleb128 0x2
 6489 196b 91       		.byte	0x91
 6490 196c 70       		.sleb128 -16
 6491 196d 1E       		.uleb128 0x1e
 6492 196e 4E0D0000 		.4byte	.LASF613
 6493 1972 01       		.byte	0x1
 6494 1973 DD0A     		.2byte	0xadd
 6495 1975 D60B0000 		.4byte	0xbd6
 6496 1979 02       		.uleb128 0x2
 6497 197a 91       		.byte	0x91
 6498 197b 58       		.sleb128 -40
 6499 197c 00       		.byte	0
 6500 197d 0F       		.uleb128 0xf
 6501 197e 04       		.byte	0x4
 6502 197f 580A0000 		.4byte	0xa58
 6503 1983 26       		.uleb128 0x26
 6504 1984 B2420000 		.4byte	.LASF614
 6505 1988 01       		.byte	0x1
 6506 1989 FC0B     		.2byte	0xbfc
 6507 198b 00000000 		.4byte	.LFB22
 6508 198f 40010000 		.4byte	.LFE22-.LFB22
 6509 1993 01       		.uleb128 0x1
 6510 1994 9C       		.byte	0x9c
 6511 1995 B8190000 		.4byte	0x19b8
 6512 1999 20       		.uleb128 0x20
 6513 199a 520E0000 		.4byte	.LASF602
 6514 199e 01       		.byte	0x1
 6515 199f FC0B     		.2byte	0xbfc
ARM GAS  C:\Users\YBOURA~1\AppData\Local\Temp\cc3HigXd.s 			page 175


 6516 19a1 6B000000 		.4byte	0x6b
 6517 19a5 02       		.uleb128 0x2
 6518 19a6 91       		.byte	0x91
 6519 19a7 6F       		.sleb128 -17
 6520 19a8 1E       		.uleb128 0x1e
 6521 19a9 910A0000 		.4byte	.LASF611
 6522 19ad 01       		.byte	0x1
 6523 19ae FE0B     		.2byte	0xbfe
 6524 19b0 22090000 		.4byte	0x922
 6525 19b4 02       		.uleb128 0x2
 6526 19b5 91       		.byte	0x91
 6527 19b6 74       		.sleb128 -12
 6528 19b7 00       		.byte	0
 6529 19b8 26       		.uleb128 0x26
 6530 19b9 1D330000 		.4byte	.LASF615
 6531 19bd 01       		.byte	0x1
 6532 19be 590C     		.2byte	0xc59
 6533 19c0 00000000 		.4byte	.LFB23
 6534 19c4 AC000000 		.4byte	.LFE23-.LFB23
 6535 19c8 01       		.uleb128 0x1
 6536 19c9 9C       		.byte	0x9c
 6537 19ca DE190000 		.4byte	0x19de
 6538 19ce 20       		.uleb128 0x20
 6539 19cf 73020000 		.4byte	.LASF579
 6540 19d3 01       		.byte	0x1
 6541 19d4 590C     		.2byte	0xc59
 6542 19d6 DE190000 		.4byte	0x19de
 6543 19da 02       		.uleb128 0x2
 6544 19db 91       		.byte	0x91
 6545 19dc 74       		.sleb128 -12
 6546 19dd 00       		.byte	0
 6547 19de 0F       		.uleb128 0xf
 6548 19df 04       		.byte	0x4
 6549 19e0 E4190000 		.4byte	0x19e4
 6550 19e4 21       		.uleb128 0x21
 6551 19e5 17090000 		.4byte	0x917
 6552 19e9 1C       		.uleb128 0x1c
 6553 19ea CE420000 		.4byte	.LASF616
 6554 19ee 01       		.byte	0x1
 6555 19ef 55       		.byte	0x55
 6556 19f0 71070000 		.4byte	0x771
 6557 19f4 05       		.uleb128 0x5
 6558 19f5 03       		.byte	0x3
 6559 19f6 00000000 		.4byte	cyBle_charEndHandle
 6560 19fa 1C       		.uleb128 0x1c
 6561 19fb EF0C0000 		.4byte	.LASF617
 6562 19ff 01       		.byte	0x1
 6563 1a00 59       		.byte	0x59
 6564 1a01 160B0000 		.4byte	0xb16
 6565 1a05 05       		.uleb128 0x5
 6566 1a06 03       		.byte	0x3
 6567 1a07 04000000 		.4byte	cyBle_discInclInfo
 6568 1a0b 28       		.uleb128 0x28
 6569 1a0c 54330000 		.4byte	.LASF618
 6570 1a10 09       		.byte	0x9
 6571 1a11 C701     		.2byte	0x1c7
 6572 1a13 630A0000 		.4byte	0xa63
ARM GAS  C:\Users\YBOURA~1\AppData\Local\Temp\cc3HigXd.s 			page 176


 6573 1a17 29       		.uleb128 0x29
 6574 1a18 2F150000 		.4byte	.LASF619
 6575 1a1c 01       		.byte	0x1
 6576 1a1d 42       		.byte	0x42
 6577 1a1e A1000000 		.4byte	0xa1
 6578 1a22 05       		.uleb128 0x5
 6579 1a23 03       		.byte	0x3
 6580 1a24 00000000 		.4byte	cyBle_eventHandlerFlag
 6581 1a28 28       		.uleb128 0x28
 6582 1a29 250D0000 		.4byte	.LASF620
 6583 1a2d 09       		.byte	0x9
 6584 1a2e CF01     		.2byte	0x1cf
 6585 1a30 C3030000 		.4byte	0x3c3
 6586 1a34 28       		.uleb128 0x28
 6587 1a35 D3190000 		.4byte	.LASF621
 6588 1a39 09       		.byte	0x9
 6589 1a3a D001     		.2byte	0x1d0
 6590 1a3c 401A0000 		.4byte	0x1a40
 6591 1a40 0F       		.uleb128 0xf
 6592 1a41 04       		.byte	0x4
 6593 1a42 C3030000 		.4byte	0x3c3
 6594 1a46 29       		.uleb128 0x29
 6595 1a47 503A0000 		.4byte	.LASF622
 6596 1a4b 01       		.byte	0x1
 6597 1a4c CD       		.byte	0xcd
 6598 1a4d E4040000 		.4byte	0x4e4
 6599 1a51 05       		.uleb128 0x5
 6600 1a52 03       		.byte	0x3
 6601 1a53 00000000 		.4byte	cyBle_authInfo
 6602 1a57 0D       		.uleb128 0xd
 6603 1a58 6B000000 		.4byte	0x6b
 6604 1a5c 671A0000 		.4byte	0x1a67
 6605 1a60 0E       		.uleb128 0xe
 6606 1a61 A6000000 		.4byte	0xa6
 6607 1a65 01       		.byte	0x1
 6608 1a66 00       		.byte	0
 6609 1a67 2A       		.uleb128 0x2a
 6610 1a68 45400000 		.4byte	.LASF623
 6611 1a6c 0A       		.byte	0xa
 6612 1a6d E3       		.byte	0xe3
 6613 1a6e 571A0000 		.4byte	0x1a57
 6614 1a72 2A       		.uleb128 0x2a
 6615 1a73 18230000 		.4byte	.LASF624
 6616 1a77 0A       		.byte	0xa
 6617 1a78 EA       		.byte	0xea
 6618 1a79 7D1A0000 		.4byte	0x1a7d
 6619 1a7d 21       		.uleb128 0x21
 6620 1a7e 710C0000 		.4byte	0xc71
 6621 1a82 2A       		.uleb128 0x2a
 6622 1a83 270E0000 		.4byte	.LASF625
 6623 1a87 0A       		.byte	0xa
 6624 1a88 EF       		.byte	0xef
 6625 1a89 020C0000 		.4byte	0xc02
 6626 1a8d 28       		.uleb128 0x28
 6627 1a8e 79370000 		.4byte	.LASF626
 6628 1a92 0B       		.byte	0xb
 6629 1a93 2C09     		.2byte	0x92c
ARM GAS  C:\Users\YBOURA~1\AppData\Local\Temp\cc3HigXd.s 			page 177


 6630 1a95 99130000 		.4byte	0x1399
 6631 1a99 29       		.uleb128 0x29
 6632 1a9a 4D3D0000 		.4byte	.LASF627
 6633 1a9e 01       		.byte	0x1
 6634 1a9f 40       		.byte	0x40
 6635 1aa0 A1070000 		.4byte	0x7a1
 6636 1aa4 05       		.uleb128 0x5
 6637 1aa5 03       		.byte	0x3
 6638 1aa6 00000000 		.4byte	cyBle_connHandle
 6639 1aaa 29       		.uleb128 0x29
 6640 1aab 34400000 		.4byte	.LASF628
 6641 1aaf 01       		.byte	0x1
 6642 1ab0 43       		.byte	0x43
 6643 1ab1 A1000000 		.4byte	0xa1
 6644 1ab5 05       		.uleb128 0x5
 6645 1ab6 03       		.byte	0x3
 6646 1ab7 00000000 		.4byte	cyBle_busyStatus
 6647 1abb 29       		.uleb128 0x29
 6648 1abc 17080000 		.4byte	.LASF629
 6649 1ac0 01       		.byte	0x1
 6650 1ac1 4A       		.byte	0x4a
 6651 1ac2 6B000000 		.4byte	0x6b
 6652 1ac6 05       		.uleb128 0x5
 6653 1ac7 03       		.byte	0x3
 6654 1ac8 00000000 		.4byte	cyBle_scanningIntervalType
 6655 1acc 28       		.uleb128 0x28
 6656 1acd 27240000 		.4byte	.LASF630
 6657 1ad1 0B       		.byte	0xb
 6658 1ad2 3F09     		.2byte	0x93f
 6659 1ad4 E5130000 		.4byte	0x13e5
 6660 1ad8 29       		.uleb128 0x29
 6661 1ad9 62090000 		.4byte	.LASF631
 6662 1add 01       		.byte	0x1
 6663 1ade 54       		.byte	0x54
 6664 1adf 6B000000 		.4byte	0x6b
 6665 1ae3 05       		.uleb128 0x5
 6666 1ae4 03       		.byte	0x3
 6667 1ae5 00000000 		.4byte	cyBle_disCount
 6668 1ae9 29       		.uleb128 0x29
 6669 1aea CB160000 		.4byte	.LASF632
 6670 1aee 01       		.byte	0x1
 6671 1aef C8       		.byte	0xc8
 6672 1af0 3C140000 		.4byte	0x143c
 6673 1af4 05       		.uleb128 0x5
 6674 1af5 03       		.byte	0x3
 6675 1af6 00000000 		.4byte	cyBle_gapc
 6676 1afa 0D       		.uleb128 0xd
 6677 1afb A60A0000 		.4byte	0xaa6
 6678 1aff 0A1B0000 		.4byte	0x1b0a
 6679 1b03 0E       		.uleb128 0xe
 6680 1b04 A6000000 		.4byte	0xa6
 6681 1b08 02       		.byte	0x2
 6682 1b09 00       		.byte	0
 6683 1b0a 29       		.uleb128 0x29
 6684 1b0b 302B0000 		.4byte	.LASF633
 6685 1b0f 01       		.byte	0x1
 6686 1b10 5E       		.byte	0x5e
ARM GAS  C:\Users\YBOURA~1\AppData\Local\Temp\cc3HigXd.s 			page 178


 6687 1b11 FA1A0000 		.4byte	0x1afa
 6688 1b15 05       		.uleb128 0x5
 6689 1b16 03       		.byte	0x3
 6690 1b17 00000000 		.4byte	cyBle_serverInfo
 6691 1b1b 00       		.byte	0
 6692              		.section	.debug_abbrev,"",%progbits
 6693              	.Ldebug_abbrev0:
 6694 0000 01       		.uleb128 0x1
 6695 0001 11       		.uleb128 0x11
 6696 0002 01       		.byte	0x1
 6697 0003 25       		.uleb128 0x25
 6698 0004 0E       		.uleb128 0xe
 6699 0005 13       		.uleb128 0x13
 6700 0006 0B       		.uleb128 0xb
 6701 0007 03       		.uleb128 0x3
 6702 0008 0E       		.uleb128 0xe
 6703 0009 1B       		.uleb128 0x1b
 6704 000a 0E       		.uleb128 0xe
 6705 000b 55       		.uleb128 0x55
 6706 000c 17       		.uleb128 0x17
 6707 000d 11       		.uleb128 0x11
 6708 000e 01       		.uleb128 0x1
 6709 000f 10       		.uleb128 0x10
 6710 0010 17       		.uleb128 0x17
 6711 0011 00       		.byte	0
 6712 0012 00       		.byte	0
 6713 0013 02       		.uleb128 0x2
 6714 0014 24       		.uleb128 0x24
 6715 0015 00       		.byte	0
 6716 0016 0B       		.uleb128 0xb
 6717 0017 0B       		.uleb128 0xb
 6718 0018 3E       		.uleb128 0x3e
 6719 0019 0B       		.uleb128 0xb
 6720 001a 03       		.uleb128 0x3
 6721 001b 0E       		.uleb128 0xe
 6722 001c 00       		.byte	0
 6723 001d 00       		.byte	0
 6724 001e 03       		.uleb128 0x3
 6725 001f 24       		.uleb128 0x24
 6726 0020 00       		.byte	0
 6727 0021 0B       		.uleb128 0xb
 6728 0022 0B       		.uleb128 0xb
 6729 0023 3E       		.uleb128 0x3e
 6730 0024 0B       		.uleb128 0xb
 6731 0025 03       		.uleb128 0x3
 6732 0026 08       		.uleb128 0x8
 6733 0027 00       		.byte	0
 6734 0028 00       		.byte	0
 6735 0029 04       		.uleb128 0x4
 6736 002a 16       		.uleb128 0x16
 6737 002b 00       		.byte	0
 6738 002c 03       		.uleb128 0x3
 6739 002d 0E       		.uleb128 0xe
 6740 002e 3A       		.uleb128 0x3a
 6741 002f 0B       		.uleb128 0xb
 6742 0030 3B       		.uleb128 0x3b
 6743 0031 0B       		.uleb128 0xb
ARM GAS  C:\Users\YBOURA~1\AppData\Local\Temp\cc3HigXd.s 			page 179


 6744 0032 49       		.uleb128 0x49
 6745 0033 13       		.uleb128 0x13
 6746 0034 00       		.byte	0
 6747 0035 00       		.byte	0
 6748 0036 05       		.uleb128 0x5
 6749 0037 35       		.uleb128 0x35
 6750 0038 00       		.byte	0
 6751 0039 49       		.uleb128 0x49
 6752 003a 13       		.uleb128 0x13
 6753 003b 00       		.byte	0
 6754 003c 00       		.byte	0
 6755 003d 06       		.uleb128 0x6
 6756 003e 0F       		.uleb128 0xf
 6757 003f 00       		.byte	0
 6758 0040 0B       		.uleb128 0xb
 6759 0041 0B       		.uleb128 0xb
 6760 0042 00       		.byte	0
 6761 0043 00       		.byte	0
 6762 0044 07       		.uleb128 0x7
 6763 0045 04       		.uleb128 0x4
 6764 0046 01       		.byte	0x1
 6765 0047 0B       		.uleb128 0xb
 6766 0048 0B       		.uleb128 0xb
 6767 0049 3A       		.uleb128 0x3a
 6768 004a 0B       		.uleb128 0xb
 6769 004b 3B       		.uleb128 0x3b
 6770 004c 0B       		.uleb128 0xb
 6771 004d 01       		.uleb128 0x1
 6772 004e 13       		.uleb128 0x13
 6773 004f 00       		.byte	0
 6774 0050 00       		.byte	0
 6775 0051 08       		.uleb128 0x8
 6776 0052 28       		.uleb128 0x28
 6777 0053 00       		.byte	0
 6778 0054 03       		.uleb128 0x3
 6779 0055 0E       		.uleb128 0xe
 6780 0056 1C       		.uleb128 0x1c
 6781 0057 0D       		.uleb128 0xd
 6782 0058 00       		.byte	0
 6783 0059 00       		.byte	0
 6784 005a 09       		.uleb128 0x9
 6785 005b 04       		.uleb128 0x4
 6786 005c 01       		.byte	0x1
 6787 005d 0B       		.uleb128 0xb
 6788 005e 0B       		.uleb128 0xb
 6789 005f 3A       		.uleb128 0x3a
 6790 0060 0B       		.uleb128 0xb
 6791 0061 3B       		.uleb128 0x3b
 6792 0062 05       		.uleb128 0x5
 6793 0063 01       		.uleb128 0x1
 6794 0064 13       		.uleb128 0x13
 6795 0065 00       		.byte	0
 6796 0066 00       		.byte	0
 6797 0067 0A       		.uleb128 0xa
 6798 0068 16       		.uleb128 0x16
 6799 0069 00       		.byte	0
 6800 006a 03       		.uleb128 0x3
ARM GAS  C:\Users\YBOURA~1\AppData\Local\Temp\cc3HigXd.s 			page 180


 6801 006b 0E       		.uleb128 0xe
 6802 006c 3A       		.uleb128 0x3a
 6803 006d 0B       		.uleb128 0xb
 6804 006e 3B       		.uleb128 0x3b
 6805 006f 05       		.uleb128 0x5
 6806 0070 49       		.uleb128 0x49
 6807 0071 13       		.uleb128 0x13
 6808 0072 00       		.byte	0
 6809 0073 00       		.byte	0
 6810 0074 0B       		.uleb128 0xb
 6811 0075 13       		.uleb128 0x13
 6812 0076 01       		.byte	0x1
 6813 0077 0B       		.uleb128 0xb
 6814 0078 0B       		.uleb128 0xb
 6815 0079 3A       		.uleb128 0x3a
 6816 007a 0B       		.uleb128 0xb
 6817 007b 3B       		.uleb128 0x3b
 6818 007c 05       		.uleb128 0x5
 6819 007d 01       		.uleb128 0x1
 6820 007e 13       		.uleb128 0x13
 6821 007f 00       		.byte	0
 6822 0080 00       		.byte	0
 6823 0081 0C       		.uleb128 0xc
 6824 0082 0D       		.uleb128 0xd
 6825 0083 00       		.byte	0
 6826 0084 03       		.uleb128 0x3
 6827 0085 0E       		.uleb128 0xe
 6828 0086 3A       		.uleb128 0x3a
 6829 0087 0B       		.uleb128 0xb
 6830 0088 3B       		.uleb128 0x3b
 6831 0089 05       		.uleb128 0x5
 6832 008a 49       		.uleb128 0x49
 6833 008b 13       		.uleb128 0x13
 6834 008c 38       		.uleb128 0x38
 6835 008d 0B       		.uleb128 0xb
 6836 008e 00       		.byte	0
 6837 008f 00       		.byte	0
 6838 0090 0D       		.uleb128 0xd
 6839 0091 01       		.uleb128 0x1
 6840 0092 01       		.byte	0x1
 6841 0093 49       		.uleb128 0x49
 6842 0094 13       		.uleb128 0x13
 6843 0095 01       		.uleb128 0x1
 6844 0096 13       		.uleb128 0x13
 6845 0097 00       		.byte	0
 6846 0098 00       		.byte	0
 6847 0099 0E       		.uleb128 0xe
 6848 009a 21       		.uleb128 0x21
 6849 009b 00       		.byte	0
 6850 009c 49       		.uleb128 0x49
 6851 009d 13       		.uleb128 0x13
 6852 009e 2F       		.uleb128 0x2f
 6853 009f 0B       		.uleb128 0xb
 6854 00a0 00       		.byte	0
 6855 00a1 00       		.byte	0
 6856 00a2 0F       		.uleb128 0xf
 6857 00a3 0F       		.uleb128 0xf
ARM GAS  C:\Users\YBOURA~1\AppData\Local\Temp\cc3HigXd.s 			page 181


 6858 00a4 00       		.byte	0
 6859 00a5 0B       		.uleb128 0xb
 6860 00a6 0B       		.uleb128 0xb
 6861 00a7 49       		.uleb128 0x49
 6862 00a8 13       		.uleb128 0x13
 6863 00a9 00       		.byte	0
 6864 00aa 00       		.byte	0
 6865 00ab 10       		.uleb128 0x10
 6866 00ac 17       		.uleb128 0x17
 6867 00ad 01       		.byte	0x1
 6868 00ae 0B       		.uleb128 0xb
 6869 00af 0B       		.uleb128 0xb
 6870 00b0 3A       		.uleb128 0x3a
 6871 00b1 0B       		.uleb128 0xb
 6872 00b2 3B       		.uleb128 0x3b
 6873 00b3 05       		.uleb128 0x5
 6874 00b4 01       		.uleb128 0x1
 6875 00b5 13       		.uleb128 0x13
 6876 00b6 00       		.byte	0
 6877 00b7 00       		.byte	0
 6878 00b8 11       		.uleb128 0x11
 6879 00b9 0D       		.uleb128 0xd
 6880 00ba 00       		.byte	0
 6881 00bb 03       		.uleb128 0x3
 6882 00bc 0E       		.uleb128 0xe
 6883 00bd 3A       		.uleb128 0x3a
 6884 00be 0B       		.uleb128 0xb
 6885 00bf 3B       		.uleb128 0x3b
 6886 00c0 05       		.uleb128 0x5
 6887 00c1 49       		.uleb128 0x49
 6888 00c2 13       		.uleb128 0x13
 6889 00c3 00       		.byte	0
 6890 00c4 00       		.byte	0
 6891 00c5 12       		.uleb128 0x12
 6892 00c6 0D       		.uleb128 0xd
 6893 00c7 00       		.byte	0
 6894 00c8 03       		.uleb128 0x3
 6895 00c9 08       		.uleb128 0x8
 6896 00ca 3A       		.uleb128 0x3a
 6897 00cb 0B       		.uleb128 0xb
 6898 00cc 3B       		.uleb128 0x3b
 6899 00cd 05       		.uleb128 0x5
 6900 00ce 49       		.uleb128 0x49
 6901 00cf 13       		.uleb128 0x13
 6902 00d0 38       		.uleb128 0x38
 6903 00d1 0B       		.uleb128 0xb
 6904 00d2 00       		.byte	0
 6905 00d3 00       		.byte	0
 6906 00d4 13       		.uleb128 0x13
 6907 00d5 13       		.uleb128 0x13
 6908 00d6 01       		.byte	0x1
 6909 00d7 0B       		.uleb128 0xb
 6910 00d8 0B       		.uleb128 0xb
 6911 00d9 3A       		.uleb128 0x3a
 6912 00da 0B       		.uleb128 0xb
 6913 00db 3B       		.uleb128 0x3b
 6914 00dc 0B       		.uleb128 0xb
ARM GAS  C:\Users\YBOURA~1\AppData\Local\Temp\cc3HigXd.s 			page 182


 6915 00dd 01       		.uleb128 0x1
 6916 00de 13       		.uleb128 0x13
 6917 00df 00       		.byte	0
 6918 00e0 00       		.byte	0
 6919 00e1 14       		.uleb128 0x14
 6920 00e2 0D       		.uleb128 0xd
 6921 00e3 00       		.byte	0
 6922 00e4 03       		.uleb128 0x3
 6923 00e5 0E       		.uleb128 0xe
 6924 00e6 3A       		.uleb128 0x3a
 6925 00e7 0B       		.uleb128 0xb
 6926 00e8 3B       		.uleb128 0x3b
 6927 00e9 0B       		.uleb128 0xb
 6928 00ea 49       		.uleb128 0x49
 6929 00eb 13       		.uleb128 0x13
 6930 00ec 38       		.uleb128 0x38
 6931 00ed 0B       		.uleb128 0xb
 6932 00ee 00       		.byte	0
 6933 00ef 00       		.byte	0
 6934 00f0 15       		.uleb128 0x15
 6935 00f1 15       		.uleb128 0x15
 6936 00f2 01       		.byte	0x1
 6937 00f3 27       		.uleb128 0x27
 6938 00f4 19       		.uleb128 0x19
 6939 00f5 01       		.uleb128 0x1
 6940 00f6 13       		.uleb128 0x13
 6941 00f7 00       		.byte	0
 6942 00f8 00       		.byte	0
 6943 00f9 16       		.uleb128 0x16
 6944 00fa 05       		.uleb128 0x5
 6945 00fb 00       		.byte	0
 6946 00fc 49       		.uleb128 0x49
 6947 00fd 13       		.uleb128 0x13
 6948 00fe 00       		.byte	0
 6949 00ff 00       		.byte	0
 6950 0100 17       		.uleb128 0x17
 6951 0101 13       		.uleb128 0x13
 6952 0102 01       		.byte	0x1
 6953 0103 0B       		.uleb128 0xb
 6954 0104 05       		.uleb128 0x5
 6955 0105 3A       		.uleb128 0x3a
 6956 0106 0B       		.uleb128 0xb
 6957 0107 3B       		.uleb128 0x3b
 6958 0108 0B       		.uleb128 0xb
 6959 0109 01       		.uleb128 0x1
 6960 010a 13       		.uleb128 0x13
 6961 010b 00       		.byte	0
 6962 010c 00       		.byte	0
 6963 010d 18       		.uleb128 0x18
 6964 010e 0D       		.uleb128 0xd
 6965 010f 00       		.byte	0
 6966 0110 03       		.uleb128 0x3
 6967 0111 0E       		.uleb128 0xe
 6968 0112 3A       		.uleb128 0x3a
 6969 0113 0B       		.uleb128 0xb
 6970 0114 3B       		.uleb128 0x3b
 6971 0115 0B       		.uleb128 0xb
ARM GAS  C:\Users\YBOURA~1\AppData\Local\Temp\cc3HigXd.s 			page 183


 6972 0116 49       		.uleb128 0x49
 6973 0117 13       		.uleb128 0x13
 6974 0118 38       		.uleb128 0x38
 6975 0119 05       		.uleb128 0x5
 6976 011a 00       		.byte	0
 6977 011b 00       		.byte	0
 6978 011c 19       		.uleb128 0x19
 6979 011d 21       		.uleb128 0x21
 6980 011e 00       		.byte	0
 6981 011f 49       		.uleb128 0x49
 6982 0120 13       		.uleb128 0x13
 6983 0121 2F       		.uleb128 0x2f
 6984 0122 05       		.uleb128 0x5
 6985 0123 00       		.byte	0
 6986 0124 00       		.byte	0
 6987 0125 1A       		.uleb128 0x1a
 6988 0126 2E       		.uleb128 0x2e
 6989 0127 01       		.byte	0x1
 6990 0128 03       		.uleb128 0x3
 6991 0129 0E       		.uleb128 0xe
 6992 012a 3A       		.uleb128 0x3a
 6993 012b 0B       		.uleb128 0xb
 6994 012c 3B       		.uleb128 0x3b
 6995 012d 0B       		.uleb128 0xb
 6996 012e 27       		.uleb128 0x27
 6997 012f 19       		.uleb128 0x19
 6998 0130 11       		.uleb128 0x11
 6999 0131 01       		.uleb128 0x1
 7000 0132 12       		.uleb128 0x12
 7001 0133 06       		.uleb128 0x6
 7002 0134 40       		.uleb128 0x40
 7003 0135 18       		.uleb128 0x18
 7004 0136 9642     		.uleb128 0x2116
 7005 0138 19       		.uleb128 0x19
 7006 0139 01       		.uleb128 0x1
 7007 013a 13       		.uleb128 0x13
 7008 013b 00       		.byte	0
 7009 013c 00       		.byte	0
 7010 013d 1B       		.uleb128 0x1b
 7011 013e 05       		.uleb128 0x5
 7012 013f 00       		.byte	0
 7013 0140 03       		.uleb128 0x3
 7014 0141 0E       		.uleb128 0xe
 7015 0142 3A       		.uleb128 0x3a
 7016 0143 0B       		.uleb128 0xb
 7017 0144 3B       		.uleb128 0x3b
 7018 0145 0B       		.uleb128 0xb
 7019 0146 49       		.uleb128 0x49
 7020 0147 13       		.uleb128 0x13
 7021 0148 02       		.uleb128 0x2
 7022 0149 18       		.uleb128 0x18
 7023 014a 00       		.byte	0
 7024 014b 00       		.byte	0
 7025 014c 1C       		.uleb128 0x1c
 7026 014d 34       		.uleb128 0x34
 7027 014e 00       		.byte	0
 7028 014f 03       		.uleb128 0x3
ARM GAS  C:\Users\YBOURA~1\AppData\Local\Temp\cc3HigXd.s 			page 184


 7029 0150 0E       		.uleb128 0xe
 7030 0151 3A       		.uleb128 0x3a
 7031 0152 0B       		.uleb128 0xb
 7032 0153 3B       		.uleb128 0x3b
 7033 0154 0B       		.uleb128 0xb
 7034 0155 49       		.uleb128 0x49
 7035 0156 13       		.uleb128 0x13
 7036 0157 02       		.uleb128 0x2
 7037 0158 18       		.uleb128 0x18
 7038 0159 00       		.byte	0
 7039 015a 00       		.byte	0
 7040 015b 1D       		.uleb128 0x1d
 7041 015c 0B       		.uleb128 0xb
 7042 015d 01       		.byte	0x1
 7043 015e 11       		.uleb128 0x11
 7044 015f 01       		.uleb128 0x1
 7045 0160 12       		.uleb128 0x12
 7046 0161 06       		.uleb128 0x6
 7047 0162 00       		.byte	0
 7048 0163 00       		.byte	0
 7049 0164 1E       		.uleb128 0x1e
 7050 0165 34       		.uleb128 0x34
 7051 0166 00       		.byte	0
 7052 0167 03       		.uleb128 0x3
 7053 0168 0E       		.uleb128 0xe
 7054 0169 3A       		.uleb128 0x3a
 7055 016a 0B       		.uleb128 0xb
 7056 016b 3B       		.uleb128 0x3b
 7057 016c 05       		.uleb128 0x5
 7058 016d 49       		.uleb128 0x49
 7059 016e 13       		.uleb128 0x13
 7060 016f 02       		.uleb128 0x2
 7061 0170 18       		.uleb128 0x18
 7062 0171 00       		.byte	0
 7063 0172 00       		.byte	0
 7064 0173 1F       		.uleb128 0x1f
 7065 0174 2E       		.uleb128 0x2e
 7066 0175 01       		.byte	0x1
 7067 0176 03       		.uleb128 0x3
 7068 0177 0E       		.uleb128 0xe
 7069 0178 3A       		.uleb128 0x3a
 7070 0179 0B       		.uleb128 0xb
 7071 017a 3B       		.uleb128 0x3b
 7072 017b 05       		.uleb128 0x5
 7073 017c 27       		.uleb128 0x27
 7074 017d 19       		.uleb128 0x19
 7075 017e 11       		.uleb128 0x11
 7076 017f 01       		.uleb128 0x1
 7077 0180 12       		.uleb128 0x12
 7078 0181 06       		.uleb128 0x6
 7079 0182 40       		.uleb128 0x40
 7080 0183 18       		.uleb128 0x18
 7081 0184 9742     		.uleb128 0x2117
 7082 0186 19       		.uleb128 0x19
 7083 0187 01       		.uleb128 0x1
 7084 0188 13       		.uleb128 0x13
 7085 0189 00       		.byte	0
ARM GAS  C:\Users\YBOURA~1\AppData\Local\Temp\cc3HigXd.s 			page 185


 7086 018a 00       		.byte	0
 7087 018b 20       		.uleb128 0x20
 7088 018c 05       		.uleb128 0x5
 7089 018d 00       		.byte	0
 7090 018e 03       		.uleb128 0x3
 7091 018f 0E       		.uleb128 0xe
 7092 0190 3A       		.uleb128 0x3a
 7093 0191 0B       		.uleb128 0xb
 7094 0192 3B       		.uleb128 0x3b
 7095 0193 05       		.uleb128 0x5
 7096 0194 49       		.uleb128 0x49
 7097 0195 13       		.uleb128 0x13
 7098 0196 02       		.uleb128 0x2
 7099 0197 18       		.uleb128 0x18
 7100 0198 00       		.byte	0
 7101 0199 00       		.byte	0
 7102 019a 21       		.uleb128 0x21
 7103 019b 26       		.uleb128 0x26
 7104 019c 00       		.byte	0
 7105 019d 49       		.uleb128 0x49
 7106 019e 13       		.uleb128 0x13
 7107 019f 00       		.byte	0
 7108 01a0 00       		.byte	0
 7109 01a1 22       		.uleb128 0x22
 7110 01a2 2E       		.uleb128 0x2e
 7111 01a3 01       		.byte	0x1
 7112 01a4 03       		.uleb128 0x3
 7113 01a5 0E       		.uleb128 0xe
 7114 01a6 3A       		.uleb128 0x3a
 7115 01a7 0B       		.uleb128 0xb
 7116 01a8 3B       		.uleb128 0x3b
 7117 01a9 05       		.uleb128 0x5
 7118 01aa 27       		.uleb128 0x27
 7119 01ab 19       		.uleb128 0x19
 7120 01ac 11       		.uleb128 0x11
 7121 01ad 01       		.uleb128 0x1
 7122 01ae 12       		.uleb128 0x12
 7123 01af 06       		.uleb128 0x6
 7124 01b0 40       		.uleb128 0x40
 7125 01b1 18       		.uleb128 0x18
 7126 01b2 9642     		.uleb128 0x2116
 7127 01b4 19       		.uleb128 0x19
 7128 01b5 01       		.uleb128 0x1
 7129 01b6 13       		.uleb128 0x13
 7130 01b7 00       		.byte	0
 7131 01b8 00       		.byte	0
 7132 01b9 23       		.uleb128 0x23
 7133 01ba 2E       		.uleb128 0x2e
 7134 01bb 00       		.byte	0
 7135 01bc 03       		.uleb128 0x3
 7136 01bd 0E       		.uleb128 0xe
 7137 01be 3A       		.uleb128 0x3a
 7138 01bf 0B       		.uleb128 0xb
 7139 01c0 3B       		.uleb128 0x3b
 7140 01c1 05       		.uleb128 0x5
 7141 01c2 27       		.uleb128 0x27
 7142 01c3 19       		.uleb128 0x19
ARM GAS  C:\Users\YBOURA~1\AppData\Local\Temp\cc3HigXd.s 			page 186


 7143 01c4 11       		.uleb128 0x11
 7144 01c5 01       		.uleb128 0x1
 7145 01c6 12       		.uleb128 0x12
 7146 01c7 06       		.uleb128 0x6
 7147 01c8 40       		.uleb128 0x40
 7148 01c9 18       		.uleb128 0x18
 7149 01ca 9742     		.uleb128 0x2117
 7150 01cc 19       		.uleb128 0x19
 7151 01cd 00       		.byte	0
 7152 01ce 00       		.byte	0
 7153 01cf 24       		.uleb128 0x24
 7154 01d0 2E       		.uleb128 0x2e
 7155 01d1 01       		.byte	0x1
 7156 01d2 03       		.uleb128 0x3
 7157 01d3 0E       		.uleb128 0xe
 7158 01d4 3A       		.uleb128 0x3a
 7159 01d5 0B       		.uleb128 0xb
 7160 01d6 3B       		.uleb128 0x3b
 7161 01d7 05       		.uleb128 0x5
 7162 01d8 27       		.uleb128 0x27
 7163 01d9 19       		.uleb128 0x19
 7164 01da 49       		.uleb128 0x49
 7165 01db 13       		.uleb128 0x13
 7166 01dc 11       		.uleb128 0x11
 7167 01dd 01       		.uleb128 0x1
 7168 01de 12       		.uleb128 0x12
 7169 01df 06       		.uleb128 0x6
 7170 01e0 40       		.uleb128 0x40
 7171 01e1 18       		.uleb128 0x18
 7172 01e2 9742     		.uleb128 0x2117
 7173 01e4 19       		.uleb128 0x19
 7174 01e5 01       		.uleb128 0x1
 7175 01e6 13       		.uleb128 0x13
 7176 01e7 00       		.byte	0
 7177 01e8 00       		.byte	0
 7178 01e9 25       		.uleb128 0x25
 7179 01ea 34       		.uleb128 0x34
 7180 01eb 00       		.byte	0
 7181 01ec 03       		.uleb128 0x3
 7182 01ed 08       		.uleb128 0x8
 7183 01ee 3A       		.uleb128 0x3a
 7184 01ef 0B       		.uleb128 0xb
 7185 01f0 3B       		.uleb128 0x3b
 7186 01f1 05       		.uleb128 0x5
 7187 01f2 49       		.uleb128 0x49
 7188 01f3 13       		.uleb128 0x13
 7189 01f4 02       		.uleb128 0x2
 7190 01f5 18       		.uleb128 0x18
 7191 01f6 00       		.byte	0
 7192 01f7 00       		.byte	0
 7193 01f8 26       		.uleb128 0x26
 7194 01f9 2E       		.uleb128 0x2e
 7195 01fa 01       		.byte	0x1
 7196 01fb 3F       		.uleb128 0x3f
 7197 01fc 19       		.uleb128 0x19
 7198 01fd 03       		.uleb128 0x3
 7199 01fe 0E       		.uleb128 0xe
ARM GAS  C:\Users\YBOURA~1\AppData\Local\Temp\cc3HigXd.s 			page 187


 7200 01ff 3A       		.uleb128 0x3a
 7201 0200 0B       		.uleb128 0xb
 7202 0201 3B       		.uleb128 0x3b
 7203 0202 05       		.uleb128 0x5
 7204 0203 27       		.uleb128 0x27
 7205 0204 19       		.uleb128 0x19
 7206 0205 11       		.uleb128 0x11
 7207 0206 01       		.uleb128 0x1
 7208 0207 12       		.uleb128 0x12
 7209 0208 06       		.uleb128 0x6
 7210 0209 40       		.uleb128 0x40
 7211 020a 18       		.uleb128 0x18
 7212 020b 9642     		.uleb128 0x2116
 7213 020d 19       		.uleb128 0x19
 7214 020e 01       		.uleb128 0x1
 7215 020f 13       		.uleb128 0x13
 7216 0210 00       		.byte	0
 7217 0211 00       		.byte	0
 7218 0212 27       		.uleb128 0x27
 7219 0213 0B       		.uleb128 0xb
 7220 0214 01       		.byte	0x1
 7221 0215 11       		.uleb128 0x11
 7222 0216 01       		.uleb128 0x1
 7223 0217 12       		.uleb128 0x12
 7224 0218 06       		.uleb128 0x6
 7225 0219 01       		.uleb128 0x1
 7226 021a 13       		.uleb128 0x13
 7227 021b 00       		.byte	0
 7228 021c 00       		.byte	0
 7229 021d 28       		.uleb128 0x28
 7230 021e 34       		.uleb128 0x34
 7231 021f 00       		.byte	0
 7232 0220 03       		.uleb128 0x3
 7233 0221 0E       		.uleb128 0xe
 7234 0222 3A       		.uleb128 0x3a
 7235 0223 0B       		.uleb128 0xb
 7236 0224 3B       		.uleb128 0x3b
 7237 0225 05       		.uleb128 0x5
 7238 0226 49       		.uleb128 0x49
 7239 0227 13       		.uleb128 0x13
 7240 0228 3F       		.uleb128 0x3f
 7241 0229 19       		.uleb128 0x19
 7242 022a 3C       		.uleb128 0x3c
 7243 022b 19       		.uleb128 0x19
 7244 022c 00       		.byte	0
 7245 022d 00       		.byte	0
 7246 022e 29       		.uleb128 0x29
 7247 022f 34       		.uleb128 0x34
 7248 0230 00       		.byte	0
 7249 0231 03       		.uleb128 0x3
 7250 0232 0E       		.uleb128 0xe
 7251 0233 3A       		.uleb128 0x3a
 7252 0234 0B       		.uleb128 0xb
 7253 0235 3B       		.uleb128 0x3b
 7254 0236 0B       		.uleb128 0xb
 7255 0237 49       		.uleb128 0x49
 7256 0238 13       		.uleb128 0x13
ARM GAS  C:\Users\YBOURA~1\AppData\Local\Temp\cc3HigXd.s 			page 188


 7257 0239 3F       		.uleb128 0x3f
 7258 023a 19       		.uleb128 0x19
 7259 023b 02       		.uleb128 0x2
 7260 023c 18       		.uleb128 0x18
 7261 023d 00       		.byte	0
 7262 023e 00       		.byte	0
 7263 023f 2A       		.uleb128 0x2a
 7264 0240 34       		.uleb128 0x34
 7265 0241 00       		.byte	0
 7266 0242 03       		.uleb128 0x3
 7267 0243 0E       		.uleb128 0xe
 7268 0244 3A       		.uleb128 0x3a
 7269 0245 0B       		.uleb128 0xb
 7270 0246 3B       		.uleb128 0x3b
 7271 0247 0B       		.uleb128 0xb
 7272 0248 49       		.uleb128 0x49
 7273 0249 13       		.uleb128 0x13
 7274 024a 3F       		.uleb128 0x3f
 7275 024b 19       		.uleb128 0x19
 7276 024c 3C       		.uleb128 0x3c
 7277 024d 19       		.uleb128 0x19
 7278 024e 00       		.byte	0
 7279 024f 00       		.byte	0
 7280 0250 00       		.byte	0
 7281              		.section	.debug_aranges,"",%progbits
 7282 0000 C4000000 		.4byte	0xc4
 7283 0004 0200     		.2byte	0x2
 7284 0006 00000000 		.4byte	.Ldebug_info0
 7285 000a 04       		.byte	0x4
 7286 000b 00       		.byte	0
 7287 000c 0000     		.2byte	0
 7288 000e 0000     		.2byte	0
 7289 0010 00000000 		.4byte	.LFB2
 7290 0014 70000000 		.4byte	.LFE2-.LFB2
 7291 0018 00000000 		.4byte	.LFB3
 7292 001c 0E000000 		.4byte	.LFE3-.LFB3
 7293 0020 00000000 		.4byte	.LFB4
 7294 0024 0E000000 		.4byte	.LFE4-.LFB4
 7295 0028 00000000 		.4byte	.LFB5
 7296 002c 0E000000 		.4byte	.LFE5-.LFB5
 7297 0030 00000000 		.4byte	.LFB6
 7298 0034 0E000000 		.4byte	.LFE6-.LFB6
 7299 0038 00000000 		.4byte	.LFB7
 7300 003c 0C010000 		.4byte	.LFE7-.LFB7
 7301 0040 00000000 		.4byte	.LFB8
 7302 0044 34000000 		.4byte	.LFE8-.LFB8
 7303 0048 00000000 		.4byte	.LFB9
 7304 004c A0000000 		.4byte	.LFE9-.LFB9
 7305 0050 00000000 		.4byte	.LFB10
 7306 0054 08000000 		.4byte	.LFE10-.LFB10
 7307 0058 00000000 		.4byte	.LFB11
 7308 005c 60000000 		.4byte	.LFE11-.LFB11
 7309 0060 00000000 		.4byte	.LFB12
 7310 0064 12000000 		.4byte	.LFE12-.LFB12
 7311 0068 00000000 		.4byte	.LFB13
 7312 006c 0E000000 		.4byte	.LFE13-.LFB13
 7313 0070 00000000 		.4byte	.LFB14
ARM GAS  C:\Users\YBOURA~1\AppData\Local\Temp\cc3HigXd.s 			page 189


 7314 0074 FC020000 		.4byte	.LFE14-.LFB14
 7315 0078 00000000 		.4byte	.LFB15
 7316 007c C8010000 		.4byte	.LFE15-.LFB15
 7317 0080 00000000 		.4byte	.LFB16
 7318 0084 E4000000 		.4byte	.LFE16-.LFB16
 7319 0088 00000000 		.4byte	.LFB17
 7320 008c EC000000 		.4byte	.LFE17-.LFB17
 7321 0090 00000000 		.4byte	.LFB18
 7322 0094 18040000 		.4byte	.LFE18-.LFB18
 7323 0098 00000000 		.4byte	.LFB19
 7324 009c E8000000 		.4byte	.LFE19-.LFB19
 7325 00a0 00000000 		.4byte	.LFB20
 7326 00a4 64000000 		.4byte	.LFE20-.LFB20
 7327 00a8 00000000 		.4byte	.LFB21
 7328 00ac 5C010000 		.4byte	.LFE21-.LFB21
 7329 00b0 00000000 		.4byte	.LFB22
 7330 00b4 40010000 		.4byte	.LFE22-.LFB22
 7331 00b8 00000000 		.4byte	.LFB23
 7332 00bc AC000000 		.4byte	.LFE23-.LFB23
 7333 00c0 00000000 		.4byte	0
 7334 00c4 00000000 		.4byte	0
 7335              		.section	.debug_ranges,"",%progbits
 7336              	.Ldebug_ranges0:
 7337 0000 00000000 		.4byte	.LFB2
 7338 0004 70000000 		.4byte	.LFE2
 7339 0008 00000000 		.4byte	.LFB3
 7340 000c 0E000000 		.4byte	.LFE3
 7341 0010 00000000 		.4byte	.LFB4
 7342 0014 0E000000 		.4byte	.LFE4
 7343 0018 00000000 		.4byte	.LFB5
 7344 001c 0E000000 		.4byte	.LFE5
 7345 0020 00000000 		.4byte	.LFB6
 7346 0024 0E000000 		.4byte	.LFE6
 7347 0028 00000000 		.4byte	.LFB7
 7348 002c 0C010000 		.4byte	.LFE7
 7349 0030 00000000 		.4byte	.LFB8
 7350 0034 34000000 		.4byte	.LFE8
 7351 0038 00000000 		.4byte	.LFB9
 7352 003c A0000000 		.4byte	.LFE9
 7353 0040 00000000 		.4byte	.LFB10
 7354 0044 08000000 		.4byte	.LFE10
 7355 0048 00000000 		.4byte	.LFB11
 7356 004c 60000000 		.4byte	.LFE11
 7357 0050 00000000 		.4byte	.LFB12
 7358 0054 12000000 		.4byte	.LFE12
 7359 0058 00000000 		.4byte	.LFB13
 7360 005c 0E000000 		.4byte	.LFE13
 7361 0060 00000000 		.4byte	.LFB14
 7362 0064 FC020000 		.4byte	.LFE14
 7363 0068 00000000 		.4byte	.LFB15
 7364 006c C8010000 		.4byte	.LFE15
 7365 0070 00000000 		.4byte	.LFB16
 7366 0074 E4000000 		.4byte	.LFE16
 7367 0078 00000000 		.4byte	.LFB17
 7368 007c EC000000 		.4byte	.LFE17
 7369 0080 00000000 		.4byte	.LFB18
 7370 0084 18040000 		.4byte	.LFE18
ARM GAS  C:\Users\YBOURA~1\AppData\Local\Temp\cc3HigXd.s 			page 190


 7371 0088 00000000 		.4byte	.LFB19
 7372 008c E8000000 		.4byte	.LFE19
 7373 0090 00000000 		.4byte	.LFB20
 7374 0094 64000000 		.4byte	.LFE20
 7375 0098 00000000 		.4byte	.LFB21
 7376 009c 5C010000 		.4byte	.LFE21
 7377 00a0 00000000 		.4byte	.LFB22
 7378 00a4 40010000 		.4byte	.LFE22
 7379 00a8 00000000 		.4byte	.LFB23
 7380 00ac AC000000 		.4byte	.LFE23
 7381 00b0 00000000 		.4byte	0
 7382 00b4 00000000 		.4byte	0
 7383              		.section	.debug_line,"",%progbits
 7384              	.Ldebug_line0:
 7385 0000 90050000 		.section	.debug_str,"MS",%progbits,1
 7385      0200F900 
 7385      00000201 
 7385      FB0E0D00 
 7385      01010101 
 7386              	.LASF520:
 7387 0000 4359424C 		.ascii	"CYBLE_EVT_UDSC_READ_CHAR_RESPONSE\000"
 7387      455F4556 
 7387      545F5544 
 7387      53435F52 
 7387      4541445F 
 7388              	.LASF449:
 7389 0022 4359424C 		.ascii	"CYBLE_EVT_HTSS_NOTIFICATION_DISABLED\000"
 7389      455F4556 
 7389      545F4854 
 7389      53535F4E 
 7389      4F544946 
 7390              	.LASF216:
 7391 0047 4359424C 		.ascii	"CYBLE_GATT_ERR_INVALID_CRC\000"
 7391      455F4741 
 7391      54545F45 
 7391      52525F49 
 7391      4E56414C 
 7392              	.LASF480:
 7393 0062 4359424C 		.ascii	"CYBLE_EVT_PASSC_NOTIFICATION\000"
 7393      455F4556 
 7393      545F5041 
 7393      5353435F 
 7393      4E4F5449 
 7394              	.LASF15:
 7395 007f 73697A65 		.ascii	"sizetype\000"
 7395      74797065 
 7395      00
 7396              	.LASF337:
 7397 0088 4359424C 		.ascii	"CYBLE_EVT_BCSC_READ_CHAR_RESPONSE\000"
 7397      455F4556 
 7397      545F4243 
 7397      53435F52 
 7397      4541445F 
 7398              	.LASF345:
 7399 00aa 4359424C 		.ascii	"CYBLE_EVT_BLSC_INDICATION\000"
 7399      455F4556 
 7399      545F424C 
ARM GAS  C:\Users\YBOURA~1\AppData\Local\Temp\cc3HigXd.s 			page 191


 7399      53435F49 
 7399      4E444943 
 7400              	.LASF360:
 7401 00c4 4359424C 		.ascii	"CYBLE_EVT_CGMSC_INDICATION\000"
 7401      455F4556 
 7401      545F4347 
 7401      4D53435F 
 7401      494E4449 
 7402              	.LASF378:
 7403 00df 4359424C 		.ascii	"CYBLE_EVT_CPSC_READ_DESCR_RESPONSE\000"
 7403      455F4556 
 7403      545F4350 
 7403      53435F52 
 7403      4541445F 
 7404              	.LASF151:
 7405 0102 656B6579 		.ascii	"ekeySize\000"
 7405      53697A65 
 7405      00
 7406              	.LASF497:
 7407 010b 4359424C 		.ascii	"CYBLE_EVT_RTUSS_WRITE_CHAR_CMD\000"
 7407      455F4556 
 7407      545F5254 
 7407      5553535F 
 7407      57524954 
 7408              	.LASF185:
 7409 012a 4359424C 		.ascii	"CYBLE_GATT_HANDLE_VALUE_CNF\000"
 7409      455F4741 
 7409      54545F48 
 7409      414E444C 
 7409      455F5641 
 7410              	.LASF531:
 7411 0146 4359424C 		.ascii	"CYBLE_EVT_WPTSC_NOTIFICATION\000"
 7411      455F4556 
 7411      545F5750 
 7411      5453435F 
 7411      4E4F5449 
 7412              	.LASF307:
 7413 0163 4359424C 		.ascii	"CYBLE_EVT_GATTC_INCL_DISCOVERY_COMPLETE\000"
 7413      455F4556 
 7413      545F4741 
 7413      5454435F 
 7413      494E434C 
 7414              	.LASF537:
 7415 018b 4359424C 		.ascii	"CYBLE_EVT_WSSS_INDICATION_ENABLED\000"
 7415      455F4556 
 7415      545F5753 
 7415      53535F49 
 7415      4E444943 
 7416              	.LASF376:
 7417 01ad 4359424C 		.ascii	"CYBLE_EVT_CPSC_READ_CHAR_RESPONSE\000"
 7417      455F4556 
 7417      545F4350 
 7417      53435F52 
 7417      4541445F 
 7418              	.LASF389:
 7419 01cf 4359424C 		.ascii	"CYBLE_EVT_CSCSC_READ_CHAR_RESPONSE\000"
 7419      455F4556 
ARM GAS  C:\Users\YBOURA~1\AppData\Local\Temp\cc3HigXd.s 			page 192


 7419      545F4353 
 7419      4353435F 
 7419      52454144 
 7420              	.LASF577:
 7421 01f2 4379426C 		.ascii	"CyBle_WriteReqHandler\000"
 7421      655F5772 
 7421      69746552 
 7421      65714861 
 7421      6E646C65 
 7422              	.LASF365:
 7423 0208 4359424C 		.ascii	"CYBLE_EVT_CGMSC_WRITE_DESCR_RESPONSE\000"
 7423      455F4556 
 7423      545F4347 
 7423      4D53435F 
 7423      57524954 
 7424              	.LASF259:
 7425 022d 4359424C 		.ascii	"CYBLE_GATTC_GRP_ATTR_DATA_LIST_T\000"
 7425      455F4741 
 7425      5454435F 
 7425      4752505F 
 7425      41545452 
 7426              	.LASF420:
 7427 024e 4359424C 		.ascii	"CYBLE_EVT_GLSS_NOTIFICATION_DISABLED\000"
 7427      455F4556 
 7427      545F474C 
 7427      53535F4E 
 7427      4F544946 
 7428              	.LASF579:
 7429 0273 6576656E 		.ascii	"eventParam\000"
 7429      74506172 
 7429      616D00
 7430              	.LASF347:
 7431 027e 4359424C 		.ascii	"CYBLE_EVT_BLSC_READ_CHAR_RESPONSE\000"
 7431      455F4556 
 7431      545F424C 
 7431      53435F52 
 7431      4541445F 
 7432              	.LASF29:
 7433 02a0 4359424C 		.ascii	"CYBLE_EVT_GAP_DEVICE_CONNECTED\000"
 7433      455F4556 
 7433      545F4741 
 7433      505F4445 
 7433      56494345 
 7434              	.LASF133:
 7435 02bf 4359424C 		.ascii	"CYBLE_GAP_IOCAP_NOINPUT_NOOUTPUT\000"
 7435      455F4741 
 7435      505F494F 
 7435      4341505F 
 7435      4E4F494E 
 7436              	.LASF36:
 7437 02e0 4359424C 		.ascii	"CYBLE_EVT_GATT_CONNECT_IND\000"
 7437      455F4556 
 7437      545F4741 
 7437      54545F43 
 7437      4F4E4E45 
 7438              	.LASF425:
 7439 02fb 4359424C 		.ascii	"CYBLE_EVT_GLSC_WRITE_CHAR_RESPONSE\000"
ARM GAS  C:\Users\YBOURA~1\AppData\Local\Temp\cc3HigXd.s 			page 193


 7439      455F4556 
 7439      545F474C 
 7439      53435F57 
 7439      52495445 
 7440              	.LASF284:
 7441 031e 73657276 		.ascii	"serviceChanged\000"
 7441      69636543 
 7441      68616E67 
 7441      656400
 7442              	.LASF178:
 7443 032d 4359424C 		.ascii	"CYBLE_GATT_WRITE_CMD\000"
 7443      455F4741 
 7443      54545F57 
 7443      52495445 
 7443      5F434D44 
 7444              	.LASF11:
 7445 0342 75696E74 		.ascii	"uint32\000"
 7445      333200
 7446              	.LASF302:
 7447 0349 4359424C 		.ascii	"CYBLE_EVT_GATTC_DESCR_DISCOVERY_FAILED\000"
 7447      455F4556 
 7447      545F4741 
 7447      5454435F 
 7447      44455343 
 7448              	.LASF496:
 7449 0370 4359424C 		.ascii	"CYBLE_EVT_RSCSC_WRITE_DESCR_RESPONSE\000"
 7449      455F4556 
 7449      545F5253 
 7449      4353435F 
 7449      57524954 
 7450              	.LASF335:
 7451 0395 4359424C 		.ascii	"CYBLE_EVT_BCSS_INDICATION_CONFIRMED\000"
 7451      455F4556 
 7451      545F4243 
 7451      53535F49 
 7451      4E444943 
 7452              	.LASF336:
 7453 03b9 4359424C 		.ascii	"CYBLE_EVT_BCSC_INDICATION\000"
 7453      455F4556 
 7453      545F4243 
 7453      53435F49 
 7453      4E444943 
 7454              	.LASF115:
 7455 03d3 626C6550 		.ascii	"blePwrLevelInDbm\000"
 7455      77724C65 
 7455      76656C49 
 7455      6E44626D 
 7455      00
 7456              	.LASF465:
 7457 03e4 4359424C 		.ascii	"CYBLE_EVT_LNSS_INDICATION_DISABLED\000"
 7457      455F4556 
 7457      545F4C4E 
 7457      53535F49 
 7457      4E444943 
 7458              	.LASF397:
 7459 0407 4359424C 		.ascii	"CYBLE_EVT_CTSC_READ_CHAR_RESPONSE\000"
 7459      455F4556 
ARM GAS  C:\Users\YBOURA~1\AppData\Local\Temp\cc3HigXd.s 			page 194


 7459      545F4354 
 7459      53435F52 
 7459      4541445F 
 7460              	.LASF306:
 7461 0429 4359424C 		.ascii	"CYBLE_EVT_GATTC_SRVC_DISCOVERY_COMPLETE\000"
 7461      455F4556 
 7461      545F4741 
 7461      5454435F 
 7461      53525643 
 7462              	.LASF490:
 7463 0451 4359424C 		.ascii	"CYBLE_EVT_RSCSS_CHAR_WRITE\000"
 7463      455F4556 
 7463      545F5253 
 7463      4353535F 
 7463      43484152 
 7464              	.LASF312:
 7465 046c 4359424C 		.ascii	"CYBLE_EVT_ANCSS_WRITE_CHAR\000"
 7465      455F4556 
 7465      545F414E 
 7465      4353535F 
 7465      57524954 
 7466              	.LASF523:
 7467 0487 4359424C 		.ascii	"CYBLE_EVT_UDSC_WRITE_DESCR_RESPONSE\000"
 7467      455F4556 
 7467      545F5544 
 7467      53435F57 
 7467      52495445 
 7468              	.LASF439:
 7469 04ab 4359424C 		.ascii	"CYBLE_EVT_HIDSC_WRITE_DESCR_RESPONSE\000"
 7469      455F4556 
 7469      545F4849 
 7469      4453435F 
 7469      57524954 
 7470              	.LASF505:
 7471 04d0 4359424C 		.ascii	"CYBLE_EVT_TPSS_NOTIFICATION_ENABLED\000"
 7471      455F4556 
 7471      545F5450 
 7471      53535F4E 
 7471      4F544946 
 7472              	.LASF325:
 7473 04f4 4359424C 		.ascii	"CYBLE_EVT_ANSC_READ_DESCR_RESPONSE\000"
 7473      455F4556 
 7473      545F414E 
 7473      53435F52 
 7473      4541445F 
 7474              	.LASF191:
 7475 0517 4359424C 		.ascii	"CYBLE_GATT_ERR_READ_NOT_PERMITTED\000"
 7475      455F4741 
 7475      54545F45 
 7475      52525F52 
 7475      4541445F 
 7476              	.LASF206:
 7477 0539 4359424C 		.ascii	"CYBLE_GATT_ERR_INSUFFICIENT_RESOURCE\000"
 7477      455F4741 
 7477      54545F45 
 7477      52525F49 
 7477      4E535546 
ARM GAS  C:\Users\YBOURA~1\AppData\Local\Temp\cc3HigXd.s 			page 195


 7478              	.LASF179:
 7479 055e 4359424C 		.ascii	"CYBLE_GATT_PREPARE_WRITE_REQ\000"
 7479      455F4741 
 7479      54545F50 
 7479      52455041 
 7479      52455F57 
 7480              	.LASF205:
 7481 057b 4359424C 		.ascii	"CYBLE_GATT_ERR_UNSUPPORTED_GROUP_TYPE\000"
 7481      455F4741 
 7481      54545F45 
 7481      52525F55 
 7481      4E535550 
 7482              	.LASF89:
 7483 05a1 4359424C 		.ascii	"CYBLE_ERROR_L2CAP_CONNECTION_ENTITY_NOT_FOUND\000"
 7483      455F4552 
 7483      524F525F 
 7483      4C324341 
 7483      505F434F 
 7484              	.LASF554:
 7485 05cf 4359424C 		.ascii	"CYBLE_CLIENT_STATE_CHAR_DISCOVERING\000"
 7485      455F434C 
 7485      49454E54 
 7485      5F535441 
 7485      54455F43 
 7486              	.LASF95:
 7487 05f3 4359424C 		.ascii	"CYBLE_ERROR_MIC_AUTH_FAILED\000"
 7487      455F4552 
 7487      524F525F 
 7487      4D49435F 
 7487      41555448 
 7488              	.LASF548:
 7489 060f 4359424C 		.ascii	"CYBLE_STATE_SCANNING\000"
 7489      455F5354 
 7489      4154455F 
 7489      5343414E 
 7489      4E494E47 
 7490              	.LASF301:
 7491 0624 4359424C 		.ascii	"CYBLE_EVT_GATTC_CHAR_DISCOVERY_FAILED\000"
 7491      455F4556 
 7491      545F4741 
 7491      5454435F 
 7491      43484152 
 7492              	.LASF56:
 7493 064a 4359424C 		.ascii	"CYBLE_EVT_GATTS_DATA_SIGNED_CMD_REQ\000"
 7493      455F4556 
 7493      545F4741 
 7493      5454535F 
 7493      44415441 
 7494              	.LASF67:
 7495 066e 4359424C 		.ascii	"CYBLE_EVT_L2CAP_CBFC_RX_CREDIT_IND\000"
 7495      455F4556 
 7495      545F4C32 
 7495      4341505F 
 7495      43424643 
 7496              	.LASF237:
 7497 0691 4359424C 		.ascii	"CYBLE_GATT_VALUE_T\000"
 7497      455F4741 
ARM GAS  C:\Users\YBOURA~1\AppData\Local\Temp\cc3HigXd.s 			page 196


 7497      54545F56 
 7497      414C5545 
 7497      5F5400
 7498              	.LASF383:
 7499 06a4 4359424C 		.ascii	"CYBLE_EVT_CSCSS_INDICATION_ENABLED\000"
 7499      455F4556 
 7499      545F4353 
 7499      4353535F 
 7499      494E4449 
 7500              	.LASF173:
 7501 06c7 4359424C 		.ascii	"CYBLE_GATT_READ_MULTIPLE_RSP\000"
 7501      455F4741 
 7501      54545F52 
 7501      4541445F 
 7501      4D554C54 
 7502              	.LASF470:
 7503 06e4 4359424C 		.ascii	"CYBLE_EVT_LNSC_INDICATION\000"
 7503      455F4556 
 7503      545F4C4E 
 7503      53435F49 
 7503      4E444943 
 7504              	.LASF119:
 7505 06fe 74797065 		.ascii	"type\000"
 7505      00
 7506              	.LASF125:
 7507 0703 4359424C 		.ascii	"CYBLE_TO_REASON_CODE_T\000"
 7507      455F544F 
 7507      5F524541 
 7507      534F4E5F 
 7507      434F4445 
 7508              	.LASF481:
 7509 071a 4359424C 		.ascii	"CYBLE_EVT_PASSC_READ_CHAR_RESPONSE\000"
 7509      455F4556 
 7509      545F5041 
 7509      5353435F 
 7509      52454144 
 7510              	.LASF146:
 7511 073d 4359424C 		.ascii	"CYBLE_GAP_AUTH_ERROR_AUTHENTICATION_TIMEOUT\000"
 7511      455F4741 
 7511      505F4155 
 7511      54485F45 
 7511      52524F52 
 7512              	.LASF340:
 7513 0769 4359424C 		.ascii	"CYBLE_EVT_BLSS_INDICATION_ENABLED\000"
 7513      455F4556 
 7513      545F424C 
 7513      53535F49 
 7513      4E444943 
 7514              	.LASF143:
 7515 078b 4359424C 		.ascii	"CYBLE_GAP_AUTH_ERROR_UNSPECIFIED_REASON\000"
 7515      455F4741 
 7515      505F4155 
 7515      54485F45 
 7515      52524F52 
 7516              	.LASF346:
 7517 07b3 4359424C 		.ascii	"CYBLE_EVT_BLSC_NOTIFICATION\000"
 7517      455F4556 
ARM GAS  C:\Users\YBOURA~1\AppData\Local\Temp\cc3HigXd.s 			page 197


 7517      545F424C 
 7517      53435F4E 
 7517      4F544946 
 7518              	.LASF167:
 7519 07cf 4359424C 		.ascii	"CYBLE_GATT_READ_BY_TYPE_RSP\000"
 7519      455F4741 
 7519      54545F52 
 7519      4541445F 
 7519      42595F54 
 7520              	.LASF269:
 7521 07eb 4359424C 		.ascii	"CYBLE_CALLBACK_T\000"
 7521      455F4341 
 7521      4C4C4241 
 7521      434B5F54 
 7521      00
 7522              	.LASF388:
 7523 07fc 4359424C 		.ascii	"CYBLE_EVT_CSCSC_INDICATION\000"
 7523      455F4556 
 7523      545F4353 
 7523      4353435F 
 7523      494E4449 
 7524              	.LASF629:
 7525 0817 6379426C 		.ascii	"cyBle_scanningIntervalType\000"
 7525      655F7363 
 7525      616E6E69 
 7525      6E67496E 
 7525      74657276 
 7526              	.LASF254:
 7527 0832 4359424C 		.ascii	"CYBLE_GATTC_HANDLE_VALUE_NTF_PARAM_T\000"
 7527      455F4741 
 7527      5454435F 
 7527      48414E44 
 7527      4C455F56 
 7528              	.LASF53:
 7529 0857 4359424C 		.ascii	"CYBLE_EVT_GATTC_HANDLE_VALUE_NTF\000"
 7529      455F4556 
 7529      545F4741 
 7529      5454435F 
 7529      48414E44 
 7530              	.LASF23:
 7531 0878 4359424C 		.ascii	"CYBLE_EVT_GAP_AUTH_REQ\000"
 7531      455F4556 
 7531      545F4741 
 7531      505F4155 
 7531      54485F52 
 7532              	.LASF308:
 7533 088f 4359424C 		.ascii	"CYBLE_EVT_GATTC_CHAR_DISCOVERY_COMPLETE\000"
 7533      455F4556 
 7533      545F4741 
 7533      5454435F 
 7533      43484152 
 7534              	.LASF235:
 7535 08b7 4359424C 		.ascii	"CYBLE_CONN_HANDLE_T\000"
 7535      455F434F 
 7535      4E4E5F48 
 7535      414E444C 
 7535      455F5400 
ARM GAS  C:\Users\YBOURA~1\AppData\Local\Temp\cc3HigXd.s 			page 198


 7536              	.LASF445:
 7537 08cb 4359424C 		.ascii	"CYBLE_EVT_HRSC_WRITE_CHAR_RESPONSE\000"
 7537      455F4556 
 7537      545F4852 
 7537      53435F57 
 7537      52495445 
 7538              	.LASF84:
 7539 08ee 4359424C 		.ascii	"CYBLE_ERROR_BT_ON_NOT_COMPLETED\000"
 7539      455F4552 
 7539      524F525F 
 7539      42545F4F 
 7539      4E5F4E4F 
 7540              	.LASF387:
 7541 090e 4359424C 		.ascii	"CYBLE_EVT_CSCSC_NOTIFICATION\000"
 7541      455F4556 
 7541      545F4353 
 7541      4353435F 
 7541      4E4F5449 
 7542              	.LASF518:
 7543 092b 4359424C 		.ascii	"CYBLE_EVT_UDSC_INDICATION\000"
 7543      455F4556 
 7543      545F5544 
 7543      53435F49 
 7543      4E444943 
 7544              	.LASF130:
 7545 0945 4359424C 		.ascii	"CYBLE_GAP_IOCAP_DISPLAY_ONLY\000"
 7545      455F4741 
 7545      505F494F 
 7545      4341505F 
 7545      44495350 
 7546              	.LASF631:
 7547 0962 6379426C 		.ascii	"cyBle_disCount\000"
 7547      655F6469 
 7547      73436F75 
 7547      6E7400
 7548              	.LASF351:
 7549 0971 4359424C 		.ascii	"CYBLE_EVT_BMSC_READ_CHAR_RESPONSE\000"
 7549      455F4556 
 7549      545F424D 
 7549      53435F52 
 7549      4541445F 
 7550              	.LASF104:
 7551 0993 4359424C 		.ascii	"CYBLE_LL_PWR_LVL_NEG_3_DBM\000"
 7551      455F4C4C 
 7551      5F505752 
 7551      5F4C564C 
 7551      5F4E4547 
 7552              	.LASF282:
 7553 09ae 64657363 		.ascii	"descrHandle\000"
 7553      7248616E 
 7553      646C6500 
 7554              	.LASF233:
 7555 09ba 62644861 		.ascii	"bdHandle\000"
 7555      6E646C65 
 7555      00
 7556              	.LASF273:
 7557 09c3 4359424C 		.ascii	"CYBLE_DISC_SRVC128_INFO_T\000"
ARM GAS  C:\Users\YBOURA~1\AppData\Local\Temp\cc3HigXd.s 			page 199


 7557      455F4449 
 7557      53435F53 
 7557      52564331 
 7557      32385F49 
 7558              	.LASF356:
 7559 09dd 4359424C 		.ascii	"CYBLE_EVT_CGMSS_INDICATION_CONFIRMED\000"
 7559      455F4556 
 7559      545F4347 
 7559      4D53535F 
 7559      494E4449 
 7560              	.LASF583:
 7561 0a02 4379426C 		.ascii	"CyBle_ReadResponseEventHandler\000"
 7561      655F5265 
 7561      61645265 
 7561      73706F6E 
 7561      73654576 
 7562              	.LASF136:
 7563 0a21 4359424C 		.ascii	"CYBLE_GAP_AUTH_ERROR_PASSKEY_ENTRY_FAILED\000"
 7563      455F4741 
 7563      505F4155 
 7563      54485F45 
 7563      52524F52 
 7564              	.LASF219:
 7565 0a4b 4359424C 		.ascii	"CYBLE_GATT_ERR_ANCS_INVALID_COMMAND\000"
 7565      455F4741 
 7565      54545F45 
 7565      52525F41 
 7565      4E43535F 
 7566              	.LASF573:
 7567 0a6f 4359424C 		.ascii	"CYBLE_SCDI_CUSTOM_CHARACTERISTICS\000"
 7567      455F5343 
 7567      44495F43 
 7567      5553544F 
 7567      4D5F4348 
 7568              	.LASF611:
 7569 0a91 63686172 		.ascii	"charRange\000"
 7569      52616E67 
 7569      6500
 7570              	.LASF348:
 7571 0a9b 4359424C 		.ascii	"CYBLE_EVT_BLSC_READ_DESCR_RESPONSE\000"
 7571      455F4556 
 7571      545F424C 
 7571      53435F52 
 7571      4541445F 
 7572              	.LASF102:
 7573 0abe 4359424C 		.ascii	"CYBLE_LL_PWR_LVL_NEG_12_DBM\000"
 7573      455F4C4C 
 7573      5F505752 
 7573      5F4C564C 
 7573      5F4E4547 
 7574              	.LASF566:
 7575 0ada 4359424C 		.ascii	"CYBLE_GAPC_T\000"
 7575      455F4741 
 7575      50435F54 
 7575      00
 7576              	.LASF369:
 7577 0ae7 4359424C 		.ascii	"CYBLE_EVT_CPSS_INDICATION_DISABLED\000"
ARM GAS  C:\Users\YBOURA~1\AppData\Local\Temp\cc3HigXd.s 			page 200


 7577      455F4556 
 7577      545F4350 
 7577      53535F49 
 7577      4E444943 
 7578              	.LASF161:
 7579 0b0a 4359424C 		.ascii	"CYBLE_GATT_XCHNG_MTU_RSP\000"
 7579      455F4741 
 7579      54545F58 
 7579      43484E47 
 7579      5F4D5455 
 7580              	.LASF368:
 7581 0b23 4359424C 		.ascii	"CYBLE_EVT_CPSS_INDICATION_ENABLED\000"
 7581      455F4556 
 7581      545F4350 
 7581      53535F49 
 7581      4E444943 
 7582              	.LASF467:
 7583 0b45 4359424C 		.ascii	"CYBLE_EVT_LNSS_NOTIFICATION_ENABLED\000"
 7583      455F4556 
 7583      545F4C4E 
 7583      53535F4E 
 7583      4F544946 
 7584              	.LASF49:
 7585 0b69 4359424C 		.ascii	"CYBLE_EVT_GATTS_WRITE_CMD_REQ\000"
 7585      455F4556 
 7585      545F4741 
 7585      5454535F 
 7585      57524954 
 7586              	.LASF379:
 7587 0b87 4359424C 		.ascii	"CYBLE_EVT_CPSC_WRITE_DESCR_RESPONSE\000"
 7587      455F4556 
 7587      545F4350 
 7587      53435F57 
 7587      52495445 
 7588              	.LASF4:
 7589 0bab 6C6F6E67 		.ascii	"long int\000"
 7589      20696E74 
 7589      00
 7590              	.LASF468:
 7591 0bb4 4359424C 		.ascii	"CYBLE_EVT_LNSS_NOTIFICATION_DISABLED\000"
 7591      455F4556 
 7591      545F4C4E 
 7591      53535F4E 
 7591      4F544946 
 7592              	.LASF314:
 7593 0bd9 4359424C 		.ascii	"CYBLE_EVT_ANCSC_READ_CHAR_RESPONSE\000"
 7593      455F4556 
 7593      545F414E 
 7593      4353435F 
 7593      52454144 
 7594              	.LASF188:
 7595 0bfc 4359424C 		.ascii	"CYBLE_GATT_PDU_T\000"
 7595      455F4741 
 7595      54545F50 
 7595      44555F54 
 7595      00
 7596              	.LASF482:
ARM GAS  C:\Users\YBOURA~1\AppData\Local\Temp\cc3HigXd.s 			page 201


 7597 0c0d 4359424C 		.ascii	"CYBLE_EVT_PASSC_WRITE_CHAR_RESPONSE\000"
 7597      455F4556 
 7597      545F5041 
 7597      5353435F 
 7597      57524954 
 7598              	.LASF513:
 7599 0c31 4359424C 		.ascii	"CYBLE_EVT_UDSS_INDICATION_CONFIRMED\000"
 7599      455F4556 
 7599      545F5544 
 7599      53535F49 
 7599      4E444943 
 7600              	.LASF126:
 7601 0c55 4359424C 		.ascii	"CYBLE_GAP_SEC_LEVEL_1\000"
 7601      455F4741 
 7601      505F5345 
 7601      435F4C45 
 7601      56454C5F 
 7602              	.LASF127:
 7603 0c6b 4359424C 		.ascii	"CYBLE_GAP_SEC_LEVEL_2\000"
 7603      455F4741 
 7603      505F5345 
 7603      435F4C45 
 7603      56454C5F 
 7604              	.LASF128:
 7605 0c81 4359424C 		.ascii	"CYBLE_GAP_SEC_LEVEL_3\000"
 7605      455F4741 
 7605      505F5345 
 7605      435F4C45 
 7605      56454C5F 
 7606              	.LASF165:
 7607 0c97 4359424C 		.ascii	"CYBLE_GATT_FIND_BY_TYPE_VALUE_RSP\000"
 7607      455F4741 
 7607      54545F46 
 7607      494E445F 
 7607      42595F54 
 7608              	.LASF17:
 7609 0cb9 4359424C 		.ascii	"CYBLE_EVT_STACK_ON\000"
 7609      455F4556 
 7609      545F5354 
 7609      41434B5F 
 7609      4F4E00
 7610              	.LASF91:
 7611 0ccc 4359424C 		.ascii	"CYBLE_ERROR_L2CAP_PSM_NOT_IN_RANGE\000"
 7611      455F4552 
 7611      524F525F 
 7611      4C324341 
 7611      505F5053 
 7612              	.LASF617:
 7613 0cef 6379426C 		.ascii	"cyBle_discInclInfo\000"
 7613      655F6469 
 7613      7363496E 
 7613      636C496E 
 7613      666F00
 7614              	.LASF334:
 7615 0d02 4359424C 		.ascii	"CYBLE_EVT_BCSS_INDICATION_DISABLED\000"
 7615      455F4556 
 7615      545F4243 
ARM GAS  C:\Users\YBOURA~1\AppData\Local\Temp\cc3HigXd.s 			page 202


 7615      53535F49 
 7615      4E444943 
 7616              	.LASF620:
 7617 0d25 6379426C 		.ascii	"cyBle_deviceAddress\000"
 7617      655F6465 
 7617      76696365 
 7617      41646472 
 7617      65737300 
 7618              	.LASF564:
 7619 0d39 7265636F 		.ascii	"reconnAddrCharHandle\000"
 7619      6E6E4164 
 7619      64724368 
 7619      61724861 
 7619      6E646C65 
 7620              	.LASF613:
 7621 0d4e 64697363 		.ascii	"discDescrInfo\000"
 7621      44657363 
 7621      72496E66 
 7621      6F00
 7622              	.LASF415:
 7623 0d5c 4359424C 		.ascii	"CYBLE_EVT_ESSC_WRITE_DESCR_RESPONSE\000"
 7623      455F4556 
 7623      545F4553 
 7623      53435F57 
 7623      52495445 
 7624              	.LASF448:
 7625 0d80 4359424C 		.ascii	"CYBLE_EVT_HTSS_NOTIFICATION_ENABLED\000"
 7625      455F4556 
 7625      545F4854 
 7625      53535F4E 
 7625      4F544946 
 7626              	.LASF193:
 7627 0da4 4359424C 		.ascii	"CYBLE_GATT_ERR_INVALID_PDU\000"
 7627      455F4741 
 7627      54545F45 
 7627      52525F49 
 7627      4E56414C 
 7628              	.LASF635:
 7629 0dbf 2E5C4765 		.ascii	".\\Generated_Source\\PSoC4\\BLE_eventHandler.c\000"
 7629      6E657261 
 7629      7465645F 
 7629      536F7572 
 7629      63655C50 
 7630              	.LASF99:
 7631 0deb 4359424C 		.ascii	"CYBLE_ERROR_CHAR_IS_NOT_DISCOVERED\000"
 7631      455F4552 
 7631      524F525F 
 7631      43484152 
 7631      5F49535F 
 7632              	.LASF516:
 7633 0e0e 4359424C 		.ascii	"CYBLE_EVT_UDSS_READ_CHAR\000"
 7633      455F4556 
 7633      545F5544 
 7633      53535F52 
 7633      4541445F 
 7634              	.LASF625:
 7635 0e27 6379426C 		.ascii	"cyBle_gattc\000"
ARM GAS  C:\Users\YBOURA~1\AppData\Local\Temp\cc3HigXd.s 			page 203


 7635      655F6761 
 7635      74746300 
 7636              	.LASF239:
 7637 0e33 4359424C 		.ascii	"CYBLE_GATT_HANDLE_VALUE_PAIR_T\000"
 7637      455F4741 
 7637      54545F48 
 7637      414E444C 
 7637      455F5641 
 7638              	.LASF602:
 7639 0e52 696E6372 		.ascii	"incrementIndex\000"
 7639      656D656E 
 7639      74496E64 
 7639      657800
 7640              	.LASF116:
 7641 0e61 626C6553 		.ascii	"bleSsChId\000"
 7641      73436849 
 7641      6400
 7642              	.LASF412:
 7643 0e6b 4359424C 		.ascii	"CYBLE_EVT_ESSC_READ_CHAR_RESPONSE\000"
 7643      455F4556 
 7643      545F4553 
 7643      53435F52 
 7643      4541445F 
 7644              	.LASF435:
 7645 0e8d 4359424C 		.ascii	"CYBLE_EVT_HIDSC_NOTIFICATION\000"
 7645      455F4556 
 7645      545F4849 
 7645      4453435F 
 7645      4E4F5449 
 7646              	.LASF61:
 7647 0eaa 4359424C 		.ascii	"CYBLE_EVT_L2CAP_COMMAND_REJ\000"
 7647      455F4556 
 7647      545F4C32 
 7647      4341505F 
 7647      434F4D4D 
 7648              	.LASF171:
 7649 0ec6 4359424C 		.ascii	"CYBLE_GATT_READ_BLOB_RSP\000"
 7649      455F4741 
 7649      54545F52 
 7649      4541445F 
 7649      424C4F42 
 7650              	.LASF202:
 7651 0edf 4359424C 		.ascii	"CYBLE_GATT_ERR_INVALID_ATTRIBUTE_LEN\000"
 7651      455F4741 
 7651      54545F45 
 7651      52525F49 
 7651      4E56414C 
 7652              	.LASF432:
 7653 0f04 4359424C 		.ascii	"CYBLE_EVT_HIDSS_SUSPEND\000"
 7653      455F4556 
 7653      545F4849 
 7653      4453535F 
 7653      53555350 
 7654              	.LASF92:
 7655 0f1c 4359424C 		.ascii	"CYBLE_ERROR_GATT_DB_INVALID_ATTR_HANDLE\000"
 7655      455F4552 
 7655      524F525F 
ARM GAS  C:\Users\YBOURA~1\AppData\Local\Temp\cc3HigXd.s 			page 204


 7655      47415454 
 7655      5F44425F 
 7656              	.LASF0:
 7657 0f44 7369676E 		.ascii	"signed char\000"
 7657      65642063 
 7657      68617200 
 7658              	.LASF101:
 7659 0f50 4359424C 		.ascii	"CYBLE_LL_PWR_LVL_NEG_18_DBM\000"
 7659      455F4C4C 
 7659      5F505752 
 7659      5F4C564C 
 7659      5F4E4547 
 7660              	.LASF338:
 7661 0f6c 4359424C 		.ascii	"CYBLE_EVT_BCSC_READ_DESCR_RESPONSE\000"
 7661      455F4556 
 7661      545F4243 
 7661      53435F52 
 7661      4541445F 
 7662              	.LASF543:
 7663 0f8f 4359424C 		.ascii	"CYBLE_EVT_WSSC_WRITE_DESCR_RESPONSE\000"
 7663      455F4556 
 7663      545F5753 
 7663      53435F57 
 7663      52495445 
 7664              	.LASF331:
 7665 0fb3 4359424C 		.ascii	"CYBLE_EVT_BASC_READ_DESCR_RESPONSE\000"
 7665      455F4556 
 7665      545F4241 
 7665      53435F52 
 7665      4541445F 
 7666              	.LASF162:
 7667 0fd6 4359424C 		.ascii	"CYBLE_GATT_FIND_INFO_REQ\000"
 7667      455F4741 
 7667      54545F46 
 7667      494E445F 
 7667      494E464F 
 7668              	.LASF19:
 7669 0fef 4359424C 		.ascii	"CYBLE_EVT_HARDWARE_ERROR\000"
 7669      455F4556 
 7669      545F4841 
 7669      52445741 
 7669      52455F45 
 7670              	.LASF596:
 7671 1008 4379426C 		.ascii	"CyBle_EventHandler\000"
 7671      655F4576 
 7671      656E7448 
 7671      616E646C 
 7671      657200
 7672              	.LASF73:
 7673 101b 4359424C 		.ascii	"CYBLE_ERROR_OK\000"
 7673      455F4552 
 7673      524F525F 
 7673      4F4B00
 7674              	.LASF114:
 7675 102a 4359424C 		.ascii	"CYBLE_BLESS_PHY_CH_GRP_ID_T\000"
 7675      455F424C 
 7675      4553535F 
ARM GAS  C:\Users\YBOURA~1\AppData\Local\Temp\cc3HigXd.s 			page 205


 7675      5048595F 
 7675      43485F47 
 7676              	.LASF222:
 7677 1046 4359424C 		.ascii	"CYBLE_GATT_ERR_CCCD_IMPROPERLY_CONFIGURED\000"
 7677      455F4741 
 7677      54545F45 
 7677      52525F43 
 7677      4343445F 
 7678              	.LASF40:
 7679 1070 4359424C 		.ascii	"CYBLE_EVT_GATTC_READ_BY_GROUP_TYPE_RSP\000"
 7679      455F4556 
 7679      545F4741 
 7679      5454435F 
 7679      52454144 
 7680              	.LASF545:
 7681 1097 4359424C 		.ascii	"CYBLE_STATE_STOPPED\000"
 7681      455F5354 
 7681      4154455F 
 7681      53544F50 
 7681      50454400 
 7682              	.LASF247:
 7683 10ab 4359424C 		.ascii	"CYBLE_GATTS_ERR_PARAM_T\000"
 7683      455F4741 
 7683      5454535F 
 7683      4552525F 
 7683      50415241 
 7684              	.LASF1:
 7685 10c3 756E7369 		.ascii	"unsigned char\000"
 7685      676E6564 
 7685      20636861 
 7685      7200
 7686              	.LASF39:
 7687 10d1 4359424C 		.ascii	"CYBLE_EVT_GATTC_XCHNG_MTU_RSP\000"
 7687      455F4556 
 7687      545F4741 
 7687      5454435F 
 7687      5843484E 
 7688              	.LASF370:
 7689 10ef 4359424C 		.ascii	"CYBLE_EVT_CPSS_INDICATION_CONFIRMED\000"
 7689      455F4556 
 7689      545F4350 
 7689      53535F49 
 7689      4E444943 
 7690              	.LASF184:
 7691 1113 4359424C 		.ascii	"CYBLE_GATT_HANDLE_VALUE_IND\000"
 7691      455F4741 
 7691      54545F48 
 7691      414E444C 
 7691      455F5641 
 7692              	.LASF367:
 7693 112f 4359424C 		.ascii	"CYBLE_EVT_CPSS_NOTIFICATION_DISABLED\000"
 7693      455F4556 
 7693      545F4350 
 7693      53535F4E 
 7693      4F544946 
 7694              	.LASF558:
 7695 1154 4359424C 		.ascii	"CYBLE_CLIENT_STATE_DISCONNECTED_DISCOVERED\000"
ARM GAS  C:\Users\YBOURA~1\AppData\Local\Temp\cc3HigXd.s 			page 206


 7695      455F434C 
 7695      49454E54 
 7695      5F535441 
 7695      54455F44 
 7696              	.LASF492:
 7697 117f 4359424C 		.ascii	"CYBLE_EVT_RSCSC_INDICATION\000"
 7697      455F4556 
 7697      545F5253 
 7697      4353435F 
 7697      494E4449 
 7698              	.LASF265:
 7699 119a 4359424C 		.ascii	"CYBLE_GATTC_HANDLE_UUID_LIST_PARAM_T\000"
 7699      455F4741 
 7699      5454435F 
 7699      48414E44 
 7699      4C455F55 
 7700              	.LASF542:
 7701 11bf 4359424C 		.ascii	"CYBLE_EVT_WSSC_READ_DESCR_RESPONSE\000"
 7701      455F4556 
 7701      545F5753 
 7701      53435F52 
 7701      4541445F 
 7702              	.LASF528:
 7703 11e2 4359424C 		.ascii	"CYBLE_EVT_WPTSS_INDICATION_DISABLED\000"
 7703      455F4556 
 7703      545F5750 
 7703      5453535F 
 7703      494E4449 
 7704              	.LASF68:
 7705 1206 4359424C 		.ascii	"CYBLE_EVT_L2CAP_CBFC_TX_CREDIT_IND\000"
 7705      455F4556 
 7705      545F4C32 
 7705      4341505F 
 7705      43424643 
 7706              	.LASF357:
 7707 1229 4359424C 		.ascii	"CYBLE_EVT_CGMSS_NOTIFICATION_ENABLED\000"
 7707      455F4556 
 7707      545F4347 
 7707      4D53535F 
 7707      4E4F5449 
 7708              	.LASF286:
 7709 124e 4359424C 		.ascii	"CYBLE_GATTC_T\000"
 7709      455F4741 
 7709      5454435F 
 7709      5400
 7710              	.LASF298:
 7711 125c 4359424C 		.ascii	"CYBLE_EVT_GATTC_INDICATION\000"
 7711      455F4556 
 7711      545F4741 
 7711      5454435F 
 7711      494E4449 
 7712              	.LASF246:
 7713 1277 6572726F 		.ascii	"errorCode\000"
 7713      72436F64 
 7713      6500
 7714              	.LASF610:
 7715 1281 4379426C 		.ascii	"CyBle_GetCharRange\000"
ARM GAS  C:\Users\YBOURA~1\AppData\Local\Temp\cc3HigXd.s 			page 207


 7715      655F4765 
 7715      74436861 
 7715      7252616E 
 7715      676500
 7716              	.LASF145:
 7717 1294 4359424C 		.ascii	"CYBLE_GAP_AUTH_ERROR_INVALID_PARAMETERS\000"
 7717      455F4741 
 7717      505F4155 
 7717      54485F45 
 7717      52524F52 
 7718              	.LASF267:
 7719 12bc 75756964 		.ascii	"uuidFormat\000"
 7719      466F726D 
 7719      617400
 7720              	.LASF499:
 7721 12c7 4359424C 		.ascii	"CYBLE_EVT_SCPSS_NOTIFICATION_ENABLED\000"
 7721      455F4556 
 7721      545F5343 
 7721      5053535F 
 7721      4E4F5449 
 7722              	.LASF65:
 7723 12ec 4359424C 		.ascii	"CYBLE_EVT_L2CAP_CBFC_DISCONN_CNF\000"
 7723      455F4556 
 7723      545F4C32 
 7723      4341505F 
 7723      43424643 
 7724              	.LASF43:
 7725 130d 4359424C 		.ascii	"CYBLE_EVT_GATTC_FIND_BY_TYPE_VALUE_RSP\000"
 7725      455F4556 
 7725      545F4741 
 7725      5454435F 
 7725      46494E44 
 7726              	.LASF310:
 7727 1334 4359424C 		.ascii	"CYBLE_EVT_ANCSS_NOTIFICATION_ENABLED\000"
 7727      455F4556 
 7727      545F414E 
 7727      4353535F 
 7727      4E4F5449 
 7728              	.LASF504:
 7729 1359 4359424C 		.ascii	"CYBLE_EVT_SCPSC_WRITE_DESCR_RESPONSE\000"
 7729      455F4556 
 7729      545F5343 
 7729      5053435F 
 7729      57524954 
 7730              	.LASF14:
 7731 137e 63686172 		.ascii	"char\000"
 7731      00
 7732              	.LASF105:
 7733 1383 4359424C 		.ascii	"CYBLE_LL_PWR_LVL_NEG_2_DBM\000"
 7733      455F4C4C 
 7733      5F505752 
 7733      5F4C564C 
 7733      5F4E4547 
 7734              	.LASF507:
 7735 139e 4359424C 		.ascii	"CYBLE_EVT_TPSC_NOTIFICATION\000"
 7735      455F4556 
 7735      545F5450 
ARM GAS  C:\Users\YBOURA~1\AppData\Local\Temp\cc3HigXd.s 			page 208


 7735      53435F4E 
 7735      4F544946 
 7736              	.LASF177:
 7737 13ba 4359424C 		.ascii	"CYBLE_GATT_WRITE_RSP\000"
 7737      455F4741 
 7737      54545F57 
 7737      52495445 
 7737      5F525350 
 7738              	.LASF46:
 7739 13cf 4359424C 		.ascii	"CYBLE_EVT_GATTC_READ_MULTI_RSP\000"
 7739      455F4556 
 7739      545F4741 
 7739      5454435F 
 7739      52454144 
 7740              	.LASF153:
 7741 13ee 4359424C 		.ascii	"CYBLE_GAP_AUTH_INFO_T\000"
 7741      455F4741 
 7741      505F4155 
 7741      54485F49 
 7741      4E464F5F 
 7742              	.LASF132:
 7743 1404 4359424C 		.ascii	"CYBLE_GAP_IOCAP_KEYBOARD_ONLY\000"
 7743      455F4741 
 7743      505F494F 
 7743      4341505F 
 7743      4B455942 
 7744              	.LASF16:
 7745 1422 4359424C 		.ascii	"CYBLE_EVT_HOST_INVALID\000"
 7745      455F4556 
 7745      545F484F 
 7745      53545F49 
 7745      4E56414C 
 7746              	.LASF213:
 7747 1439 4359424C 		.ascii	"CYBLE_GATT_ERR_MISSING_CRC\000"
 7747      455F4741 
 7747      54545F45 
 7747      52525F4D 
 7747      49535349 
 7748              	.LASF203:
 7749 1454 4359424C 		.ascii	"CYBLE_GATT_ERR_UNLIKELY_ERROR\000"
 7749      455F4741 
 7749      54545F45 
 7749      52525F55 
 7749      4E4C494B 
 7750              	.LASF426:
 7751 1472 4359424C 		.ascii	"CYBLE_EVT_GLSC_READ_DESCR_RESPONSE\000"
 7751      455F4556 
 7751      545F474C 
 7751      53435F52 
 7751      4541445F 
 7752              	.LASF160:
 7753 1495 4359424C 		.ascii	"CYBLE_GATT_XCNHG_MTU_REQ\000"
 7753      455F4741 
 7753      54545F58 
 7753      434E4847 
 7753      5F4D5455 
 7754              	.LASF80:
ARM GAS  C:\Users\YBOURA~1\AppData\Local\Temp\cc3HigXd.s 			page 209


 7755 14ae 4359424C 		.ascii	"CYBLE_ERROR_NO_DEVICE_ENTITY\000"
 7755      455F4552 
 7755      524F525F 
 7755      4E4F5F44 
 7755      45564943 
 7756              	.LASF45:
 7757 14cb 4359424C 		.ascii	"CYBLE_EVT_GATTC_READ_BLOB_RSP\000"
 7757      455F4556 
 7757      545F4741 
 7757      5454435F 
 7757      52454144 
 7758              	.LASF451:
 7759 14e9 4359424C 		.ascii	"CYBLE_EVT_HTSS_INDICATION_DISABLED\000"
 7759      455F4556 
 7759      545F4854 
 7759      53535F49 
 7759      4E444943 
 7760              	.LASF498:
 7761 150c 4359424C 		.ascii	"CYBLE_EVT_RTUSC_READ_CHAR_RESPONSE\000"
 7761      455F4556 
 7761      545F5254 
 7761      5553435F 
 7761      52454144 
 7762              	.LASF619:
 7763 152f 6379426C 		.ascii	"cyBle_eventHandlerFlag\000"
 7763      655F6576 
 7763      656E7448 
 7763      616E646C 
 7763      6572466C 
 7764              	.LASF52:
 7765 1546 4359424C 		.ascii	"CYBLE_EVT_GATTC_EXEC_WRITE_RSP\000"
 7765      455F4556 
 7765      545F4741 
 7765      5454435F 
 7765      45584543 
 7766              	.LASF207:
 7767 1565 4359424C 		.ascii	"CYBLE_GATT_ERR_HEART_RATE_CONTROL_POINT_NOT_SUPPORT"
 7767      455F4741 
 7767      54545F45 
 7767      52525F48 
 7767      45415254 
 7768 1598 454400   		.ascii	"ED\000"
 7769              	.LASF539:
 7770 159b 4359424C 		.ascii	"CYBLE_EVT_WSSS_INDICATION_CONFIRMED\000"
 7770      455F4556 
 7770      545F5753 
 7770      53535F49 
 7770      4E444943 
 7771              	.LASF200:
 7772 15bf 4359424C 		.ascii	"CYBLE_GATT_ERR_ATTRIBUTE_NOT_LONG\000"
 7772      455F4741 
 7772      54545F45 
 7772      52525F41 
 7772      54545249 
 7773              	.LASF399:
 7774 15e1 4359424C 		.ascii	"CYBLE_EVT_CTSC_WRITE_DESCR_RESPONSE\000"
 7774      455F4556 
ARM GAS  C:\Users\YBOURA~1\AppData\Local\Temp\cc3HigXd.s 			page 210


 7774      545F4354 
 7774      53435F57 
 7774      52495445 
 7775              	.LASF392:
 7776 1605 4359424C 		.ascii	"CYBLE_EVT_CSCSC_WRITE_DESCR_RESPONSE\000"
 7776      455F4556 
 7776      545F4353 
 7776      4353435F 
 7776      57524954 
 7777              	.LASF552:
 7778 162a 4359424C 		.ascii	"CYBLE_CLIENT_STATE_SRVC_DISCOVERING\000"
 7778      455F434C 
 7778      49454E54 
 7778      5F535441 
 7778      54455F53 
 7779              	.LASF574:
 7780 164e 4359424C 		.ascii	"CYBLE_SCDI_COUNT\000"
 7780      455F5343 
 7780      44495F43 
 7780      4F554E54 
 7780      00
 7781              	.LASF129:
 7782 165f 4359424C 		.ascii	"CYBLE_GAP_SEC_LEVEL_MASK\000"
 7782      455F4741 
 7782      505F5345 
 7782      435F4C45 
 7782      56454C5F 
 7783              	.LASF512:
 7784 1678 4359424C 		.ascii	"CYBLE_EVT_UDSS_INDICATION_DISABLED\000"
 7784      455F4556 
 7784      545F5544 
 7784      53535F49 
 7784      4E444943 
 7785              	.LASF274:
 7786 169b 696E636C 		.ascii	"inclDefHandle\000"
 7786      44656648 
 7786      616E646C 
 7786      6500
 7787              	.LASF57:
 7788 16a9 4359424C 		.ascii	"CYBLE_EVT_GATTC_STOP_CMD_COMPLETE\000"
 7788      455F4556 
 7788      545F4741 
 7788      5454435F 
 7788      53544F50 
 7789              	.LASF632:
 7790 16cb 6379426C 		.ascii	"cyBle_gapc\000"
 7790      655F6761 
 7790      706300
 7791              	.LASF373:
 7792 16d6 4359424C 		.ascii	"CYBLE_EVT_CPSS_CHAR_WRITE\000"
 7792      455F4556 
 7792      545F4350 
 7792      53535F43 
 7792      4841525F 
 7793              	.LASF440:
 7794 16f0 4359424C 		.ascii	"CYBLE_EVT_HRSS_ENERGY_EXPENDED_RESET\000"
 7794      455F4556 
ARM GAS  C:\Users\YBOURA~1\AppData\Local\Temp\cc3HigXd.s 			page 211


 7794      545F4852 
 7794      53535F45 
 7794      4E455247 
 7795              	.LASF221:
 7796 1715 4359424C 		.ascii	"CYBLE_GATT_ERR_ANCS_ACTION_FAILED\000"
 7796      455F4741 
 7796      54545F45 
 7796      52525F41 
 7796      4E43535F 
 7797              	.LASF403:
 7798 1737 4359424C 		.ascii	"CYBLE_EVT_ESSS_NOTIFICATION_DISABLED\000"
 7798      455F4556 
 7798      545F4553 
 7798      53535F4E 
 7798      4F544946 
 7799              	.LASF526:
 7800 175c 4359424C 		.ascii	"CYBLE_EVT_WPTSS_NOTIFICATION_DISABLED\000"
 7800      455F4556 
 7800      545F5750 
 7800      5453535F 
 7800      4E4F5449 
 7801              	.LASF563:
 7802 1782 70657269 		.ascii	"periphPrivacyCharHandle\000"
 7802      70685072 
 7802      69766163 
 7802      79436861 
 7802      7248616E 
 7803              	.LASF275:
 7804 179a 696E636C 		.ascii	"inclHandleRange\000"
 7804      48616E64 
 7804      6C655261 
 7804      6E676500 
 7805              	.LASF343:
 7806 17aa 4359424C 		.ascii	"CYBLE_EVT_BLSS_NOTIFICATION_ENABLED\000"
 7806      455F4556 
 7806      545F424C 
 7806      53535F4E 
 7806      4F544946 
 7807              	.LASF159:
 7808 17ce 4359424C 		.ascii	"CYBLE_GATT_ERROR_RSP\000"
 7808      455F4741 
 7808      54545F45 
 7808      52524F52 
 7808      5F525350 
 7809              	.LASF74:
 7810 17e3 4359424C 		.ascii	"CYBLE_ERROR_INVALID_PARAMETER\000"
 7810      455F4552 
 7810      524F525F 
 7810      494E5641 
 7810      4C49445F 
 7811              	.LASF411:
 7812 1801 4359424C 		.ascii	"CYBLE_EVT_ESSC_INDICATION\000"
 7812      455F4556 
 7812      545F4553 
 7812      53435F49 
 7812      4E444943 
 7813              	.LASF317:
ARM GAS  C:\Users\YBOURA~1\AppData\Local\Temp\cc3HigXd.s 			page 212


 7814 181b 4359424C 		.ascii	"CYBLE_EVT_ANCSC_WRITE_DESCR_RESPONSE\000"
 7814      455F4556 
 7814      545F414E 
 7814      4353435F 
 7814      57524954 
 7815              	.LASF510:
 7816 1840 4359424C 		.ascii	"CYBLE_EVT_TPSC_WRITE_DESCR_RESPONSE\000"
 7816      455F4556 
 7816      545F5450 
 7816      53435F57 
 7816      52495445 
 7817              	.LASF494:
 7818 1864 4359424C 		.ascii	"CYBLE_EVT_RSCSC_WRITE_CHAR_RESPONSE\000"
 7818      455F4556 
 7818      545F5253 
 7818      4353435F 
 7818      57524954 
 7819              	.LASF441:
 7820 1888 4359424C 		.ascii	"CYBLE_EVT_HRSS_NOTIFICATION_ENABLED\000"
 7820      455F4556 
 7820      545F4852 
 7820      53535F4E 
 7820      4F544946 
 7821              	.LASF290:
 7822 18ac 626F756E 		.ascii	"boundedDevCount\000"
 7822      64656444 
 7822      6576436F 
 7822      756E7400 
 7823              	.LASF382:
 7824 18bc 4359424C 		.ascii	"CYBLE_EVT_CSCSS_NOTIFICATION_DISABLED\000"
 7824      455F4556 
 7824      545F4353 
 7824      4353535F 
 7824      4E4F5449 
 7825              	.LASF393:
 7826 18e2 4359424C 		.ascii	"CYBLE_EVT_CTSS_NOTIFICATION_ENABLED\000"
 7826      455F4556 
 7826      545F4354 
 7826      53535F4E 
 7826      4F544946 
 7827              	.LASF592:
 7828 1906 4379426C 		.ascii	"CyBle_GapConnUpdateCompleteEventHandler\000"
 7828      655F4761 
 7828      70436F6E 
 7828      6E557064 
 7828      61746543 
 7829              	.LASF488:
 7830 192e 4359424C 		.ascii	"CYBLE_EVT_RSCSS_INDICATION_DISABLED\000"
 7830      455F4556 
 7830      545F5253 
 7830      4353535F 
 7830      494E4449 
 7831              	.LASF530:
 7832 1952 4359424C 		.ascii	"CYBLE_EVT_WPTSS_WRITE_CHAR\000"
 7832      455F4556 
 7832      545F5750 
 7832      5453535F 
ARM GAS  C:\Users\YBOURA~1\AppData\Local\Temp\cc3HigXd.s 			page 213


 7832      57524954 
 7833              	.LASF461:
 7834 196d 4359424C 		.ascii	"CYBLE_EVT_LLSS_WRITE_CHAR_REQ\000"
 7834      455F4556 
 7834      545F4C4C 
 7834      53535F57 
 7834      52495445 
 7835              	.LASF76:
 7836 198b 4359424C 		.ascii	"CYBLE_ERROR_MEMORY_ALLOCATION_FAILED\000"
 7836      455F4552 
 7836      524F525F 
 7836      4D454D4F 
 7836      52595F41 
 7837              	.LASF446:
 7838 19b0 4359424C 		.ascii	"CYBLE_EVT_HRSC_READ_DESCR_RESPONSE\000"
 7838      455F4556 
 7838      545F4852 
 7838      53435F52 
 7838      4541445F 
 7839              	.LASF621:
 7840 19d3 6379426C 		.ascii	"cyBle_sflashDeviceAddress\000"
 7840      655F7366 
 7840      6C617368 
 7840      44657669 
 7840      63654164 
 7841              	.LASF381:
 7842 19ed 4359424C 		.ascii	"CYBLE_EVT_CSCSS_NOTIFICATION_ENABLED\000"
 7842      455F4556 
 7842      545F4353 
 7842      4353535F 
 7842      4E4F5449 
 7843              	.LASF288:
 7844 1a12 61747456 		.ascii	"attValuesCCCDFlashMemory\000"
 7844      616C7565 
 7844      73434343 
 7844      44466C61 
 7844      73684D65 
 7845              	.LASF256:
 7846 1a2b 61747472 		.ascii	"attrValue\000"
 7846      56616C75 
 7846      6500
 7847              	.LASF636:
 7848 1a35 433A5C55 		.ascii	"C:\\Users\\ybourassa\\Documents\\GitHub\\PROC-OBSER"
 7848      73657273 
 7848      5C79626F 
 7848      75726173 
 7848      73615C44 
 7849 1a63 5645522D 		.ascii	"VER-BLE\\YAB Observer.cydsn\000"
 7849      424C455C 
 7849      59414220 
 7849      4F627365 
 7849      72766572 
 7850              	.LASF597:
 7851 1a7e 4379426C 		.ascii	"CyBle_ReadByGroupEventHandler\000"
 7851      655F5265 
 7851      61644279 
 7851      47726F75 
ARM GAS  C:\Users\YBOURA~1\AppData\Local\Temp\cc3HigXd.s 			page 214


 7851      70457665 
 7852              	.LASF605:
 7853 1a9c 4379426C 		.ascii	"CyBle_ReadByTypeEventHandler\000"
 7853      655F5265 
 7853      61644279 
 7853      54797065 
 7853      4576656E 
 7854              	.LASF186:
 7855 1ab9 4359424C 		.ascii	"CYBLE_GATT_SIGNED_WRITE_CMD\000"
 7855      455F4741 
 7855      54545F53 
 7855      49474E45 
 7855      445F5752 
 7856              	.LASF434:
 7857 1ad5 4359424C 		.ascii	"CYBLE_EVT_HIDSS_REPORT_CHAR_WRITE\000"
 7857      455F4556 
 7857      545F4849 
 7857      4453535F 
 7857      5245504F 
 7858              	.LASF333:
 7859 1af7 4359424C 		.ascii	"CYBLE_EVT_BCSS_INDICATION_ENABLED\000"
 7859      455F4556 
 7859      545F4243 
 7859      53535F49 
 7859      4E444943 
 7860              	.LASF214:
 7861 1b19 4359424C 		.ascii	"CYBLE_GATTS_ERR_CCCD_IMPROPERLY_CONFIGURED\000"
 7861      455F4741 
 7861      5454535F 
 7861      4552525F 
 7861      43434344 
 7862              	.LASF603:
 7863 1b44 4379426C 		.ascii	"CyBle_GapcDiscoverCharacteristicsEventHandler\000"
 7863      655F4761 
 7863      70634469 
 7863      73636F76 
 7863      65724368 
 7864              	.LASF534:
 7865 1b72 4359424C 		.ascii	"CYBLE_EVT_WPTSC_READ_CHAR_RESPONSE\000"
 7865      455F4556 
 7865      545F5750 
 7865      5453435F 
 7865      52454144 
 7866              	.LASF182:
 7867 1b95 4359424C 		.ascii	"CYBLE_GATT_EXECUTE_WRITE_RSP\000"
 7867      455F4741 
 7867      54545F45 
 7867      58454355 
 7867      54455F57 
 7868              	.LASF96:
 7869 1bb2 4359424C 		.ascii	"CYBLE_ERROR_MAX\000"
 7869      455F4552 
 7869      524F525F 
 7869      4D415800 
 7870              	.LASF473:
 7871 1bc2 4359424C 		.ascii	"CYBLE_EVT_LNSC_WRITE_CHAR_RESPONSE\000"
 7871      455F4556 
ARM GAS  C:\Users\YBOURA~1\AppData\Local\Temp\cc3HigXd.s 			page 215


 7871      545F4C4E 
 7871      53435F57 
 7871      52495445 
 7872              	.LASF60:
 7873 1be5 4359424C 		.ascii	"CYBLE_EVT_L2CAP_CONN_PARAM_UPDATE_RSP\000"
 7873      455F4556 
 7873      545F4C32 
 7873      4341505F 
 7873      434F4E4E 
 7874              	.LASF147:
 7875 1c0b 4359424C 		.ascii	"CYBLE_GAP_AUTH_ERROR_LINK_DISCONNECTED\000"
 7875      455F4741 
 7875      505F4155 
 7875      54485F45 
 7875      52524F52 
 7876              	.LASF324:
 7877 1c32 4359424C 		.ascii	"CYBLE_EVT_ANSC_WRITE_CHAR_RESPONSE\000"
 7877      455F4556 
 7877      545F414E 
 7877      53435F57 
 7877      52495445 
 7878              	.LASF515:
 7879 1c55 4359424C 		.ascii	"CYBLE_EVT_UDSS_NOTIFICATION_DISABLED\000"
 7879      455F4556 
 7879      545F5544 
 7879      53535F4E 
 7879      4F544946 
 7880              	.LASF287:
 7881 1c7a 73746163 		.ascii	"stackFlashptr\000"
 7881      6B466C61 
 7881      73687074 
 7881      7200
 7882              	.LASF408:
 7883 1c88 4359424C 		.ascii	"CYBLE_EVT_ESSS_EXEC_WRITE_REQ\000"
 7883      455F4556 
 7883      545F4553 
 7883      53535F45 
 7883      5845435F 
 7884              	.LASF276:
 7885 1ca6 4359424C 		.ascii	"CYBLE_DISC_INCL_INFO_T\000"
 7885      455F4449 
 7885      53435F49 
 7885      4E434C5F 
 7885      494E464F 
 7886              	.LASF283:
 7887 1cbd 4359424C 		.ascii	"CYBLE_DISC_DESCR_INFO_T\000"
 7887      455F4449 
 7887      53435F44 
 7887      45534352 
 7887      5F494E46 
 7888              	.LASF240:
 7889 1cd5 73746172 		.ascii	"startHandle\000"
 7889      7448616E 
 7889      646C6500 
 7890              	.LASF208:
 7891 1ce1 4359424C 		.ascii	"CYBLE_GATT_ERR_USER_DATA_ACCESS_NOT_PERMITTED\000"
 7891      455F4741 
ARM GAS  C:\Users\YBOURA~1\AppData\Local\Temp\cc3HigXd.s 			page 216


 7891      54545F45 
 7891      52525F55 
 7891      5345525F 
 7892              	.LASF264:
 7893 1d0f 62797465 		.ascii	"byteCount\000"
 7893      436F756E 
 7893      7400
 7894              	.LASF568:
 7895 1d19 4359424C 		.ascii	"CYBLE_SRVI_GATT\000"
 7895      455F5352 
 7895      56495F47 
 7895      41545400 
 7896              	.LASF26:
 7897 1d29 4359424C 		.ascii	"CYBLE_EVT_GAP_AUTH_COMPLETE\000"
 7897      455F4556 
 7897      545F4741 
 7897      505F4155 
 7897      54485F43 
 7898              	.LASF483:
 7899 1d45 4359424C 		.ascii	"CYBLE_EVT_PASSC_READ_DESCR_RESPONSE\000"
 7899      455F4556 
 7899      545F5041 
 7899      5353435F 
 7899      52454144 
 7900              	.LASF414:
 7901 1d69 4359424C 		.ascii	"CYBLE_EVT_ESSC_READ_DESCR_RESPONSE\000"
 7901      455F4556 
 7901      545F4553 
 7901      53435F52 
 7901      4541445F 
 7902              	.LASF27:
 7903 1d8c 4359424C 		.ascii	"CYBLE_EVT_GAP_AUTH_FAILED\000"
 7903      455F4556 
 7903      545F4741 
 7903      505F4155 
 7903      54485F46 
 7904              	.LASF433:
 7905 1da6 4359424C 		.ascii	"CYBLE_EVT_HIDSS_EXIT_SUSPEND\000"
 7905      455F4556 
 7905      545F4849 
 7905      4453535F 
 7905      45584954 
 7906              	.LASF261:
 7907 1dc3 4359424C 		.ascii	"CYBLE_GATTC_READ_BY_GRP_RSP_PARAM_T\000"
 7907      455F4741 
 7907      5454435F 
 7907      52454144 
 7907      5F42595F 
 7908              	.LASF175:
 7909 1de7 4359424C 		.ascii	"CYBLE_GATT_READ_BY_GROUP_RSP\000"
 7909      455F4741 
 7909      54545F52 
 7909      4541445F 
 7909      42595F47 
 7910              	.LASF77:
 7911 1e04 4359424C 		.ascii	"CYBLE_ERROR_INSUFFICIENT_RESOURCES\000"
 7911      455F4552 
ARM GAS  C:\Users\YBOURA~1\AppData\Local\Temp\cc3HigXd.s 			page 217


 7911      524F525F 
 7911      494E5355 
 7911      46464943 
 7912              	.LASF486:
 7913 1e27 4359424C 		.ascii	"CYBLE_EVT_RSCSS_NOTIFICATION_DISABLED\000"
 7913      455F4556 
 7913      545F5253 
 7913      4353535F 
 7913      4E4F5449 
 7914              	.LASF212:
 7915 1e4d 4359424C 		.ascii	"CYBLE_GATT_ERR_OP_CODE_NOT_SUPPORTED\000"
 7915      455F4741 
 7915      54545F45 
 7915      52525F4F 
 7915      505F434F 
 7916              	.LASF437:
 7917 1e72 4359424C 		.ascii	"CYBLE_EVT_HIDSC_WRITE_CHAR_RESPONSE\000"
 7917      455F4556 
 7917      545F4849 
 7917      4453435F 
 7917      57524954 
 7918              	.LASF108:
 7919 1e96 4359424C 		.ascii	"CYBLE_LL_PWR_LVL_3_DBM\000"
 7919      455F4C4C 
 7919      5F505752 
 7919      5F4C564C 
 7919      5F335F44 
 7920              	.LASF5:
 7921 1ead 6C6F6E67 		.ascii	"long unsigned int\000"
 7921      20756E73 
 7921      69676E65 
 7921      6420696E 
 7921      7400
 7922              	.LASF168:
 7923 1ebf 4359424C 		.ascii	"CYBLE_GATT_READ_REQ\000"
 7923      455F4741 
 7923      54545F52 
 7923      4541445F 
 7923      52455100 
 7924              	.LASF582:
 7925 1ed3 4379426C 		.ascii	"CyBle_IndicationEventHandler\000"
 7925      655F496E 
 7925      64696361 
 7925      74696F6E 
 7925      4576656E 
 7926              	.LASF460:
 7927 1ef0 4359424C 		.ascii	"CYBLE_EVT_IASS_WRITE_CHAR_CMD\000"
 7927      455F4556 
 7927      545F4941 
 7927      53535F57 
 7927      52495445 
 7928              	.LASF154:
 7929 1f0e 73746174 		.ascii	"status\000"
 7929      757300
 7930              	.LASF106:
 7931 1f15 4359424C 		.ascii	"CYBLE_LL_PWR_LVL_NEG_1_DBM\000"
 7931      455F4C4C 
ARM GAS  C:\Users\YBOURA~1\AppData\Local\Temp\cc3HigXd.s 			page 218


 7931      5F505752 
 7931      5F4C564C 
 7931      5F4E4547 
 7932              	.LASF527:
 7933 1f30 4359424C 		.ascii	"CYBLE_EVT_WPTSS_INDICATION_ENABLED\000"
 7933      455F4556 
 7933      545F5750 
 7933      5453535F 
 7933      494E4449 
 7934              	.LASF142:
 7935 1f53 4359424C 		.ascii	"CYBLE_GAP_AUTH_ERROR_COMMAND_NOT_SUPPORTED\000"
 7935      455F4741 
 7935      505F4155 
 7935      54485F45 
 7935      52524F52 
 7936              	.LASF138:
 7937 1f7e 4359424C 		.ascii	"CYBLE_GAP_AUTH_ERROR_AUTHENTICATION_REQ_NOT_MET\000"
 7937      455F4741 
 7937      505F4155 
 7937      54485F45 
 7937      52524F52 
 7938              	.LASF281:
 7939 1fae 4359424C 		.ascii	"CYBLE_SRVR_CHAR_INFO_T\000"
 7939      455F5352 
 7939      56525F43 
 7939      4841525F 
 7939      494E464F 
 7940              	.LASF183:
 7941 1fc5 4359424C 		.ascii	"CYBLE_GATT_HANDLE_VALUE_NTF\000"
 7941      455F4741 
 7941      54545F48 
 7941      414E444C 
 7941      455F5641 
 7942              	.LASF323:
 7943 1fe1 4359424C 		.ascii	"CYBLE_EVT_ANSC_READ_CHAR_RESPONSE\000"
 7943      455F4556 
 7943      545F414E 
 7943      53435F52 
 7943      4541445F 
 7944              	.LASF87:
 7945 2003 4359424C 		.ascii	"CYBLE_ERROR_L2CAP_PSM_ALREADY_REGISTERED\000"
 7945      455F4552 
 7945      524F525F 
 7945      4C324341 
 7945      505F5053 
 7946              	.LASF228:
 7947 202c 4359424C 		.ascii	"CYBLE_UUID128_T\000"
 7947      455F5555 
 7947      49443132 
 7947      385F5400 
 7948              	.LASF607:
 7949 203c 64697363 		.ascii	"discInclInfo\000"
 7949      496E636C 
 7949      496E666F 
 7949      00
 7950              	.LASF453:
 7951 2049 4359424C 		.ascii	"CYBLE_EVT_HTSS_CHAR_WRITE\000"
ARM GAS  C:\Users\YBOURA~1\AppData\Local\Temp\cc3HigXd.s 			page 219


 7951      455F4556 
 7951      545F4854 
 7951      53535F43 
 7951      4841525F 
 7952              	.LASF218:
 7953 2063 4359424C 		.ascii	"CYBLE_GATT_ERR_ANCS_UNKNOWN_COMMAND\000"
 7953      455F4741 
 7953      54545F45 
 7953      52525F41 
 7953      4E43535F 
 7954              	.LASF327:
 7955 2087 4359424C 		.ascii	"CYBLE_EVT_BASS_NOTIFICATION_ENABLED\000"
 7955      455F4556 
 7955      545F4241 
 7955      53535F4E 
 7955      4F544946 
 7956              	.LASF401:
 7957 20ab 4359424C 		.ascii	"CYBLE_EVT_DISC_READ_CHAR_RESPONSE\000"
 7957      455F4556 
 7957      545F4449 
 7957      53435F52 
 7957      4541445F 
 7958              	.LASF400:
 7959 20cd 4359424C 		.ascii	"CYBLE_EVT_CTSC_WRITE_CHAR_RESPONSE\000"
 7959      455F4556 
 7959      545F4354 
 7959      53435F57 
 7959      52495445 
 7960              	.LASF479:
 7961 20f0 4359424C 		.ascii	"CYBLE_EVT_PASSS_WRITE_CHAR\000"
 7961      455F4556 
 7961      545F5041 
 7961      5353535F 
 7961      57524954 
 7962              	.LASF377:
 7963 210b 4359424C 		.ascii	"CYBLE_EVT_CPSC_WRITE_CHAR_RESPONSE\000"
 7963      455F4556 
 7963      545F4350 
 7963      53435F57 
 7963      52495445 
 7964              	.LASF32:
 7965 212e 4359424C 		.ascii	"CYBLE_EVT_GAP_CONNECTION_UPDATE_COMPLETE\000"
 7965      455F4556 
 7965      545F4741 
 7965      505F434F 
 7965      4E4E4543 
 7966              	.LASF362:
 7967 2157 4359424C 		.ascii	"CYBLE_EVT_CGMSC_READ_CHAR_RESPONSE\000"
 7967      455F4556 
 7967      545F4347 
 7967      4D53435F 
 7967      52454144 
 7968              	.LASF604:
 7969 217a 64697363 		.ascii	"discCharInfo\000"
 7969      43686172 
 7969      496E666F 
 7969      00
ARM GAS  C:\Users\YBOURA~1\AppData\Local\Temp\cc3HigXd.s 			page 220


 7970              	.LASF226:
 7971 2187 4359424C 		.ascii	"CYBLE_UUID16\000"
 7971      455F5555 
 7971      49443136 
 7971      00
 7972              	.LASF595:
 7973 2194 6379426C 		.ascii	"cyBle_mtuSize\000"
 7973      655F6D74 
 7973      7553697A 
 7973      6500
 7974              	.LASF144:
 7975 21a2 4359424C 		.ascii	"CYBLE_GAP_AUTH_ERROR_REPEATED_ATTEMPTS\000"
 7975      455F4741 
 7975      505F4155 
 7975      54485F45 
 7975      52524F52 
 7976              	.LASF64:
 7977 21c9 4359424C 		.ascii	"CYBLE_EVT_L2CAP_CBFC_DISCONN_IND\000"
 7977      455F4556 
 7977      545F4C32 
 7977      4341505F 
 7977      43424643 
 7978              	.LASF386:
 7979 21ea 4359424C 		.ascii	"CYBLE_EVT_CSCSS_CHAR_WRITE\000"
 7979      455F4556 
 7979      545F4353 
 7979      4353535F 
 7979      43484152 
 7980              	.LASF260:
 7981 2205 61747472 		.ascii	"attrData\000"
 7981      44617461 
 7981      00
 7982              	.LASF559:
 7983 220e 4359424C 		.ascii	"CYBLE_CLIENT_STATE_DISCONNECTED\000"
 7983      455F434C 
 7983      49454E54 
 7983      5F535441 
 7983      54455F44 
 7984              	.LASF493:
 7985 222e 4359424C 		.ascii	"CYBLE_EVT_RSCSC_READ_CHAR_RESPONSE\000"
 7985      455F4556 
 7985      545F5253 
 7985      4353435F 
 7985      52454144 
 7986              	.LASF612:
 7987 2251 4379426C 		.ascii	"CyBle_FindInfoEventHandler\000"
 7987      655F4669 
 7987      6E64496E 
 7987      666F4576 
 7987      656E7448 
 7988              	.LASF24:
 7989 226c 4359424C 		.ascii	"CYBLE_EVT_GAP_PASSKEY_ENTRY_REQUEST\000"
 7989      455F4556 
 7989      545F4741 
 7989      505F5041 
 7989      53534B45 
 7990              	.LASF110:
ARM GAS  C:\Users\YBOURA~1\AppData\Local\Temp\cc3HigXd.s 			page 221


 7991 2290 4359424C 		.ascii	"CYBLE_BLESS_PWR_LVL_T\000"
 7991      455F424C 
 7991      4553535F 
 7991      5057525F 
 7991      4C564C5F 
 7992              	.LASF291:
 7993 22a6 43595F42 		.ascii	"CY_BLE_FLASH_STORAGE\000"
 7993      4C455F46 
 7993      4C415348 
 7993      5F53544F 
 7993      52414745 
 7994              	.LASF371:
 7995 22bb 4359424C 		.ascii	"CYBLE_EVT_CPSS_BROADCAST_ENABLED\000"
 7995      455F4556 
 7995      545F4350 
 7995      53535F42 
 7995      524F4144 
 7996              	.LASF587:
 7997 22dc 4379426C 		.ascii	"CyBle_GattConnectReqHandler\000"
 7997      655F4761 
 7997      7474436F 
 7997      6E6E6563 
 7997      74526571 
 7998              	.LASF572:
 7999 22f8 4359424C 		.ascii	"CYBLE_SCDI_GATT_SERVICE_CHANGED\000"
 7999      455F5343 
 7999      44495F47 
 7999      4154545F 
 7999      53455256 
 8000              	.LASF624:
 8001 2318 6379426C 		.ascii	"cyBle_flashStorage\000"
 8001      655F666C 
 8001      61736853 
 8001      746F7261 
 8001      676500
 8002              	.LASF141:
 8003 232b 4359424C 		.ascii	"CYBLE_GAP_AUTH_ERROR_INSUFFICIENT_ENCRYPTION_KEY_SI"
 8003      455F4741 
 8003      505F4155 
 8003      54485F45 
 8003      52524F52 
 8004 235e 5A4500   		.ascii	"ZE\000"
 8005              	.LASF454:
 8006 2361 4359424C 		.ascii	"CYBLE_EVT_HTSC_NOTIFICATION\000"
 8006      455F4556 
 8006      545F4854 
 8006      53435F4E 
 8006      4F544946 
 8007              	.LASF6:
 8008 237d 6C6F6E67 		.ascii	"long long int\000"
 8008      206C6F6E 
 8008      6720696E 
 8008      7400
 8009              	.LASF586:
 8010 238b 4379426C 		.ascii	"CyBle_GattDisconnectEventHandler\000"
 8010      655F4761 
 8010      74744469 
ARM GAS  C:\Users\YBOURA~1\AppData\Local\Temp\cc3HigXd.s 			page 222


 8010      73636F6E 
 8010      6E656374 
 8011              	.LASF508:
 8012 23ac 4359424C 		.ascii	"CYBLE_EVT_TPSC_READ_CHAR_RESPONSE\000"
 8012      455F4556 
 8012      545F5450 
 8012      53435F52 
 8012      4541445F 
 8013              	.LASF304:
 8014 23ce 4359424C 		.ascii	"CYBLE_EVT_GATTC_CHAR_DUPLICATION\000"
 8014      455F4556 
 8014      545F4741 
 8014      5454435F 
 8014      43484152 
 8015              	.LASF419:
 8016 23ef 4359424C 		.ascii	"CYBLE_EVT_GLSS_NOTIFICATION_ENABLED\000"
 8016      455F4556 
 8016      545F474C 
 8016      53535F4E 
 8016      4F544946 
 8017              	.LASF588:
 8018 2413 73666C61 		.ascii	"sflashDeviceAddress\000"
 8018      73684465 
 8018      76696365 
 8018      41646472 
 8018      65737300 
 8019              	.LASF630:
 8020 2427 6379426C 		.ascii	"cyBle_clientState\000"
 8020      655F636C 
 8020      69656E74 
 8020      53746174 
 8020      6500
 8021              	.LASF198:
 8022 2439 4359424C 		.ascii	"CYBLE_GATT_ERR_PREPARE_WRITE_QUEUE_FULL\000"
 8022      455F4741 
 8022      54545F45 
 8022      52525F50 
 8022      52455041 
 8023              	.LASF88:
 8024 2461 4359424C 		.ascii	"CYBLE_ERROR_L2CAP_PSM_NOT_REGISTERED\000"
 8024      455F4552 
 8024      524F525F 
 8024      4C324341 
 8024      505F5053 
 8025              	.LASF78:
 8026 2486 4359424C 		.ascii	"CYBLE_ERROR_OOB_NOT_AVAILABLE\000"
 8026      455F4552 
 8026      524F525F 
 8026      4F4F425F 
 8026      4E4F545F 
 8027              	.LASF354:
 8028 24a4 4359424C 		.ascii	"CYBLE_EVT_CGMSS_INDICATION_ENABLED\000"
 8028      455F4556 
 8028      545F4347 
 8028      4D53535F 
 8028      494E4449 
 8029              	.LASF13:
ARM GAS  C:\Users\YBOURA~1\AppData\Local\Temp\cc3HigXd.s 			page 223


 8030 24c7 646F7562 		.ascii	"double\000"
 8030      6C6500
 8031              	.LASF93:
 8032 24ce 4359424C 		.ascii	"CYBLE_ERROR_DEVICE_ALREADY_EXISTS\000"
 8032      455F4552 
 8032      524F525F 
 8032      44455649 
 8032      43455F41 
 8033              	.LASF405:
 8034 24f0 4359424C 		.ascii	"CYBLE_EVT_ESSS_INDICATION_DISABLED\000"
 8034      455F4556 
 8034      545F4553 
 8034      53535F49 
 8034      4E444943 
 8035              	.LASF70:
 8036 2513 4359424C 		.ascii	"CYBLE_EVT_PENDING_FLASH_WRITE\000"
 8036      455F4556 
 8036      545F5045 
 8036      4E44494E 
 8036      475F464C 
 8037              	.LASF201:
 8038 2531 4359424C 		.ascii	"CYBLE_GATT_ERR_INSUFFICIENT_ENC_KEY_SIZE\000"
 8038      455F4741 
 8038      54545F45 
 8038      52525F49 
 8038      4E535546 
 8039              	.LASF109:
 8040 255a 4359424C 		.ascii	"CYBLE_LL_PWR_LVL_MAX\000"
 8040      455F4C4C 
 8040      5F505752 
 8040      5F4C564C 
 8040      5F4D4158 
 8041              	.LASF525:
 8042 256f 4359424C 		.ascii	"CYBLE_EVT_WPTSS_NOTIFICATION_ENABLED\000"
 8042      455F4556 
 8042      545F5750 
 8042      5453535F 
 8042      4E4F5449 
 8043              	.LASF561:
 8044 2594 64657669 		.ascii	"deviceNameCharHandle\000"
 8044      63654E61 
 8044      6D654368 
 8044      61724861 
 8044      6E646C65 
 8045              	.LASF250:
 8046 25a9 6F70436F 		.ascii	"opCode\000"
 8046      646500
 8047              	.LASF223:
 8048 25b0 4359424C 		.ascii	"CYBLE_GATT_ERR_PROCEDURE_ALREADY_IN_PROGRESS\000"
 8048      455F4741 
 8048      54545F45 
 8048      52525F50 
 8048      524F4345 
 8049              	.LASF475:
 8050 25dd 4359424C 		.ascii	"CYBLE_EVT_LNSC_WRITE_DESCR_RESPONSE\000"
 8050      455F4556 
 8050      545F4C4E 
ARM GAS  C:\Users\YBOURA~1\AppData\Local\Temp\cc3HigXd.s 			page 224


 8050      53435F57 
 8050      52495445 
 8051              	.LASF462:
 8052 2601 4359424C 		.ascii	"CYBLE_EVT_LLSC_READ_CHAR_RESPONSE\000"
 8052      455F4556 
 8052      545F4C4C 
 8052      53435F52 
 8052      4541445F 
 8053              	.LASF385:
 8054 2623 4359424C 		.ascii	"CYBLE_EVT_CSCSS_INDICATION_CONFIRMATION\000"
 8054      455F4556 
 8054      545F4353 
 8054      4353535F 
 8054      494E4449 
 8055              	.LASF90:
 8056 264b 4359424C 		.ascii	"CYBLE_ERROR_L2CAP_CHANNEL_NOT_FOUND\000"
 8056      455F4552 
 8056      524F525F 
 8056      4C324341 
 8056      505F4348 
 8057              	.LASF81:
 8058 266f 4359424C 		.ascii	"CYBLE_ERROR_REPEATED_ATTEMPTS\000"
 8058      455F4552 
 8058      524F525F 
 8058      52455045 
 8058      41544544 
 8059              	.LASF409:
 8060 268d 4359424C 		.ascii	"CYBLE_EVT_ESSS_DESCR_WRITE\000"
 8060      455F4556 
 8060      545F4553 
 8060      53535F44 
 8060      45534352 
 8061              	.LASF404:
 8062 26a8 4359424C 		.ascii	"CYBLE_EVT_ESSS_INDICATION_ENABLED\000"
 8062      455F4556 
 8062      545F4553 
 8062      53535F49 
 8062      4E444943 
 8063              	.LASF578:
 8064 26ca 4379426C 		.ascii	"CyBle_ValueConfirmation\000"
 8064      655F5661 
 8064      6C756543 
 8064      6F6E6669 
 8064      726D6174 
 8065              	.LASF390:
 8066 26e2 4359424C 		.ascii	"CYBLE_EVT_CSCSC_WRITE_CHAR_RESPONSE\000"
 8066      455F4556 
 8066      545F4353 
 8066      4353435F 
 8066      57524954 
 8067              	.LASF12:
 8068 2706 666C6F61 		.ascii	"float\000"
 8068      7400
 8069              	.LASF502:
 8070 270c 4359424C 		.ascii	"CYBLE_EVT_SCPSC_NOTIFICATION\000"
 8070      455F4556 
 8070      545F5343 
ARM GAS  C:\Users\YBOURA~1\AppData\Local\Temp\cc3HigXd.s 			page 225


 8070      5053435F 
 8070      4E4F5449 
 8071              	.LASF431:
 8072 2729 4359424C 		.ascii	"CYBLE_EVT_HIDSS_REPORT_MODE_ENTER\000"
 8072      455F4556 
 8072      545F4849 
 8072      4453535F 
 8072      5245504F 
 8073              	.LASF410:
 8074 274b 4359424C 		.ascii	"CYBLE_EVT_ESSC_NOTIFICATION\000"
 8074      455F4556 
 8074      545F4553 
 8074      53435F4E 
 8074      4F544946 
 8075              	.LASF94:
 8076 2767 4359424C 		.ascii	"CYBLE_ERROR_FLASH_WRITE_NOT_PERMITED\000"
 8076      455F4552 
 8076      524F525F 
 8076      464C4153 
 8076      485F5752 
 8077              	.LASF429:
 8078 278c 4359424C 		.ascii	"CYBLE_EVT_HIDSS_NOTIFICATION_DISABLED\000"
 8078      455F4556 
 8078      545F4849 
 8078      4453535F 
 8078      4E4F5449 
 8079              	.LASF58:
 8080 27b2 4359424C 		.ascii	"CYBLE_EVT_GATTS_READ_CHAR_VAL_ACCESS_REQ\000"
 8080      455F4556 
 8080      545F4741 
 8080      5454535F 
 8080      52454144 
 8081              	.LASF316:
 8082 27db 4359424C 		.ascii	"CYBLE_EVT_ANCSC_READ_DESCR_RESPONSE\000"
 8082      455F4556 
 8082      545F414E 
 8082      4353435F 
 8082      52454144 
 8083              	.LASF245:
 8084 27ff 6F70636F 		.ascii	"opcode\000"
 8084      646500
 8085              	.LASF197:
 8086 2806 4359424C 		.ascii	"CYBLE_GATT_ERR_INSUFFICIENT_AUTHORIZATION\000"
 8086      455F4741 
 8086      54545F45 
 8086      52525F49 
 8086      4E535546 
 8087              	.LASF238:
 8088 2830 61747472 		.ascii	"attrHandle\000"
 8088      48616E64 
 8088      6C6500
 8089              	.LASF519:
 8090 283b 4359424C 		.ascii	"CYBLE_EVT_UDSC_NOTIFICATION\000"
 8090      455F4556 
 8090      545F5544 
 8090      53435F4E 
 8090      4F544946 
ARM GAS  C:\Users\YBOURA~1\AppData\Local\Temp\cc3HigXd.s 			page 226


 8091              	.LASF533:
 8092 2857 4359424C 		.ascii	"CYBLE_EVT_WPTSC_WRITE_CHAR_RESPONSE\000"
 8092      455F4556 
 8092      545F5750 
 8092      5453435F 
 8092      57524954 
 8093              	.LASF150:
 8094 287b 626F6E64 		.ascii	"bonding\000"
 8094      696E6700 
 8095              	.LASF271:
 8096 2883 75756964 		.ascii	"uuid\000"
 8096      00
 8097              	.LASF249:
 8098 2888 4359424C 		.ascii	"CYBLE_GATTS_WRITE_REQ_PARAM_T\000"
 8098      455F4741 
 8098      5454535F 
 8098      57524954 
 8098      455F5245 
 8099              	.LASF8:
 8100 28a6 756E7369 		.ascii	"unsigned int\000"
 8100      676E6564 
 8100      20696E74 
 8100      00
 8101              	.LASF50:
 8102 28b3 4359424C 		.ascii	"CYBLE_EVT_GATTS_PREP_WRITE_REQ\000"
 8102      455F4556 
 8102      545F4741 
 8102      5454535F 
 8102      50524550 
 8103              	.LASF194:
 8104 28d2 4359424C 		.ascii	"CYBLE_GATT_ERR_INSUFFICIENT_AUTHENTICATION\000"
 8104      455F4741 
 8104      54545F45 
 8104      52525F49 
 8104      4E535546 
 8105              	.LASF394:
 8106 28fd 4359424C 		.ascii	"CYBLE_EVT_CTSS_NOTIFICATION_DISABLED\000"
 8106      455F4556 
 8106      545F4354 
 8106      53535F4E 
 8106      4F544946 
 8107              	.LASF244:
 8108 2922 4359424C 		.ascii	"CYBLE_GATT_XCHG_MTU_PARAM_T\000"
 8108      455F4741 
 8108      54545F58 
 8108      4348475F 
 8108      4D54555F 
 8109              	.LASF341:
 8110 293e 4359424C 		.ascii	"CYBLE_EVT_BLSS_INDICATION_DISABLED\000"
 8110      455F4556 
 8110      545F424C 
 8110      53535F49 
 8110      4E444943 
 8111              	.LASF112:
 8112 2961 4359424C 		.ascii	"CYBLE_LL_CONN_CH_TYPE\000"
 8112      455F4C4C 
 8112      5F434F4E 
ARM GAS  C:\Users\YBOURA~1\AppData\Local\Temp\cc3HigXd.s 			page 227


 8112      4E5F4348 
 8112      5F545950 
 8113              	.LASF500:
 8114 2977 4359424C 		.ascii	"CYBLE_EVT_SCPSS_NOTIFICATION_DISABLED\000"
 8114      455F4556 
 8114      545F5343 
 8114      5053535F 
 8114      4E4F5449 
 8115              	.LASF406:
 8116 299d 4359424C 		.ascii	"CYBLE_EVT_ESSS_INDICATION_CONFIRMATION\000"
 8116      455F4556 
 8116      545F4553 
 8116      53535F49 
 8116      4E444943 
 8117              	.LASF600:
 8118 29c4 666C6167 		.ascii	"flag\000"
 8118      00
 8119              	.LASF272:
 8120 29c9 4359424C 		.ascii	"CYBLE_DISC_SRVC_INFO_T\000"
 8120      455F4449 
 8120      53435F53 
 8120      5256435F 
 8120      494E464F 
 8121              	.LASF211:
 8122 29e0 4359424C 		.ascii	"CYBLE_GATTS_ERR_PROCEDURE_ALREADY_IN_PROGRESS\000"
 8122      455F4741 
 8122      5454535F 
 8122      4552525F 
 8122      50524F43 
 8123              	.LASF121:
 8124 2a0e 4359424C 		.ascii	"CYBLE_GAP_ADV_MODE_TO\000"
 8124      455F4741 
 8124      505F4144 
 8124      565F4D4F 
 8124      44455F54 
 8125              	.LASF601:
 8126 2a24 4379426C 		.ascii	"CyBle_NextInclDiscovery\000"
 8126      655F4E65 
 8126      7874496E 
 8126      636C4469 
 8126      73636F76 
 8127              	.LASF576:
 8128 2a3c 6572725F 		.ascii	"err_param\000"
 8128      70617261 
 8128      6D00
 8129              	.LASF292:
 8130 2a46 4359424C 		.ascii	"CYBLE_AUTHENTICATION_REQUEST_REPLY\000"
 8130      455F4155 
 8130      5448454E 
 8130      54494341 
 8130      54494F4E 
 8131              	.LASF540:
 8132 2a69 4359424C 		.ascii	"CYBLE_EVT_WSSC_INDICATION\000"
 8132      455F4556 
 8132      545F5753 
 8132      53435F49 
 8132      4E444943 
ARM GAS  C:\Users\YBOURA~1\AppData\Local\Temp\cc3HigXd.s 			page 228


 8133              	.LASF86:
 8134 2a83 4359424C 		.ascii	"CYBLE_ERROR_L2CAP_PSM_WRONG_ENCODING\000"
 8134      455F4552 
 8134      524F525F 
 8134      4C324341 
 8134      505F5053 
 8135              	.LASF180:
 8136 2aa8 4359424C 		.ascii	"CYBLE_GATT_PREPARE_WRITE_RSP\000"
 8136      455F4741 
 8136      54545F50 
 8136      52455041 
 8136      52455F57 
 8137              	.LASF344:
 8138 2ac5 4359424C 		.ascii	"CYBLE_EVT_BLSS_NOTIFICATION_DISABLED\000"
 8138      455F4556 
 8138      545F424C 
 8138      53535F4E 
 8138      4F544946 
 8139              	.LASF199:
 8140 2aea 4359424C 		.ascii	"CYBLE_GATT_ERR_ATTRIBUTE_NOT_FOUND\000"
 8140      455F4741 
 8140      54545F45 
 8140      52525F41 
 8140      54545249 
 8141              	.LASF457:
 8142 2b0d 4359424C 		.ascii	"CYBLE_EVT_HTSC_WRITE_CHAR_RESPONSE\000"
 8142      455F4556 
 8142      545F4854 
 8142      53435F57 
 8142      52495445 
 8143              	.LASF633:
 8144 2b30 6379426C 		.ascii	"cyBle_serverInfo\000"
 8144      655F7365 
 8144      72766572 
 8144      496E666F 
 8144      00
 8145              	.LASF263:
 8146 2b41 6C697374 		.ascii	"list\000"
 8146      00
 8147              	.LASF72:
 8148 2b46 4359424C 		.ascii	"CYBLE_EVT_MAX\000"
 8148      455F4556 
 8148      545F4D41 
 8148      5800
 8149              	.LASF33:
 8150 2b54 4359424C 		.ascii	"CYBLE_EVT_GAPC_SCAN_START_STOP\000"
 8150      455F4556 
 8150      545F4741 
 8150      50435F53 
 8150      43414E5F 
 8151              	.LASF609:
 8152 2b73 4379426C 		.ascii	"CyBle_IsDeviceAddressValid\000"
 8152      655F4973 
 8152      44657669 
 8152      63654164 
 8152      64726573 
 8153              	.LASF319:
ARM GAS  C:\Users\YBOURA~1\AppData\Local\Temp\cc3HigXd.s 			page 229


 8154 2b8e 4359424C 		.ascii	"CYBLE_EVT_ANSS_NOTIFICATION_ENABLED\000"
 8154      455F4556 
 8154      545F414E 
 8154      53535F4E 
 8154      4F544946 
 8155              	.LASF557:
 8156 2bb2 4359424C 		.ascii	"CYBLE_CLIENT_STATE_DISCONNECTING\000"
 8156      455F434C 
 8156      49454E54 
 8156      5F535441 
 8156      54455F44 
 8157              	.LASF148:
 8158 2bd3 4359424C 		.ascii	"CYBLE_GAP_AUTH_FAILED_REASON_T\000"
 8158      455F4741 
 8158      505F4155 
 8158      54485F46 
 8158      41494C45 
 8159              	.LASF47:
 8160 2bf2 4359424C 		.ascii	"CYBLE_EVT_GATTS_WRITE_REQ\000"
 8160      455F4556 
 8160      545F4741 
 8160      5454535F 
 8160      57524954 
 8161              	.LASF521:
 8162 2c0c 4359424C 		.ascii	"CYBLE_EVT_UDSC_WRITE_CHAR_RESPONSE\000"
 8162      455F4556 
 8162      545F5544 
 8162      53435F57 
 8162      52495445 
 8163              	.LASF565:
 8164 2c2f 70726566 		.ascii	"prefConnParamCharHandle\000"
 8164      436F6E6E 
 8164      50617261 
 8164      6D436861 
 8164      7248616E 
 8165              	.LASF532:
 8166 2c47 4359424C 		.ascii	"CYBLE_EVT_WPTSC_INDICATION\000"
 8166      455F4556 
 8166      545F5750 
 8166      5453435F 
 8166      494E4449 
 8167              	.LASF25:
 8168 2c62 4359424C 		.ascii	"CYBLE_EVT_GAP_PASSKEY_DISPLAY_REQUEST\000"
 8168      455F4556 
 8168      545F4741 
 8168      505F5041 
 8168      53534B45 
 8169              	.LASF98:
 8170 2c88 4359424C 		.ascii	"CYBLE_ERROR_IND_DISABLED\000"
 8170      455F4552 
 8170      524F525F 
 8170      494E445F 
 8170      44495341 
 8171              	.LASF97:
 8172 2ca1 4359424C 		.ascii	"CYBLE_ERROR_NTF_DISABLED\000"
 8172      455F4552 
 8172      524F525F 
ARM GAS  C:\Users\YBOURA~1\AppData\Local\Temp\cc3HigXd.s 			page 230


 8172      4E54465F 
 8172      44495341 
 8173              	.LASF172:
 8174 2cba 4359424C 		.ascii	"CYBLE_GATT_READ_MULTIPLE_REQ\000"
 8174      455F4741 
 8174      54545F52 
 8174      4541445F 
 8174      4D554C54 
 8175              	.LASF44:
 8176 2cd7 4359424C 		.ascii	"CYBLE_EVT_GATTC_READ_RSP\000"
 8176      455F4556 
 8176      545F4741 
 8176      5454435F 
 8176      52454144 
 8177              	.LASF375:
 8178 2cf0 4359424C 		.ascii	"CYBLE_EVT_CPSC_INDICATION\000"
 8178      455F4556 
 8178      545F4350 
 8178      53435F49 
 8178      4E444943 
 8179              	.LASF196:
 8180 2d0a 4359424C 		.ascii	"CYBLE_GATT_ERR_INVALID_OFFSET\000"
 8180      455F4741 
 8180      54545F45 
 8180      52525F49 
 8180      4E56414C 
 8181              	.LASF166:
 8182 2d28 4359424C 		.ascii	"CYBLE_GATT_READ_BY_TYPE_REQ\000"
 8182      455F4741 
 8182      54545F52 
 8182      4541445F 
 8182      42595F54 
 8183              	.LASF63:
 8184 2d44 4359424C 		.ascii	"CYBLE_EVT_L2CAP_CBFC_CONN_CNF\000"
 8184      455F4556 
 8184      545F4C32 
 8184      4341505F 
 8184      43424643 
 8185              	.LASF352:
 8186 2d62 4359424C 		.ascii	"CYBLE_EVT_BMSC_WRITE_CHAR_RESPONSE\000"
 8186      455F4556 
 8186      545F424D 
 8186      53435F57 
 8186      52495445 
 8187              	.LASF458:
 8188 2d85 4359424C 		.ascii	"CYBLE_EVT_HTSC_READ_DESCR_RESPONSE\000"
 8188      455F4556 
 8188      545F4854 
 8188      53435F52 
 8188      4541445F 
 8189              	.LASF544:
 8190 2da8 4359424C 		.ascii	"CYBLE_DEBUG_EVT_BLESS_INT\000"
 8190      455F4445 
 8190      4255475F 
 8190      4556545F 
 8190      424C4553 
 8191              	.LASF224:
ARM GAS  C:\Users\YBOURA~1\AppData\Local\Temp\cc3HigXd.s 			page 231


 8192 2dc2 4359424C 		.ascii	"CYBLE_GATT_ERR_OUT_OF_RANGE\000"
 8192      455F4741 
 8192      54545F45 
 8192      52525F4F 
 8192      55545F4F 
 8193              	.LASF421:
 8194 2dde 4359424C 		.ascii	"CYBLE_EVT_GLSS_WRITE_CHAR\000"
 8194      455F4556 
 8194      545F474C 
 8194      53535F57 
 8194      52495445 
 8195              	.LASF280:
 8196 2df8 4359424C 		.ascii	"CYBLE_DISC_CHAR_INFO_T\000"
 8196      455F4449 
 8196      53435F43 
 8196      4841525F 
 8196      494E464F 
 8197              	.LASF164:
 8198 2e0f 4359424C 		.ascii	"CYBLE_GATT_FIND_BY_TYPE_VALUE_REQ\000"
 8198      455F4741 
 8198      54545F46 
 8198      494E445F 
 8198      42595F54 
 8199              	.LASF560:
 8200 2e31 4359424C 		.ascii	"CYBLE_CLIENT_STATE_T\000"
 8200      455F434C 
 8200      49454E54 
 8200      5F535441 
 8200      54455F54 
 8201              	.LASF103:
 8202 2e46 4359424C 		.ascii	"CYBLE_LL_PWR_LVL_NEG_6_DBM\000"
 8202      455F4C4C 
 8202      5F505752 
 8202      5F4C564C 
 8202      5F4E4547 
 8203              	.LASF268:
 8204 2e61 4359424C 		.ascii	"CYBLE_GATTC_FIND_INFO_RSP_PARAM_T\000"
 8204      455F4741 
 8204      5454435F 
 8204      46494E44 
 8204      5F494E46 
 8205              	.LASF443:
 8206 2e83 4359424C 		.ascii	"CYBLE_EVT_HRSC_NOTIFICATION\000"
 8206      455F4556 
 8206      545F4852 
 8206      53435F4E 
 8206      4F544946 
 8207              	.LASF489:
 8208 2e9f 4359424C 		.ascii	"CYBLE_EVT_RSCSS_INDICATION_CONFIRMATION\000"
 8208      455F4556 
 8208      545F5253 
 8208      4353535F 
 8208      494E4449 
 8209              	.LASF562:
 8210 2ec7 61707065 		.ascii	"appearanceCharHandle\000"
 8210      6172616E 
 8210      63654368 
ARM GAS  C:\Users\YBOURA~1\AppData\Local\Temp\cc3HigXd.s 			page 232


 8210      61724861 
 8210      6E646C65 
 8211              	.LASF438:
 8212 2edc 4359424C 		.ascii	"CYBLE_EVT_HIDSC_READ_DESCR_RESPONSE\000"
 8212      455F4556 
 8212      545F4849 
 8212      4453435F 
 8212      52454144 
 8213              	.LASF444:
 8214 2f00 4359424C 		.ascii	"CYBLE_EVT_HRSC_READ_CHAR_RESPONSE\000"
 8214      455F4556 
 8214      545F4852 
 8214      53435F52 
 8214      4541445F 
 8215              	.LASF329:
 8216 2f22 4359424C 		.ascii	"CYBLE_EVT_BASC_NOTIFICATION\000"
 8216      455F4556 
 8216      545F4241 
 8216      53435F4E 
 8216      4F544946 
 8217              	.LASF135:
 8218 2f3e 4359424C 		.ascii	"CYBLE_GAP_AUTH_ERROR_NONE\000"
 8218      455F4741 
 8218      505F4155 
 8218      54485F45 
 8218      52524F52 
 8219              	.LASF31:
 8220 2f58 4359424C 		.ascii	"CYBLE_EVT_GAP_ENCRYPT_CHANGE\000"
 8220      455F4556 
 8220      545F4741 
 8220      505F454E 
 8220      43525950 
 8221              	.LASF230:
 8222 2f75 75756964 		.ascii	"uuid128\000"
 8222      31323800 
 8223              	.LASF476:
 8224 2f7d 4359424C 		.ascii	"CYBLE_EVT_NDCSC_READ_CHAR_RESPONSE\000"
 8224      455F4556 
 8224      545F4E44 
 8224      4353435F 
 8224      52454144 
 8225              	.LASF305:
 8226 2fa0 4359424C 		.ascii	"CYBLE_EVT_GATTC_DESCR_DUPLICATION\000"
 8226      455F4556 
 8226      545F4741 
 8226      5454435F 
 8226      44455343 
 8227              	.LASF38:
 8228 2fc2 4359424C 		.ascii	"CYBLE_EVT_GATTS_XCNHG_MTU_REQ\000"
 8228      455F4556 
 8228      545F4741 
 8228      5454535F 
 8228      58434E48 
 8229              	.LASF514:
 8230 2fe0 4359424C 		.ascii	"CYBLE_EVT_UDSS_NOTIFICATION_ENABLED\000"
 8230      455F4556 
 8230      545F5544 
ARM GAS  C:\Users\YBOURA~1\AppData\Local\Temp\cc3HigXd.s 			page 233


 8230      53535F4E 
 8230      4F544946 
 8231              	.LASF163:
 8232 3004 4359424C 		.ascii	"CYBLE_GATT_FIND_INFO_RSP\000"
 8232      455F4741 
 8232      54545F46 
 8232      494E445F 
 8232      494E464F 
 8233              	.LASF137:
 8234 301d 4359424C 		.ascii	"CYBLE_GAP_AUTH_ERROR_OOB_DATA_NOT_AVAILABLE\000"
 8234      455F4741 
 8234      505F4155 
 8234      54485F45 
 8234      52524F52 
 8235              	.LASF466:
 8236 3049 4359424C 		.ascii	"CYBLE_EVT_LNSS_INDICATION_CONFIRMED\000"
 8236      455F4556 
 8236      545F4C4E 
 8236      53535F49 
 8236      4E444943 
 8237              	.LASF538:
 8238 306d 4359424C 		.ascii	"CYBLE_EVT_WSSS_INDICATION_DISABLED\000"
 8238      455F4556 
 8238      545F5753 
 8238      53535F49 
 8238      4E444943 
 8239              	.LASF326:
 8240 3090 4359424C 		.ascii	"CYBLE_EVT_ANSC_WRITE_DESCR_RESPONSE\000"
 8240      455F4556 
 8240      545F414E 
 8240      53435F57 
 8240      52495445 
 8241              	.LASF472:
 8242 30b4 4359424C 		.ascii	"CYBLE_EVT_LNSC_READ_CHAR_RESPONSE\000"
 8242      455F4556 
 8242      545F4C4E 
 8242      53435F52 
 8242      4541445F 
 8243              	.LASF418:
 8244 30d6 4359424C 		.ascii	"CYBLE_EVT_GLSS_INDICATION_CONFIRMED\000"
 8244      455F4556 
 8244      545F474C 
 8244      53535F49 
 8244      4E444943 
 8245              	.LASF158:
 8246 30fa 4359424C 		.ascii	"CYBLE_GAP_CONN_PARAM_UPDATED_IN_CONTROLLER_T\000"
 8246      455F4741 
 8246      505F434F 
 8246      4E4E5F50 
 8246      4152414D 
 8247              	.LASF550:
 8248 3127 4359424C 		.ascii	"CYBLE_STATE_T\000"
 8248      455F5354 
 8248      4154455F 
 8248      5400
 8249              	.LASF296:
 8250 3135 4359424C 		.ascii	"CYBLE_EVT_GATTS_INDICATION_ENABLED\000"
ARM GAS  C:\Users\YBOURA~1\AppData\Local\Temp\cc3HigXd.s 			page 234


 8250      455F4556 
 8250      545F4741 
 8250      5454535F 
 8250      494E4449 
 8251              	.LASF7:
 8252 3158 6C6F6E67 		.ascii	"long long unsigned int\000"
 8252      206C6F6E 
 8252      6720756E 
 8252      7369676E 
 8252      65642069 
 8253              	.LASF190:
 8254 316f 4359424C 		.ascii	"CYBLE_GATT_ERR_INVALID_HANDLE\000"
 8254      455F4741 
 8254      54545F45 
 8254      52525F49 
 8254      4E56414C 
 8255              	.LASF18:
 8256 318d 4359424C 		.ascii	"CYBLE_EVT_TIMEOUT\000"
 8256      455F4556 
 8256      545F5449 
 8256      4D454F55 
 8256      5400
 8257              	.LASF398:
 8258 319f 4359424C 		.ascii	"CYBLE_EVT_CTSC_READ_DESCR_RESPONSE\000"
 8258      455F4556 
 8258      545F4354 
 8258      53435F52 
 8258      4541445F 
 8259              	.LASF257:
 8260 31c2 6C656E67 		.ascii	"length\000"
 8260      746800
 8261              	.LASF277:
 8262 31c9 63686172 		.ascii	"charDeclHandle\000"
 8262      4465636C 
 8262      48616E64 
 8262      6C6500
 8263              	.LASF589:
 8264 31d8 73666C61 		.ascii	"sflashAddressValid\000"
 8264      73684164 
 8264      64726573 
 8264      7356616C 
 8264      696400
 8265              	.LASF187:
 8266 31eb 4359424C 		.ascii	"CYBLE_GATT_UNKNOWN_PDU_IND\000"
 8266      455F4741 
 8266      54545F55 
 8266      4E4B4E4F 
 8266      574E5F50 
 8267              	.LASF266:
 8268 3206 68616E64 		.ascii	"handleValueList\000"
 8268      6C655661 
 8268      6C75654C 
 8268      69737400 
 8269              	.LASF100:
 8270 3216 4359424C 		.ascii	"CYBLE_ERROR_INVALID_STATE\000"
 8270      455F4552 
 8270      524F525F 
ARM GAS  C:\Users\YBOURA~1\AppData\Local\Temp\cc3HigXd.s 			page 235


 8270      494E5641 
 8270      4C49445F 
 8271              	.LASF232:
 8272 3230 4359424C 		.ascii	"CYBLE_GATT_DB_ATTR_HANDLE_T\000"
 8272      455F4741 
 8272      54545F44 
 8272      425F4154 
 8272      54525F48 
 8273              	.LASF594:
 8274 324c 626C6553 		.ascii	"bleSsPowerLevel\000"
 8274      73506F77 
 8274      65724C65 
 8274      76656C00 
 8275              	.LASF66:
 8276 325c 4359424C 		.ascii	"CYBLE_EVT_L2CAP_CBFC_DATA_READ\000"
 8276      455F4556 
 8276      545F4C32 
 8276      4341505F 
 8276      43424643 
 8277              	.LASF189:
 8278 327b 4359424C 		.ascii	"CYBLE_GATT_ERR_NONE\000"
 8278      455F4741 
 8278      54545F45 
 8278      52525F4E 
 8278      4F4E4500 
 8279              	.LASF227:
 8280 328f 76616C75 		.ascii	"value\000"
 8280      6500
 8281              	.LASF374:
 8282 3295 4359424C 		.ascii	"CYBLE_EVT_CPSC_NOTIFICATION\000"
 8282      455F4556 
 8282      545F4350 
 8282      53435F4E 
 8282      4F544946 
 8283              	.LASF349:
 8284 32b1 4359424C 		.ascii	"CYBLE_EVT_BLSC_WRITE_DESCR_RESPONSE\000"
 8284      455F4556 
 8284      545F424C 
 8284      53435F57 
 8284      52495445 
 8285              	.LASF255:
 8286 32d5 4359424C 		.ascii	"CYBLE_GATTC_HANDLE_VALUE_IND_PARAM_T\000"
 8286      455F4741 
 8286      5454435F 
 8286      48414E44 
 8286      4C455F56 
 8287              	.LASF471:
 8288 32fa 4359424C 		.ascii	"CYBLE_EVT_LNSC_NOTIFICATION\000"
 8288      455F4556 
 8288      545F4C4E 
 8288      53435F4E 
 8288      4F544946 
 8289              	.LASF229:
 8290 3316 75756964 		.ascii	"uuid16\000"
 8290      313600
 8291              	.LASF615:
 8292 331d 4379426C 		.ascii	"CyBle_ErrorResponseEventHandler\000"
ARM GAS  C:\Users\YBOURA~1\AppData\Local\Temp\cc3HigXd.s 			page 236


 8292      655F4572 
 8292      726F7252 
 8292      6573706F 
 8292      6E736545 
 8293              	.LASF570:
 8294 333d 4359424C 		.ascii	"CYBLE_SRVI_CUSTOMS_END\000"
 8294      455F5352 
 8294      56495F43 
 8294      5553544F 
 8294      4D535F45 
 8295              	.LASF618:
 8296 3354 4379426C 		.ascii	"CyBle_ApplCallback\000"
 8296      655F4170 
 8296      706C4361 
 8296      6C6C6261 
 8296      636B00
 8297              	.LASF396:
 8298 3367 4359424C 		.ascii	"CYBLE_EVT_CTSC_NOTIFICATION\000"
 8298      455F4556 
 8298      545F4354 
 8298      53435F4E 
 8298      4F544946 
 8299              	.LASF251:
 8300 3383 4359424C 		.ascii	"CYBLE_GATTC_ERR_RSP_PARAM_T\000"
 8300      455F4741 
 8300      5454435F 
 8300      4552525F 
 8300      5253505F 
 8301              	.LASF225:
 8302 339f 4359424C 		.ascii	"CYBLE_GATT_ERR_CODE_T\000"
 8302      455F4741 
 8302      54545F45 
 8302      52525F43 
 8302      4F44455F 
 8303              	.LASF417:
 8304 33b5 4359424C 		.ascii	"CYBLE_EVT_GLSS_INDICATION_DISABLED\000"
 8304      455F4556 
 8304      545F474C 
 8304      53535F49 
 8304      4E444943 
 8305              	.LASF122:
 8306 33d8 4359424C 		.ascii	"CYBLE_GAP_SCAN_TO\000"
 8306      455F4741 
 8306      505F5343 
 8306      414E5F54 
 8306      4F00
 8307              	.LASF210:
 8308 33ea 4359424C 		.ascii	"CYBLE_GATT_ERR_HTS_OUT_OF_RANGE\000"
 8308      455F4741 
 8308      54545F45 
 8308      52525F48 
 8308      54535F4F 
 8309              	.LASF303:
 8310 340a 4359424C 		.ascii	"CYBLE_EVT_GATTC_SRVC_DUPLICATION\000"
 8310      455F4556 
 8310      545F4741 
 8310      5454435F 
ARM GAS  C:\Users\YBOURA~1\AppData\Local\Temp\cc3HigXd.s 			page 237


 8310      53525643 
 8311              	.LASF551:
 8312 342b 4359424C 		.ascii	"CYBLE_CLIENT_STATE_CONNECTED\000"
 8312      455F434C 
 8312      49454E54 
 8312      5F535441 
 8312      54455F43 
 8313              	.LASF464:
 8314 3448 4359424C 		.ascii	"CYBLE_EVT_LNSS_INDICATION_ENABLED\000"
 8314      455F4556 
 8314      545F4C4E 
 8314      53535F49 
 8314      4E444943 
 8315              	.LASF120:
 8316 346a 4359424C 		.ascii	"CYBLE_GAP_BD_ADDR_T\000"
 8316      455F4741 
 8316      505F4244 
 8316      5F414444 
 8316      525F5400 
 8317              	.LASF170:
 8318 347e 4359424C 		.ascii	"CYBLE_GATT_READ_BLOB_REQ\000"
 8318      455F4741 
 8318      54545F52 
 8318      4541445F 
 8318      424C4F42 
 8319              	.LASF634:
 8320 3497 474E5520 		.ascii	"GNU C 4.9.3 20150303 (release) [ARM/embedded-4_9-br"
 8320      4320342E 
 8320      392E3320 
 8320      32303135 
 8320      30333033 
 8321 34ca 616E6368 		.ascii	"anch revision 221220] -mcpu=cortex-m0 -mthumb -g -O"
 8321      20726576 
 8321      6973696F 
 8321      6E203232 
 8321      31323230 
 8322 34fd 30202D66 		.ascii	"0 -ffunction-sections -ffat-lto-objects\000"
 8322      66756E63 
 8322      74696F6E 
 8322      2D736563 
 8322      74696F6E 
 8323              	.LASF477:
 8324 3525 4359424C 		.ascii	"CYBLE_EVT_PASSS_NOTIFICATION_ENABLED\000"
 8324      455F4556 
 8324      545F5041 
 8324      5353535F 
 8324      4E4F5449 
 8325              	.LASF248:
 8326 354a 68616E64 		.ascii	"handleValPair\000"
 8326      6C655661 
 8326      6C506169 
 8326      7200
 8327              	.LASF311:
 8328 3558 4359424C 		.ascii	"CYBLE_EVT_ANCSS_NOTIFICATION_DISABLED\000"
 8328      455F4556 
 8328      545F414E 
 8328      4353535F 
ARM GAS  C:\Users\YBOURA~1\AppData\Local\Temp\cc3HigXd.s 			page 238


 8328      4E4F5449 
 8329              	.LASF243:
 8330 357e 636F6E6E 		.ascii	"connHandle\000"
 8330      48616E64 
 8330      6C6500
 8331              	.LASF585:
 8332 3589 4379426C 		.ascii	"CyBle_TimeOutEventHandler\000"
 8332      655F5469 
 8332      6D654F75 
 8332      74457665 
 8332      6E744861 
 8333              	.LASF278:
 8334 35a3 70726F70 		.ascii	"properties\000"
 8334      65727469 
 8334      657300
 8335              	.LASF328:
 8336 35ae 4359424C 		.ascii	"CYBLE_EVT_BASS_NOTIFICATION_DISABLED\000"
 8336      455F4556 
 8336      545F4241 
 8336      53535F4E 
 8336      4F544946 
 8337              	.LASF366:
 8338 35d3 4359424C 		.ascii	"CYBLE_EVT_CPSS_NOTIFICATION_ENABLED\000"
 8338      455F4556 
 8338      545F4350 
 8338      53535F4E 
 8338      4F544946 
 8339              	.LASF140:
 8340 35f7 4359424C 		.ascii	"CYBLE_GAP_AUTH_ERROR_PAIRING_NOT_SUPPORTED\000"
 8340      455F4741 
 8340      505F4155 
 8340      54485F45 
 8340      52524F52 
 8341              	.LASF509:
 8342 3622 4359424C 		.ascii	"CYBLE_EVT_TPSC_READ_DESCR_RESPONSE\000"
 8342      455F4556 
 8342      545F5450 
 8342      53435F52 
 8342      4541445F 
 8343              	.LASF124:
 8344 3645 4359424C 		.ascii	"CYBLE_GENERIC_TO\000"
 8344      455F4745 
 8344      4E455249 
 8344      435F544F 
 8344      00
 8345              	.LASF556:
 8346 3656 4359424C 		.ascii	"CYBLE_CLIENT_STATE_DISCOVERED\000"
 8346      455F434C 
 8346      49454E54 
 8346      5F535441 
 8346      54455F44 
 8347              	.LASF567:
 8348 3674 4359424C 		.ascii	"CYBLE_SRVI_GAP\000"
 8348      455F5352 
 8348      56495F47 
 8348      415000
 8349              	.LASF524:
ARM GAS  C:\Users\YBOURA~1\AppData\Local\Temp\cc3HigXd.s 			page 239


 8350 3683 4359424C 		.ascii	"CYBLE_EVT_UDSC_ERROR_RESPONSE\000"
 8350      455F4556 
 8350      545F5544 
 8350      53435F45 
 8350      52524F52 
 8351              	.LASF42:
 8352 36a1 4359424C 		.ascii	"CYBLE_EVT_GATTC_FIND_INFO_RSP\000"
 8352      455F4556 
 8352      545F4741 
 8352      5454435F 
 8352      46494E44 
 8353              	.LASF41:
 8354 36bf 4359424C 		.ascii	"CYBLE_EVT_GATTC_READ_BY_TYPE_RSP\000"
 8354      455F4556 
 8354      545F4741 
 8354      5454435F 
 8354      52454144 
 8355              	.LASF478:
 8356 36e0 4359424C 		.ascii	"CYBLE_EVT_PASSS_NOTIFICATION_DISABLED\000"
 8356      455F4556 
 8356      545F5041 
 8356      5353535F 
 8356      4E4F5449 
 8357              	.LASF364:
 8358 3706 4359424C 		.ascii	"CYBLE_EVT_CGMSC_READ_DESCR_RESPONSE\000"
 8358      455F4556 
 8358      545F4347 
 8358      4D53435F 
 8358      52454144 
 8359              	.LASF436:
 8360 372a 4359424C 		.ascii	"CYBLE_EVT_HIDSC_READ_CHAR_RESPONSE\000"
 8360      455F4556 
 8360      545F4849 
 8360      4453435F 
 8360      52454144 
 8361              	.LASF215:
 8362 374d 4359424C 		.ascii	"CYBLE_GATTS_ERR_OPERATION_FAILED\000"
 8362      455F4741 
 8362      5454535F 
 8362      4552525F 
 8362      4F504552 
 8363              	.LASF599:
 8364 376e 61747472 		.ascii	"attrLength\000"
 8364      4C656E67 
 8364      746800
 8365              	.LASF626:
 8366 3779 6379426C 		.ascii	"cyBle_state\000"
 8366      655F7374 
 8366      61746500 
 8367              	.LASF584:
 8368 3785 64697363 		.ascii	"discServInfo\000"
 8368      53657276 
 8368      496E666F 
 8368      00
 8369              	.LASF555:
 8370 3792 4359424C 		.ascii	"CYBLE_CLIENT_STATE_DESCR_DISCOVERING\000"
 8370      455F434C 
ARM GAS  C:\Users\YBOURA~1\AppData\Local\Temp\cc3HigXd.s 			page 240


 8370      49454E54 
 8370      5F535441 
 8370      54455F44 
 8371              	.LASF506:
 8372 37b7 4359424C 		.ascii	"CYBLE_EVT_TPSS_NOTIFICATION_DISABLED\000"
 8372      455F4556 
 8372      545F5450 
 8372      53535F4E 
 8372      4F544946 
 8373              	.LASF503:
 8374 37dc 4359424C 		.ascii	"CYBLE_EVT_SCPSC_READ_DESCR_RESPONSE\000"
 8374      455F4556 
 8374      545F5343 
 8374      5053435F 
 8374      52454144 
 8375              	.LASF447:
 8376 3800 4359424C 		.ascii	"CYBLE_EVT_HRSC_WRITE_DESCR_RESPONSE\000"
 8376      455F4556 
 8376      545F4852 
 8376      53435F57 
 8376      52495445 
 8377              	.LASF469:
 8378 3824 4359424C 		.ascii	"CYBLE_EVT_LNSS_WRITE_CHAR\000"
 8378      455F4556 
 8378      545F4C4E 
 8378      53535F57 
 8378      52495445 
 8379              	.LASF407:
 8380 383e 4359424C 		.ascii	"CYBLE_EVT_ESSS_CHAR_WRITE\000"
 8380      455F4556 
 8380      545F4553 
 8380      53535F43 
 8380      4841525F 
 8381              	.LASF48:
 8382 3858 4359424C 		.ascii	"CYBLE_EVT_GATTC_WRITE_RSP\000"
 8382      455F4556 
 8382      545F4741 
 8382      5454435F 
 8382      57524954 
 8383              	.LASF262:
 8384 3872 4359424C 		.ascii	"CYBLE_GATTC_READ_BY_TYPE_RSP_PARAM_T\000"
 8384      455F4741 
 8384      5454435F 
 8384      52454144 
 8384      5F42595F 
 8385              	.LASF549:
 8386 3897 4359424C 		.ascii	"CYBLE_STATE_DISCONNECTED\000"
 8386      455F5354 
 8386      4154455F 
 8386      44495343 
 8386      4F4E4E45 
 8387              	.LASF424:
 8388 38b0 4359424C 		.ascii	"CYBLE_EVT_GLSC_READ_CHAR_RESPONSE\000"
 8388      455F4556 
 8388      545F474C 
 8388      53435F52 
 8388      4541445F 
ARM GAS  C:\Users\YBOURA~1\AppData\Local\Temp\cc3HigXd.s 			page 241


 8389              	.LASF553:
 8390 38d2 4359424C 		.ascii	"CYBLE_CLIENT_STATE_INCL_DISCOVERING\000"
 8390      455F434C 
 8390      49454E54 
 8390      5F535441 
 8390      54455F49 
 8391              	.LASF581:
 8392 38f6 4379426C 		.ascii	"CyBle_NotificationEventHandler\000"
 8392      655F4E6F 
 8392      74696669 
 8392      63617469 
 8392      6F6E4576 
 8393              	.LASF580:
 8394 3915 4379426C 		.ascii	"CyBle_GattcWriteResponseEventHandler\000"
 8394      655F4761 
 8394      74746357 
 8394      72697465 
 8394      52657370 
 8395              	.LASF491:
 8396 393a 4359424C 		.ascii	"CYBLE_EVT_RSCSC_NOTIFICATION\000"
 8396      455F4556 
 8396      545F5253 
 8396      4353435F 
 8396      4E4F5449 
 8397              	.LASF28:
 8398 3957 4359424C 		.ascii	"CYBLE_EVT_GAPP_ADVERTISEMENT_START_STOP\000"
 8398      455F4556 
 8398      545F4741 
 8398      50505F41 
 8398      44564552 
 8399              	.LASF342:
 8400 397f 4359424C 		.ascii	"CYBLE_EVT_BLSS_INDICATION_CONFIRMED\000"
 8400      455F4556 
 8400      545F424C 
 8400      53535F49 
 8400      4E444943 
 8401              	.LASF535:
 8402 39a3 4359424C 		.ascii	"CYBLE_EVT_WPTSC_READ_DESCR_RESPONSE\000"
 8402      455F4556 
 8402      545F5750 
 8402      5453435F 
 8402      52454144 
 8403              	.LASF313:
 8404 39c7 4359424C 		.ascii	"CYBLE_EVT_ANCSC_NOTIFICATION\000"
 8404      455F4556 
 8404      545F414E 
 8404      4353435F 
 8404      4E4F5449 
 8405              	.LASF608:
 8406 39e4 4379426C 		.ascii	"CyBle_NextCharDiscovery\000"
 8406      655F4E65 
 8406      78744368 
 8406      61724469 
 8406      73636F76 
 8407              	.LASF606:
 8408 39fc 61747472 		.ascii	"attrVal\000"
 8408      56616C00 
ARM GAS  C:\Users\YBOURA~1\AppData\Local\Temp\cc3HigXd.s 			page 242


 8409              	.LASF363:
 8410 3a04 4359424C 		.ascii	"CYBLE_EVT_CGMSC_WRITE_CHAR_RESPONSE\000"
 8410      455F4556 
 8410      545F4347 
 8410      4D53435F 
 8410      57524954 
 8411              	.LASF9:
 8412 3a28 75696E74 		.ascii	"uint8\000"
 8412      3800
 8413              	.LASF456:
 8414 3a2e 4359424C 		.ascii	"CYBLE_EVT_HTSC_READ_CHAR_RESPONSE\000"
 8414      455F4556 
 8414      545F4854 
 8414      53435F52 
 8414      4541445F 
 8415              	.LASF622:
 8416 3a50 6379426C 		.ascii	"cyBle_authInfo\000"
 8416      655F6175 
 8416      7468496E 
 8416      666F00
 8417              	.LASF149:
 8418 3a5f 73656375 		.ascii	"security\000"
 8418      72697479 
 8418      00
 8419              	.LASF484:
 8420 3a68 4359424C 		.ascii	"CYBLE_EVT_PASSC_WRITE_DESCR_RESPONSE\000"
 8420      455F4556 
 8420      545F5041 
 8420      5353435F 
 8420      57524954 
 8421              	.LASF590:
 8422 3a8d 4379426C 		.ascii	"CyBle_L2Cap_ConnParamUpdateRspEventHandler\000"
 8422      655F4C32 
 8422      4361705F 
 8422      436F6E6E 
 8422      50617261 
 8423              	.LASF176:
 8424 3ab8 4359424C 		.ascii	"CYBLE_GATT_WRITE_REQ\000"
 8424      455F4741 
 8424      54545F57 
 8424      52495445 
 8424      5F524551 
 8425              	.LASF2:
 8426 3acd 73686F72 		.ascii	"short int\000"
 8426      7420696E 
 8426      7400
 8427              	.LASF152:
 8428 3ad7 61757468 		.ascii	"authErr\000"
 8428      45727200 
 8429              	.LASF350:
 8430 3adf 4359424C 		.ascii	"CYBLE_EVT_BMSS_WRITE_CHAR\000"
 8430      455F4556 
 8430      545F424D 
 8430      53535F57 
 8430      52495445 
 8431              	.LASF297:
 8432 3af9 4359424C 		.ascii	"CYBLE_EVT_GATTS_INDICATION_DISABLED\000"
ARM GAS  C:\Users\YBOURA~1\AppData\Local\Temp\cc3HigXd.s 			page 243


 8432      455F4556 
 8432      545F4741 
 8432      5454535F 
 8432      494E4449 
 8433              	.LASF270:
 8434 3b1d 72616E67 		.ascii	"range\000"
 8434      6500
 8435              	.LASF209:
 8436 3b23 4359424C 		.ascii	"CYBLE_GATT_ERR_CPS_INAPPROPRIATE_CONNECTION_PARAMET"
 8436      455F4741 
 8436      54545F45 
 8436      52525F43 
 8436      50535F49 
 8437 3b56 45525300 		.ascii	"ERS\000"
 8438              	.LASF361:
 8439 3b5a 4359424C 		.ascii	"CYBLE_EVT_CGMSC_NOTIFICATION\000"
 8439      455F4556 
 8439      545F4347 
 8439      4D53435F 
 8439      4E4F5449 
 8440              	.LASF195:
 8441 3b77 4359424C 		.ascii	"CYBLE_GATT_ERR_REQUEST_NOT_SUPPORTED\000"
 8441      455F4741 
 8441      54545F45 
 8441      52525F52 
 8441      45515545 
 8442              	.LASF35:
 8443 3b9c 4359424C 		.ascii	"CYBLE_EVT_GATTC_ERROR_RSP\000"
 8443      455F4556 
 8443      545F4741 
 8443      5454435F 
 8443      4552524F 
 8444              	.LASF134:
 8445 3bb6 4359424C 		.ascii	"CYBLE_GAP_IOCAP_KEYBOARD_DISPLAY\000"
 8445      455F4741 
 8445      505F494F 
 8445      4341505F 
 8445      4B455942 
 8446              	.LASF242:
 8447 3bd7 4359424C 		.ascii	"CYBLE_GATT_ATTR_HANDLE_RANGE_T\000"
 8447      455F4741 
 8447      54545F41 
 8447      5454525F 
 8447      48414E44 
 8448              	.LASF413:
 8449 3bf6 4359424C 		.ascii	"CYBLE_EVT_ESSC_WRITE_CHAR_RESPONSE\000"
 8449      455F4556 
 8449      545F4553 
 8449      53435F57 
 8449      52495445 
 8450              	.LASF253:
 8451 3c19 4359424C 		.ascii	"CYBLE_GATTC_READ_RSP_PARAM_T\000"
 8451      455F4741 
 8451      5454435F 
 8451      52454144 
 8451      5F525350 
 8452              	.LASF318:
ARM GAS  C:\Users\YBOURA~1\AppData\Local\Temp\cc3HigXd.s 			page 244


 8453 3c36 4359424C 		.ascii	"CYBLE_EVT_ANCSC_ERROR_RESPONSE\000"
 8453      455F4556 
 8453      545F414E 
 8453      4353435F 
 8453      4552524F 
 8454              	.LASF332:
 8455 3c55 4359424C 		.ascii	"CYBLE_EVT_BASC_WRITE_DESCR_RESPONSE\000"
 8455      455F4556 
 8455      545F4241 
 8455      53435F57 
 8455      52495445 
 8456              	.LASF299:
 8457 3c79 4359424C 		.ascii	"CYBLE_EVT_GATTC_SRVC_DISCOVERY_FAILED\000"
 8457      455F4556 
 8457      545F4741 
 8457      5454435F 
 8457      53525643 
 8458              	.LASF416:
 8459 3c9f 4359424C 		.ascii	"CYBLE_EVT_GLSS_INDICATION_ENABLED\000"
 8459      455F4556 
 8459      545F474C 
 8459      53535F49 
 8459      4E444943 
 8460              	.LASF321:
 8461 3cc1 4359424C 		.ascii	"CYBLE_EVT_ANSS_CHAR_WRITE\000"
 8461      455F4556 
 8461      545F414E 
 8461      53535F43 
 8461      4841525F 
 8462              	.LASF571:
 8463 3cdb 4359424C 		.ascii	"CYBLE_SRVI_COUNT\000"
 8463      455F5352 
 8463      56495F43 
 8463      4F554E54 
 8463      00
 8464              	.LASF62:
 8465 3cec 4359424C 		.ascii	"CYBLE_EVT_L2CAP_CBFC_CONN_IND\000"
 8465      455F4556 
 8465      545F4C32 
 8465      4341505F 
 8465      43424643 
 8466              	.LASF51:
 8467 3d0a 4359424C 		.ascii	"CYBLE_EVT_GATTS_EXEC_WRITE_REQ\000"
 8467      455F4556 
 8467      545F4741 
 8467      5454535F 
 8467      45584543 
 8468              	.LASF22:
 8469 3d29 4359424C 		.ascii	"CYBLE_EVT_GAPC_SCAN_PROGRESS_RESULT\000"
 8469      455F4556 
 8469      545F4741 
 8469      50435F53 
 8469      43414E5F 
 8470              	.LASF627:
 8471 3d4d 6379426C 		.ascii	"cyBle_connHandle\000"
 8471      655F636F 
 8471      6E6E4861 
ARM GAS  C:\Users\YBOURA~1\AppData\Local\Temp\cc3HigXd.s 			page 245


 8471      6E646C65 
 8471      00
 8472              	.LASF395:
 8473 3d5e 4359424C 		.ascii	"CYBLE_EVT_CTSS_CHAR_WRITE\000"
 8473      455F4556 
 8473      545F4354 
 8473      53535F43 
 8473      4841525F 
 8474              	.LASF511:
 8475 3d78 4359424C 		.ascii	"CYBLE_EVT_UDSS_INDICATION_ENABLED\000"
 8475      455F4556 
 8475      545F5544 
 8475      53535F49 
 8475      4E444943 
 8476              	.LASF487:
 8477 3d9a 4359424C 		.ascii	"CYBLE_EVT_RSCSS_INDICATION_ENABLED\000"
 8477      455F4556 
 8477      545F5253 
 8477      4353535F 
 8477      494E4449 
 8478              	.LASF289:
 8479 3dbd 63636364 		.ascii	"cccdCount\000"
 8479      436F756E 
 8479      7400
 8480              	.LASF220:
 8481 3dc7 4359424C 		.ascii	"CYBLE_GATT_ERR_ANCS_INVALID_PARAMETER\000"
 8481      455F4741 
 8481      54545F45 
 8481      52525F41 
 8481      4E43535F 
 8482              	.LASF82:
 8483 3ded 4359424C 		.ascii	"CYBLE_ERROR_GAP_ROLE\000"
 8483      455F4552 
 8483      524F525F 
 8483      4741505F 
 8483      524F4C45 
 8484              	.LASF450:
 8485 3e02 4359424C 		.ascii	"CYBLE_EVT_HTSS_INDICATION_ENABLED\000"
 8485      455F4556 
 8485      545F4854 
 8485      53535F49 
 8485      4E444943 
 8486              	.LASF522:
 8487 3e24 4359424C 		.ascii	"CYBLE_EVT_UDSC_READ_DESCR_RESPONSE\000"
 8487      455F4556 
 8487      545F5544 
 8487      53435F52 
 8487      4541445F 
 8488              	.LASF402:
 8489 3e47 4359424C 		.ascii	"CYBLE_EVT_ESSS_NOTIFICATION_ENABLED\000"
 8489      455F4556 
 8489      545F4553 
 8489      53535F4E 
 8489      4F544946 
 8490              	.LASF241:
 8491 3e6b 656E6448 		.ascii	"endHandle\000"
 8491      616E646C 
ARM GAS  C:\Users\YBOURA~1\AppData\Local\Temp\cc3HigXd.s 			page 246


 8491      6500
 8492              	.LASF330:
 8493 3e75 4359424C 		.ascii	"CYBLE_EVT_BASC_READ_CHAR_RESPONSE\000"
 8493      455F4556 
 8493      545F4241 
 8493      53435F52 
 8493      4541445F 
 8494              	.LASF423:
 8495 3e97 4359424C 		.ascii	"CYBLE_EVT_GLSC_NOTIFICATION\000"
 8495      455F4556 
 8495      545F474C 
 8495      53435F4E 
 8495      4F544946 
 8496              	.LASF118:
 8497 3eb3 62644164 		.ascii	"bdAddr\000"
 8497      647200
 8498              	.LASF217:
 8499 3eba 4359424C 		.ascii	"CYBLE_GATT_ERR_ANS_COMMAND_NOT_SUPPORTED\000"
 8499      455F4741 
 8499      54545F45 
 8499      52525F41 
 8499      4E535F43 
 8500              	.LASF591:
 8501 3ee3 72657370 		.ascii	"response\000"
 8501      6F6E7365 
 8501      00
 8502              	.LASF501:
 8503 3eec 4359424C 		.ascii	"CYBLE_EVT_SCPSS_SCAN_INT_WIN_CHAR_WRITE\000"
 8503      455F4556 
 8503      545F5343 
 8503      5053535F 
 8503      5343414E 
 8504              	.LASF546:
 8505 3f14 4359424C 		.ascii	"CYBLE_STATE_INITIALIZING\000"
 8505      455F5354 
 8505      4154455F 
 8505      494E4954 
 8505      49414C49 
 8506              	.LASF169:
 8507 3f2d 4359424C 		.ascii	"CYBLE_GATT_READ_RSP\000"
 8507      455F4741 
 8507      54545F52 
 8507      4541445F 
 8507      52535000 
 8508              	.LASF463:
 8509 3f41 4359424C 		.ascii	"CYBLE_EVT_LLSC_WRITE_CHAR_RESPONSE\000"
 8509      455F4556 
 8509      545F4C4C 
 8509      53435F57 
 8509      52495445 
 8510              	.LASF79:
 8511 3f64 4359424C 		.ascii	"CYBLE_ERROR_NO_CONNECTION\000"
 8511      455F4552 
 8511      524F525F 
 8511      4E4F5F43 
 8511      4F4E4E45 
 8512              	.LASF107:
ARM GAS  C:\Users\YBOURA~1\AppData\Local\Temp\cc3HigXd.s 			page 247


 8513 3f7e 4359424C 		.ascii	"CYBLE_LL_PWR_LVL_0_DBM\000"
 8513      455F4C4C 
 8513      5F505752 
 8513      5F4C564C 
 8513      5F305F44 
 8514              	.LASF384:
 8515 3f95 4359424C 		.ascii	"CYBLE_EVT_CSCSS_INDICATION_DISABLED\000"
 8515      455F4556 
 8515      545F4353 
 8515      4353535F 
 8515      494E4449 
 8516              	.LASF111:
 8517 3fb9 4359424C 		.ascii	"CYBLE_LL_ADV_CH_TYPE\000"
 8517      455F4C4C 
 8517      5F414456 
 8517      5F43485F 
 8517      54595045 
 8518              	.LASF353:
 8519 3fce 4359424C 		.ascii	"CYBLE_EVT_BMSC_READ_DESCR_RESPONSE\000"
 8519      455F4556 
 8519      545F424D 
 8519      53435F52 
 8519      4541445F 
 8520              	.LASF71:
 8521 3ff1 4359424C 		.ascii	"CYBLE_EVT_LE_PING_AUTH_TIMEOUT\000"
 8521      455F4556 
 8521      545F4C45 
 8521      5F50494E 
 8521      475F4155 
 8522              	.LASF355:
 8523 4010 4359424C 		.ascii	"CYBLE_EVT_CGMSS_INDICATION_DISABLED\000"
 8523      455F4556 
 8523      545F4347 
 8523      4D53535F 
 8523      494E4449 
 8524              	.LASF628:
 8525 4034 6379426C 		.ascii	"cyBle_busyStatus\000"
 8525      655F6275 
 8525      73795374 
 8525      61747573 
 8525      00
 8526              	.LASF623:
 8527 4045 6379426C 		.ascii	"cyBle_attValuesCCCD\000"
 8527      655F6174 
 8527      7456616C 
 8527      75657343 
 8527      43434400 
 8528              	.LASF309:
 8529 4059 4359424C 		.ascii	"CYBLE_EVT_GATTC_DISCOVERY_COMPLETE\000"
 8529      455F4556 
 8529      545F4741 
 8529      5454435F 
 8529      44495343 
 8530              	.LASF252:
 8531 407c 4359424C 		.ascii	"CYBLE_GATTC_FIND_INFO_REQ_T\000"
 8531      455F4741 
 8531      5454435F 
ARM GAS  C:\Users\YBOURA~1\AppData\Local\Temp\cc3HigXd.s 			page 248


 8531      46494E44 
 8531      5F494E46 
 8532              	.LASF359:
 8533 4098 4359424C 		.ascii	"CYBLE_EVT_CGMSS_WRITE_CHAR\000"
 8533      455F4556 
 8533      545F4347 
 8533      4D53535F 
 8533      57524954 
 8534              	.LASF427:
 8535 40b3 4359424C 		.ascii	"CYBLE_EVT_GLSC_WRITE_DESCR_RESPONSE\000"
 8535      455F4556 
 8535      545F474C 
 8535      53435F57 
 8535      52495445 
 8536              	.LASF54:
 8537 40d7 4359424C 		.ascii	"CYBLE_EVT_GATTC_HANDLE_VALUE_IND\000"
 8537      455F4556 
 8537      545F4741 
 8537      5454435F 
 8537      48414E44 
 8538              	.LASF380:
 8539 40f8 4359424C 		.ascii	"CYBLE_EVT_CPSC_SCAN_PROGRESS_RESULT\000"
 8539      455F4556 
 8539      545F4350 
 8539      53435F53 
 8539      43414E5F 
 8540              	.LASF495:
 8541 411c 4359424C 		.ascii	"CYBLE_EVT_RSCSC_READ_DESCR_RESPONSE\000"
 8541      455F4556 
 8541      545F5253 
 8541      4353435F 
 8541      52454144 
 8542              	.LASF593:
 8543 4140 6576656E 		.ascii	"eventCode\000"
 8543      74436F64 
 8543      6500
 8544              	.LASF85:
 8545 414a 4359424C 		.ascii	"CYBLE_ERROR_SEC_FAILED\000"
 8545      455F4552 
 8545      524F525F 
 8545      5345435F 
 8545      4641494C 
 8546              	.LASF21:
 8547 4161 4359424C 		.ascii	"CYBLE_EVT_STACK_BUSY_STATUS\000"
 8547      455F4556 
 8547      545F5354 
 8547      41434B5F 
 8547      42555359 
 8548              	.LASF156:
 8549 417d 636F6E6E 		.ascii	"connLatency\000"
 8549      4C617465 
 8549      6E637900 
 8550              	.LASF131:
 8551 4189 4359424C 		.ascii	"CYBLE_GAP_IOCAP_DISPLAY_YESNO\000"
 8551      455F4741 
 8551      505F494F 
 8551      4341505F 
ARM GAS  C:\Users\YBOURA~1\AppData\Local\Temp\cc3HigXd.s 			page 249


 8551      44495350 
 8552              	.LASF459:
 8553 41a7 4359424C 		.ascii	"CYBLE_EVT_HTSC_WRITE_DESCR_RESPONSE\000"
 8553      455F4556 
 8553      545F4854 
 8553      53435F57 
 8553      52495445 
 8554              	.LASF34:
 8555 41cb 4359424C 		.ascii	"CYBLE_EVT_GAP_KEYINFO_EXCHNGE_CMPLT\000"
 8555      455F4556 
 8555      545F4741 
 8555      505F4B45 
 8555      59494E46 
 8556              	.LASF181:
 8557 41ef 4359424C 		.ascii	"CYBLE_GATT_EXECUTE_WRITE_REQ\000"
 8557      455F4741 
 8557      54545F45 
 8557      58454355 
 8557      54455F57 
 8558              	.LASF536:
 8559 420c 4359424C 		.ascii	"CYBLE_EVT_WPTSC_WRITE_DESCR_RESPONSE\000"
 8559      455F4556 
 8559      545F5750 
 8559      5453435F 
 8559      57524954 
 8560              	.LASF117:
 8561 4231 4359424C 		.ascii	"CYBLE_BLESS_PWR_IN_DB_T\000"
 8561      455F424C 
 8561      4553535F 
 8561      5057525F 
 8561      494E5F44 
 8562              	.LASF258:
 8563 4249 61747472 		.ascii	"attrLen\000"
 8563      4C656E00 
 8564              	.LASF113:
 8565 4251 4359424C 		.ascii	"CYBLE_LL_MAX_CH_TYPE\000"
 8565      455F4C4C 
 8565      5F4D4158 
 8565      5F43485F 
 8565      54595045 
 8566              	.LASF59:
 8567 4266 4359424C 		.ascii	"CYBLE_EVT_L2CAP_CONN_PARAM_UPDATE_REQ\000"
 8567      455F4556 
 8567      545F4C32 
 8567      4341505F 
 8567      434F4E4E 
 8568              	.LASF358:
 8569 428c 4359424C 		.ascii	"CYBLE_EVT_CGMSS_NOTIFICATION_DISABLED\000"
 8569      455F4556 
 8569      545F4347 
 8569      4D53535F 
 8569      4E4F5449 
 8570              	.LASF614:
 8571 42b2 4379426C 		.ascii	"CyBle_NextCharDscrDiscovery\000"
 8571      655F4E65 
 8571      78744368 
 8571      61724473 
ARM GAS  C:\Users\YBOURA~1\AppData\Local\Temp\cc3HigXd.s 			page 250


 8571      63724469 
 8572              	.LASF616:
 8573 42ce 6379426C 		.ascii	"cyBle_charEndHandle\000"
 8573      655F6368 
 8573      6172456E 
 8573      6448616E 
 8573      646C6500 
 8574              	.LASF575:
 8575 42e2 67617474 		.ascii	"gattErr\000"
 8575      45727200 
 8576              	.LASF300:
 8577 42ea 4359424C 		.ascii	"CYBLE_EVT_GATTC_INCL_DISCOVERY_FAILED\000"
 8577      455F4556 
 8577      545F4741 
 8577      5454435F 
 8577      494E434C 
 8578              	.LASF192:
 8579 4310 4359424C 		.ascii	"CYBLE_GATT_ERR_WRITE_NOT_PERMITTED\000"
 8579      455F4741 
 8579      54545F45 
 8579      52525F57 
 8579      52495445 
 8580              	.LASF569:
 8581 4333 4359424C 		.ascii	"CYBLE_SRVI_CUSTOMS\000"
 8581      455F5352 
 8581      56495F43 
 8581      5553544F 
 8581      4D5300
 8582              	.LASF155:
 8583 4346 636F6E6E 		.ascii	"connIntv\000"
 8583      496E7476 
 8583      00
 8584              	.LASF3:
 8585 434f 73686F72 		.ascii	"short unsigned int\000"
 8585      7420756E 
 8585      7369676E 
 8585      65642069 
 8585      6E7400
 8586              	.LASF204:
 8587 4362 4359424C 		.ascii	"CYBLE_GATT_ERR_INSUFFICIENT_ENCRYPTION\000"
 8587      455F4741 
 8587      54545F45 
 8587      52525F49 
 8587      4E535546 
 8588              	.LASF474:
 8589 4389 4359424C 		.ascii	"CYBLE_EVT_LNSC_READ_DESCR_RESPONSE\000"
 8589      455F4556 
 8589      545F4C4E 
 8589      53435F52 
 8589      4541445F 
 8590              	.LASF547:
 8591 43ac 4359424C 		.ascii	"CYBLE_STATE_CONNECTED\000"
 8591      455F5354 
 8591      4154455F 
 8591      434F4E4E 
 8591      45435445 
 8592              	.LASF294:
ARM GAS  C:\Users\YBOURA~1\AppData\Local\Temp\cc3HigXd.s 			page 251


 8593 43c2 4359424C 		.ascii	"CYBLE_LONG_TERM_KEY_REQUEST_REPLY\000"
 8593      455F4C4F 
 8593      4E475F54 
 8593      45524D5F 
 8593      4B45595F 
 8594              	.LASF236:
 8595 43e4 61637475 		.ascii	"actualLen\000"
 8595      616C4C65 
 8595      6E00
 8596              	.LASF285:
 8597 43ee 63636364 		.ascii	"cccdHandle\000"
 8597      48616E64 
 8597      6C6500
 8598              	.LASF174:
 8599 43f9 4359424C 		.ascii	"CYBLE_GATT_READ_BY_GROUP_REQ\000"
 8599      455F4741 
 8599      54545F52 
 8599      4541445F 
 8599      42595F47 
 8600              	.LASF598:
 8601 4416 64617461 		.ascii	"dataLength\000"
 8601      4C656E67 
 8601      746800
 8602              	.LASF139:
 8603 4421 4359424C 		.ascii	"CYBLE_GAP_AUTH_ERROR_CONFIRM_VALUE_NOT_MATCH\000"
 8603      455F4741 
 8603      505F4155 
 8603      54485F45 
 8603      52524F52 
 8604              	.LASF422:
 8605 444e 4359424C 		.ascii	"CYBLE_EVT_GLSC_INDICATION\000"
 8605      455F4556 
 8605      545F474C 
 8605      53435F49 
 8605      4E444943 
 8606              	.LASF372:
 8607 4468 4359424C 		.ascii	"CYBLE_EVT_CPSS_BROADCAST_DISABLED\000"
 8607      455F4556 
 8607      545F4350 
 8607      53535F42 
 8607      524F4144 
 8608              	.LASF234:
 8609 448a 61747449 		.ascii	"attId\000"
 8609      6400
 8610              	.LASF75:
 8611 4490 4359424C 		.ascii	"CYBLE_ERROR_INVALID_OPERATION\000"
 8611      455F4552 
 8611      524F525F 
 8611      494E5641 
 8611      4C49445F 
 8612              	.LASF20:
 8613 44ae 4359424C 		.ascii	"CYBLE_EVT_HCI_STATUS\000"
 8613      455F4556 
 8613      545F4843 
 8613      495F5354 
 8613      41545553 
 8614              	.LASF37:
ARM GAS  C:\Users\YBOURA~1\AppData\Local\Temp\cc3HigXd.s 			page 252


 8615 44c3 4359424C 		.ascii	"CYBLE_EVT_GATT_DISCONNECT_IND\000"
 8615      455F4556 
 8615      545F4741 
 8615      54545F44 
 8615      4953434F 
 8616              	.LASF157:
 8617 44e1 73757065 		.ascii	"supervisionTO\000"
 8617      72766973 
 8617      696F6E54 
 8617      4F00
 8618              	.LASF123:
 8619 44ef 4359424C 		.ascii	"CYBLE_GATT_RSP_TO\000"
 8619      455F4741 
 8619      54545F52 
 8619      53505F54 
 8619      4F00
 8620              	.LASF295:
 8621 4501 4359424C 		.ascii	"CYBLE_KEY_EXCHANGE_INFO_REQUEST_REPLY\000"
 8621      455F4B45 
 8621      595F4558 
 8621      4348414E 
 8621      47455F49 
 8622              	.LASF69:
 8623 4527 4359424C 		.ascii	"CYBLE_EVT_L2CAP_CBFC_DATA_WRITE_IND\000"
 8623      455F4556 
 8623      545F4C32 
 8623      4341505F 
 8623      43424643 
 8624              	.LASF293:
 8625 454b 4359424C 		.ascii	"CYBLE_PASSKEY_ENTRY_REQUEST_REPLY\000"
 8625      455F5041 
 8625      53534B45 
 8625      595F454E 
 8625      5452595F 
 8626              	.LASF339:
 8627 456d 4359424C 		.ascii	"CYBLE_EVT_BCSC_WRITE_DESCR_RESPONSE\000"
 8627      455F4556 
 8627      545F4243 
 8627      53435F57 
 8627      52495445 
 8628              	.LASF517:
 8629 4591 4359424C 		.ascii	"CYBLE_EVT_UDSS_WRITE_CHAR\000"
 8629      455F4556 
 8629      545F5544 
 8629      53535F57 
 8629      52495445 
 8630              	.LASF322:
 8631 45ab 4359424C 		.ascii	"CYBLE_EVT_ANSC_NOTIFICATION\000"
 8631      455F4556 
 8631      545F414E 
 8631      53435F4E 
 8631      4F544946 
 8632              	.LASF30:
 8633 45c7 4359424C 		.ascii	"CYBLE_EVT_GAP_DEVICE_DISCONNECTED\000"
 8633      455F4556 
 8633      545F4741 
 8633      505F4445 
ARM GAS  C:\Users\YBOURA~1\AppData\Local\Temp\cc3HigXd.s 			page 253


 8633      56494345 
 8634              	.LASF430:
 8635 45e9 4359424C 		.ascii	"CYBLE_EVT_HIDSS_BOOT_MODE_ENTER\000"
 8635      455F4556 
 8635      545F4849 
 8635      4453535F 
 8635      424F4F54 
 8636              	.LASF55:
 8637 4609 4359424C 		.ascii	"CYBLE_EVT_GATTS_HANDLE_VALUE_CNF\000"
 8637      455F4556 
 8637      545F4741 
 8637      5454535F 
 8637      48414E44 
 8638              	.LASF391:
 8639 462a 4359424C 		.ascii	"CYBLE_EVT_CSCSC_READ_DESCR_RESPONSE\000"
 8639      455F4556 
 8639      545F4353 
 8639      4353435F 
 8639      52454144 
 8640              	.LASF10:
 8641 464e 75696E74 		.ascii	"uint16\000"
 8641      313600
 8642              	.LASF315:
 8643 4655 4359424C 		.ascii	"CYBLE_EVT_ANCSC_WRITE_CHAR_RESPONSE\000"
 8643      455F4556 
 8643      545F414E 
 8643      4353435F 
 8643      57524954 
 8644              	.LASF83:
 8645 4679 4359424C 		.ascii	"CYBLE_ERROR_TX_POWER_READ\000"
 8645      455F4552 
 8645      524F525F 
 8645      54585F50 
 8645      4F574552 
 8646              	.LASF485:
 8647 4693 4359424C 		.ascii	"CYBLE_EVT_RSCSS_NOTIFICATION_ENABLED\000"
 8647      455F4556 
 8647      545F5253 
 8647      4353535F 
 8647      4E4F5449 
 8648              	.LASF541:
 8649 46b8 4359424C 		.ascii	"CYBLE_EVT_WSSC_READ_CHAR_RESPONSE\000"
 8649      455F4556 
 8649      545F5753 
 8649      53435F52 
 8649      4541445F 
 8650              	.LASF231:
 8651 46da 4359424C 		.ascii	"CYBLE_UUID_T\000"
 8651      455F5555 
 8651      49445F54 
 8651      00
 8652              	.LASF320:
 8653 46e7 4359424C 		.ascii	"CYBLE_EVT_ANSS_NOTIFICATION_DISABLED\000"
 8653      455F4556 
 8653      545F414E 
 8653      53535F4E 
 8653      4F544946 
ARM GAS  C:\Users\YBOURA~1\AppData\Local\Temp\cc3HigXd.s 			page 254


 8654              	.LASF455:
 8655 470c 4359424C 		.ascii	"CYBLE_EVT_HTSC_INDICATION\000"
 8655      455F4556 
 8655      545F4854 
 8655      53435F49 
 8655      4E444943 
 8656              	.LASF279:
 8657 4726 76616C75 		.ascii	"valueHandle\000"
 8657      6548616E 
 8657      646C6500 
 8658              	.LASF428:
 8659 4732 4359424C 		.ascii	"CYBLE_EVT_HIDSS_NOTIFICATION_ENABLED\000"
 8659      455F4556 
 8659      545F4849 
 8659      4453535F 
 8659      4E4F5449 
 8660              	.LASF452:
 8661 4757 4359424C 		.ascii	"CYBLE_EVT_HTSS_INDICATION_CONFIRMED\000"
 8661      455F4556 
 8661      545F4854 
 8661      53535F49 
 8661      4E444943 
 8662              	.LASF529:
 8663 477b 4359424C 		.ascii	"CYBLE_EVT_WPTSS_INDICATION_CONFIRMED\000"
 8663      455F4556 
 8663      545F5750 
 8663      5453535F 
 8663      494E4449 
 8664              	.LASF442:
 8665 47a0 4359424C 		.ascii	"CYBLE_EVT_HRSS_NOTIFICATION_DISABLED\000"
 8665      455F4556 
 8665      545F4852 
 8665      53535F4E 
 8665      4F544946 
 8666              		.ident	"GCC: (GNU Tools for ARM Embedded Processors) 4.9.3 20150303 (release) [ARM/embedded-4_9-br
