ARM GAS  C:\Users\YBOURA~1\AppData\Local\Temp\ccLqBgOE.s 			page 1


   1              		.cpu cortex-m0
   2              		.fpu softvfp
   3              		.eabi_attribute 20, 1
   4              		.eabi_attribute 21, 1
   5              		.eabi_attribute 23, 3
   6              		.eabi_attribute 24, 1
   7              		.eabi_attribute 25, 1
   8              		.eabi_attribute 26, 1
   9              		.eabi_attribute 30, 6
  10              		.eabi_attribute 34, 0
  11              		.eabi_attribute 18, 4
  12              		.code	16
  13              		.file	"BLE_custom.c"
  14              		.text
  15              	.Ltext0:
  16              		.cfi_sections	.debug_frame
  17              		.global	cyBle_customs
  18              		.section	.rodata
  19              		.align	2
  20              		.type	cyBle_customs, %object
  21              		.size	cyBle_customs, 6
  22              	cyBle_customs:
  23 0000 0A00     		.short	10
  24 0002 0C00     		.short	12
  25 0004 0D00     		.short	13
  26 0006 0000     		.align	2
  27              		.type	cyBle_customUuid128, %object
  28              		.size	cyBle_customUuid128, 48
  29              	cyBle_customUuid128:
  30 0008 FB       		.byte	-5
  31 0009 34       		.byte	52
  32 000a 9B       		.byte	-101
  33 000b 5F       		.byte	95
  34 000c 80       		.byte	-128
  35 000d 00       		.byte	0
  36 000e 00       		.byte	0
  37 000f 80       		.byte	-128
  38 0010 00       		.byte	0
  39 0011 10       		.byte	16
  40 0012 00       		.byte	0
  41 0013 00       		.byte	0
  42 0014 00       		.byte	0
  43 0015 00       		.byte	0
  44 0016 00       		.byte	0
  45 0017 00       		.byte	0
  46 0018 FB       		.byte	-5
  47 0019 34       		.byte	52
  48 001a 9B       		.byte	-101
  49 001b 5F       		.byte	95
  50 001c 80       		.byte	-128
  51 001d 00       		.byte	0
  52 001e 00       		.byte	0
  53 001f 80       		.byte	-128
  54 0020 00       		.byte	0
  55 0021 10       		.byte	16
  56 0022 00       		.byte	0
  57 0023 00       		.byte	0
ARM GAS  C:\Users\YBOURA~1\AppData\Local\Temp\ccLqBgOE.s 			page 2


  58 0024 00       		.byte	0
  59 0025 00       		.byte	0
  60 0026 00       		.byte	0
  61 0027 00       		.byte	0
  62 0028 FB       		.byte	-5
  63 0029 34       		.byte	52
  64 002a 9B       		.byte	-101
  65 002b 5F       		.byte	95
  66 002c 80       		.byte	-128
  67 002d 00       		.byte	0
  68 002e 00       		.byte	0
  69 002f 80       		.byte	-128
  70 0030 00       		.byte	0
  71 0031 10       		.byte	16
  72 0032 00       		.byte	0
  73 0033 00       		.byte	0
  74 0034 00       		.byte	0
  75 0035 00       		.byte	0
  76 0036 00       		.byte	0
  77 0037 00       		.byte	0
  78              		.data
  79              		.align	2
  80              		.type	cyBle_customCDesc, %object
  81              		.size	cyBle_customCDesc, 12
  82              	cyBle_customCDesc:
  83 0000 0000     		.short	0
  84 0002 0000     		.space	2
  85 0004 28000000 		.word	cyBle_customUuid128+32
  86 0008 02       		.byte	2
  87 0009 000000   		.space	3
  88              		.align	2
  89              		.type	cyBle_customCChar, %object
  90              		.size	cyBle_customCChar, 16
  91              	cyBle_customCChar:
  92 000c 0000     		.short	0
  93 000e 0000     		.short	0
  94 0010 18000000 		.word	cyBle_customUuid128+16
  95 0014 02       		.byte	2
  96 0015 00       		.byte	0
  97 0016 01       		.byte	1
  98 0017 00       		.space	1
  99 0018 00000000 		.word	cyBle_customCDesc
 100              		.global	cyBle_customCServ
 101              		.align	2
 102              		.type	cyBle_customCServ, %object
 103              		.size	cyBle_customCServ, 16
 104              	cyBle_customCServ:
 105 001c 0000     		.short	0
 106 001e 0000     		.space	2
 107 0020 08000000 		.word	cyBle_customUuid128
 108 0024 02       		.byte	2
 109 0025 01       		.byte	1
 110 0026 0000     		.space	2
 111 0028 0C000000 		.word	cyBle_customCChar
 112              		.bss
 113              		.align	1
 114              	cyBle_customDisServIndex:
ARM GAS  C:\Users\YBOURA~1\AppData\Local\Temp\ccLqBgOE.s 			page 3


 115 0000 0000     		.space	2
 116              		.align	1
 117              	cyBle_customDisCharIndex:
 118 0002 0000     		.space	2
 119              		.section	.text.CyBle_CustomInit,"ax",%progbits
 120              		.align	2
 121              		.global	CyBle_CustomInit
 122              		.code	16
 123              		.thumb_func
 124              		.type	CyBle_CustomInit, %function
 125              	CyBle_CustomInit:
 126              	.LFB2:
 127              		.file 1 ".\\Generated_Source\\PSoC4\\BLE_custom.c"
   1:.\Generated_Source\PSoC4/BLE_custom.c **** /***************************************************************************//**
   2:.\Generated_Source\PSoC4/BLE_custom.c **** * \file CYBLE_custom.c
   3:.\Generated_Source\PSoC4/BLE_custom.c **** * \version 2.30
   4:.\Generated_Source\PSoC4/BLE_custom.c **** * 
   5:.\Generated_Source\PSoC4/BLE_custom.c **** * \brief
   6:.\Generated_Source\PSoC4/BLE_custom.c **** *  Contains the source code for the Custom Service.
   7:.\Generated_Source\PSoC4/BLE_custom.c **** * 
   8:.\Generated_Source\PSoC4/BLE_custom.c **** ********************************************************************************
   9:.\Generated_Source\PSoC4/BLE_custom.c **** * \copyright
  10:.\Generated_Source\PSoC4/BLE_custom.c **** * Copyright 2014-2015, Cypress Semiconductor Corporation.  All rights reserved.
  11:.\Generated_Source\PSoC4/BLE_custom.c **** * You may use this file only in accordance with the license, terms, conditions,
  12:.\Generated_Source\PSoC4/BLE_custom.c **** * disclaimers, and limitations in the end user license agreement accompanying
  13:.\Generated_Source\PSoC4/BLE_custom.c **** * the software package with which this file was provided.
  14:.\Generated_Source\PSoC4/BLE_custom.c **** *******************************************************************************/
  15:.\Generated_Source\PSoC4/BLE_custom.c **** 
  16:.\Generated_Source\PSoC4/BLE_custom.c **** 
  17:.\Generated_Source\PSoC4/BLE_custom.c **** #include "BLE_eventHandler.h"
  18:.\Generated_Source\PSoC4/BLE_custom.c **** 
  19:.\Generated_Source\PSoC4/BLE_custom.c **** #ifdef CYBLE_CUSTOM_SERVER
  20:.\Generated_Source\PSoC4/BLE_custom.c **** 
  21:.\Generated_Source\PSoC4/BLE_custom.c **** /* If any custom service with custom characterisctis is defined in the
  22:.\Generated_Source\PSoC4/BLE_custom.c **** * customizer's GUI their handles will be present in this array.
  23:.\Generated_Source\PSoC4/BLE_custom.c **** */
  24:.\Generated_Source\PSoC4/BLE_custom.c **** /* This array contains attribute handles for the defined Custom Services and their characteristics 
  25:.\Generated_Source\PSoC4/BLE_custom.c ****    The array index definitions are located in the CYBLE_custom.h file. */
  26:.\Generated_Source\PSoC4/BLE_custom.c **** const CYBLE_CUSTOMS_T cyBle_customs[0x01u] = {
  27:.\Generated_Source\PSoC4/BLE_custom.c **** 
  28:.\Generated_Source\PSoC4/BLE_custom.c ****     /* Custom Service service */
  29:.\Generated_Source\PSoC4/BLE_custom.c ****     {
  30:.\Generated_Source\PSoC4/BLE_custom.c ****         0x000Au, /* Handle of the Custom Service service */ 
  31:.\Generated_Source\PSoC4/BLE_custom.c ****         {
  32:.\Generated_Source\PSoC4/BLE_custom.c **** 
  33:.\Generated_Source\PSoC4/BLE_custom.c ****             /* Custom Characteristic characteristic */
  34:.\Generated_Source\PSoC4/BLE_custom.c ****             {
  35:.\Generated_Source\PSoC4/BLE_custom.c ****                 0x000Cu, /* Handle of the Custom Characteristic characteristic */ 
  36:.\Generated_Source\PSoC4/BLE_custom.c ****                 
  37:.\Generated_Source\PSoC4/BLE_custom.c ****                 /* Array of Descriptors handles */
  38:.\Generated_Source\PSoC4/BLE_custom.c ****                 {
  39:.\Generated_Source\PSoC4/BLE_custom.c ****                     0x000Du, /* Handle of the Custom Descriptor descriptor */ 
  40:.\Generated_Source\PSoC4/BLE_custom.c ****                 }, 
  41:.\Generated_Source\PSoC4/BLE_custom.c ****             },
  42:.\Generated_Source\PSoC4/BLE_custom.c ****         }, 
  43:.\Generated_Source\PSoC4/BLE_custom.c ****     },
  44:.\Generated_Source\PSoC4/BLE_custom.c **** };
ARM GAS  C:\Users\YBOURA~1\AppData\Local\Temp\ccLqBgOE.s 			page 4


  45:.\Generated_Source\PSoC4/BLE_custom.c **** 
  46:.\Generated_Source\PSoC4/BLE_custom.c **** 
  47:.\Generated_Source\PSoC4/BLE_custom.c **** #endif /* (CYBLE_CUSTOM_SERVER) */
  48:.\Generated_Source\PSoC4/BLE_custom.c **** 
  49:.\Generated_Source\PSoC4/BLE_custom.c **** #ifdef CYBLE_CUSTOM_CLIENT
  50:.\Generated_Source\PSoC4/BLE_custom.c ****     
  51:.\Generated_Source\PSoC4/BLE_custom.c **** static const CYBLE_UUID128_T cyBle_customUuid128[] = {
  52:.\Generated_Source\PSoC4/BLE_custom.c ****     /* Custom Service */
  53:.\Generated_Source\PSoC4/BLE_custom.c ****     { {0xFBu, 0x34u, 0x9Bu, 0x5Fu, 0x80u, 0x00u, 0x00u, 0x80u, 0x00u, 0x10u, 0x00u, 0x00u, 0x00u, 0
  54:.\Generated_Source\PSoC4/BLE_custom.c ****     /* Custom Characteristic */
  55:.\Generated_Source\PSoC4/BLE_custom.c ****     { {0xFBu, 0x34u, 0x9Bu, 0x5Fu, 0x80u, 0x00u, 0x00u, 0x80u, 0x00u, 0x10u, 0x00u, 0x00u, 0x00u, 0
  56:.\Generated_Source\PSoC4/BLE_custom.c ****     /* Custom Descriptor */
  57:.\Generated_Source\PSoC4/BLE_custom.c ****     { {0xFBu, 0x34u, 0x9Bu, 0x5Fu, 0x80u, 0x00u, 0x00u, 0x80u, 0x00u, 0x10u, 0x00u, 0x00u, 0x00u, 0
  58:.\Generated_Source\PSoC4/BLE_custom.c **** };
  59:.\Generated_Source\PSoC4/BLE_custom.c **** 
  60:.\Generated_Source\PSoC4/BLE_custom.c **** static CYBLE_CUSTOMC_DESC_T cyBle_customCDesc[0x01u] = {
  61:.\Generated_Source\PSoC4/BLE_custom.c **** 
  62:.\Generated_Source\PSoC4/BLE_custom.c ****     /* Custom Descriptor */
  63:.\Generated_Source\PSoC4/BLE_custom.c ****     {
  64:.\Generated_Source\PSoC4/BLE_custom.c ****         CYBLE_GATT_INVALID_ATTR_HANDLE_VALUE, /* Descriptor handle */ 
  65:.\Generated_Source\PSoC4/BLE_custom.c ****         (const CYBLE_UUID128_T *) &cyBle_customUuid128[2], /* 128-bit UUID */ 
  66:.\Generated_Source\PSoC4/BLE_custom.c ****         0x02u, /* UUID Format - 16-bit (0x01) or 128-bit (0x02) */ 
  67:.\Generated_Source\PSoC4/BLE_custom.c ****     },
  68:.\Generated_Source\PSoC4/BLE_custom.c **** };
  69:.\Generated_Source\PSoC4/BLE_custom.c **** 
  70:.\Generated_Source\PSoC4/BLE_custom.c **** static CYBLE_CUSTOMC_CHAR_T cyBle_customCChar[0x01u] = {
  71:.\Generated_Source\PSoC4/BLE_custom.c **** 
  72:.\Generated_Source\PSoC4/BLE_custom.c ****     /* Custom Characteristic */
  73:.\Generated_Source\PSoC4/BLE_custom.c ****     {
  74:.\Generated_Source\PSoC4/BLE_custom.c ****         CYBLE_GATT_INVALID_ATTR_HANDLE_VALUE, /* Characteristic handle */ 
  75:.\Generated_Source\PSoC4/BLE_custom.c ****         CYBLE_GATT_INVALID_ATTR_HANDLE_VALUE, /* Characteristic end handle */ 
  76:.\Generated_Source\PSoC4/BLE_custom.c ****         (const CYBLE_UUID128_T *) &cyBle_customUuid128[1], /* 128-bit UUID */ 
  77:.\Generated_Source\PSoC4/BLE_custom.c ****         0x02u, /* UUID Format - 16-bit (0x01) or 128-bit (0x02) */ 
  78:.\Generated_Source\PSoC4/BLE_custom.c ****         0x00u, /* Characteristic properties */ 
  79:.\Generated_Source\PSoC4/BLE_custom.c ****         0x01u, /* Number of descriptors */ 
  80:.\Generated_Source\PSoC4/BLE_custom.c ****         &cyBle_customCDesc[0], /* Characteristic Descriptors */ 
  81:.\Generated_Source\PSoC4/BLE_custom.c ****     },
  82:.\Generated_Source\PSoC4/BLE_custom.c **** };
  83:.\Generated_Source\PSoC4/BLE_custom.c **** 
  84:.\Generated_Source\PSoC4/BLE_custom.c **** CYBLE_CUSTOMC_T cyBle_customCServ[CYBLE_CUSTOMC_SERVICE_COUNT] = {
  85:.\Generated_Source\PSoC4/BLE_custom.c **** 
  86:.\Generated_Source\PSoC4/BLE_custom.c ****     /* Custom Service */
  87:.\Generated_Source\PSoC4/BLE_custom.c ****     {
  88:.\Generated_Source\PSoC4/BLE_custom.c ****         CYBLE_GATT_INVALID_ATTR_HANDLE_VALUE, /* Custom Service handle */ 
  89:.\Generated_Source\PSoC4/BLE_custom.c ****         (const CYBLE_UUID128_T *) &cyBle_customUuid128[0], /* 128-bit UUID */ 
  90:.\Generated_Source\PSoC4/BLE_custom.c ****         0x02u, /* UUID Format - 16-bit (0x01) or 128-bit (0x02) */ 
  91:.\Generated_Source\PSoC4/BLE_custom.c ****         0x01u, /* Number of characteristics */ 
  92:.\Generated_Source\PSoC4/BLE_custom.c ****         &cyBle_customCChar[0], /* Custom Service Characteristics */ 
  93:.\Generated_Source\PSoC4/BLE_custom.c ****     },
  94:.\Generated_Source\PSoC4/BLE_custom.c **** };
  95:.\Generated_Source\PSoC4/BLE_custom.c **** 
  96:.\Generated_Source\PSoC4/BLE_custom.c **** 
  97:.\Generated_Source\PSoC4/BLE_custom.c **** static uint16 cyBle_customDisServIndex;
  98:.\Generated_Source\PSoC4/BLE_custom.c **** static uint16 cyBle_customDisCharIndex;
  99:.\Generated_Source\PSoC4/BLE_custom.c **** 
 100:.\Generated_Source\PSoC4/BLE_custom.c **** #endif /* (CYBLE_CUSTOM_CLIENT) */
 101:.\Generated_Source\PSoC4/BLE_custom.c **** 
ARM GAS  C:\Users\YBOURA~1\AppData\Local\Temp\ccLqBgOE.s 			page 5


 102:.\Generated_Source\PSoC4/BLE_custom.c **** 
 103:.\Generated_Source\PSoC4/BLE_custom.c **** /****************************************************************************** 
 104:.\Generated_Source\PSoC4/BLE_custom.c **** * Function Name: CyBle_CustomInit
 105:.\Generated_Source\PSoC4/BLE_custom.c **** ***************************************************************************//**
 106:.\Generated_Source\PSoC4/BLE_custom.c **** * 
 107:.\Generated_Source\PSoC4/BLE_custom.c **** *  This function initializes Custom Service.
 108:.\Generated_Source\PSoC4/BLE_custom.c **** * 
 109:.\Generated_Source\PSoC4/BLE_custom.c **** * \return
 110:.\Generated_Source\PSoC4/BLE_custom.c **** *  None
 111:.\Generated_Source\PSoC4/BLE_custom.c **** * 
 112:.\Generated_Source\PSoC4/BLE_custom.c **** ******************************************************************************/
 113:.\Generated_Source\PSoC4/BLE_custom.c **** void CyBle_CustomInit(void)
 114:.\Generated_Source\PSoC4/BLE_custom.c **** {
 128              		.loc 1 114 0
 129              		.cfi_startproc
 130 0000 80B5     		push	{r7, lr}
 131              		.cfi_def_cfa_offset 8
 132              		.cfi_offset 7, -8
 133              		.cfi_offset 14, -4
 134 0002 82B0     		sub	sp, sp, #8
 135              		.cfi_def_cfa_offset 16
 136 0004 00AF     		add	r7, sp, #0
 137              		.cfi_def_cfa_register 7
 115:.\Generated_Source\PSoC4/BLE_custom.c ****     
 116:.\Generated_Source\PSoC4/BLE_custom.c **** #ifdef CYBLE_CUSTOM_CLIENT
 117:.\Generated_Source\PSoC4/BLE_custom.c **** 
 118:.\Generated_Source\PSoC4/BLE_custom.c ****     uint16 locServIndex;
 119:.\Generated_Source\PSoC4/BLE_custom.c ****     uint16 locCharIndex;
 120:.\Generated_Source\PSoC4/BLE_custom.c ****     uint16 locDescIndex;
 121:.\Generated_Source\PSoC4/BLE_custom.c ****     
 122:.\Generated_Source\PSoC4/BLE_custom.c ****     for(locServIndex = 0u; locServIndex < CYBLE_CUSTOMC_SERVICE_COUNT; locServIndex++)
 138              		.loc 1 122 0
 139 0006 BB1D     		add	r3, r7, #6
 140 0008 0022     		mov	r2, #0
 141 000a 1A80     		strh	r2, [r3]
 142 000c 55E0     		b	.L2
 143              	.L7:
 123:.\Generated_Source\PSoC4/BLE_custom.c ****     {
 124:.\Generated_Source\PSoC4/BLE_custom.c ****         for(locCharIndex = 0u; locCharIndex < cyBle_customCServ[locServIndex].charCount; locCharInd
 144              		.loc 1 124 0
 145 000e 3B1D     		add	r3, r7, #4
 146 0010 0022     		mov	r2, #0
 147 0012 1A80     		strh	r2, [r3]
 148 0014 40E0     		b	.L3
 149              	.L6:
 125:.\Generated_Source\PSoC4/BLE_custom.c ****         {
 126:.\Generated_Source\PSoC4/BLE_custom.c ****             cyBle_customCServ[locServIndex].customServChar[locCharIndex].
 150              		.loc 1 126 0
 151 0016 BB1D     		add	r3, r7, #6
 152 0018 1B88     		ldrh	r3, [r3]
 153 001a 2B4A     		ldr	r2, .L8
 154 001c 1B01     		lsl	r3, r3, #4
 155 001e D318     		add	r3, r2, r3
 156 0020 0833     		add	r3, r3, #8
 157 0022 5A68     		ldr	r2, [r3, #4]
 158 0024 3B1D     		add	r3, r7, #4
 159 0026 1B88     		ldrh	r3, [r3]
ARM GAS  C:\Users\YBOURA~1\AppData\Local\Temp\ccLqBgOE.s 			page 6


 160 0028 1B01     		lsl	r3, r3, #4
 161 002a D318     		add	r3, r2, r3
 127:.\Generated_Source\PSoC4/BLE_custom.c ****                 customServCharHandle = 0u;
 162              		.loc 1 127 0
 163 002c 0022     		mov	r2, #0
 164 002e 1A80     		strh	r2, [r3]
 128:.\Generated_Source\PSoC4/BLE_custom.c ****             
 129:.\Generated_Source\PSoC4/BLE_custom.c ****             for(locDescIndex = 0u; locDescIndex < 
 165              		.loc 1 129 0
 166 0030 BB1C     		add	r3, r7, #2
 167 0032 0022     		mov	r2, #0
 168 0034 1A80     		strh	r2, [r3]
 169 0036 19E0     		b	.L4
 170              	.L5:
 130:.\Generated_Source\PSoC4/BLE_custom.c ****                 cyBle_customCServ[locServIndex].customServChar[locCharIndex].descCount; 
 131:.\Generated_Source\PSoC4/BLE_custom.c ****                     locDescIndex++)
 132:.\Generated_Source\PSoC4/BLE_custom.c ****             {
 133:.\Generated_Source\PSoC4/BLE_custom.c ****                 cyBle_customCServ[locServIndex].customServChar[locCharIndex].
 171              		.loc 1 133 0
 172 0038 BB1D     		add	r3, r7, #6
 173 003a 1B88     		ldrh	r3, [r3]
 174 003c 224A     		ldr	r2, .L8
 175 003e 1B01     		lsl	r3, r3, #4
 176 0040 D318     		add	r3, r2, r3
 177 0042 0833     		add	r3, r3, #8
 178 0044 5A68     		ldr	r2, [r3, #4]
 179 0046 3B1D     		add	r3, r7, #4
 180 0048 1B88     		ldrh	r3, [r3]
 181 004a 1B01     		lsl	r3, r3, #4
 182 004c D318     		add	r3, r2, r3
 183 004e D968     		ldr	r1, [r3, #12]
 134:.\Generated_Source\PSoC4/BLE_custom.c ****                     customServCharDesc[locDescIndex].descHandle = 0u;
 184              		.loc 1 134 0
 185 0050 BB1C     		add	r3, r7, #2
 186 0052 1A88     		ldrh	r2, [r3]
 187 0054 131C     		mov	r3, r2
 188 0056 5B00     		lsl	r3, r3, #1
 189 0058 9B18     		add	r3, r3, r2
 190 005a 9B00     		lsl	r3, r3, #2
 191 005c CB18     		add	r3, r1, r3
 192 005e 0022     		mov	r2, #0
 193 0060 1A80     		strh	r2, [r3]
 131:.\Generated_Source\PSoC4/BLE_custom.c ****             {
 194              		.loc 1 131 0
 195 0062 BB1C     		add	r3, r7, #2
 196 0064 1A88     		ldrh	r2, [r3]
 197 0066 BB1C     		add	r3, r7, #2
 198 0068 0132     		add	r2, r2, #1
 199 006a 1A80     		strh	r2, [r3]
 200              	.L4:
 130:.\Generated_Source\PSoC4/BLE_custom.c ****                 cyBle_customCServ[locServIndex].customServChar[locCharIndex].descCount; 
 201              		.loc 1 130 0 discriminator 1
 202 006c BB1D     		add	r3, r7, #6
 203 006e 1B88     		ldrh	r3, [r3]
 204 0070 154A     		ldr	r2, .L8
 205 0072 1B01     		lsl	r3, r3, #4
 206 0074 D318     		add	r3, r2, r3
ARM GAS  C:\Users\YBOURA~1\AppData\Local\Temp\ccLqBgOE.s 			page 7


 207 0076 0833     		add	r3, r3, #8
 208 0078 5A68     		ldr	r2, [r3, #4]
 209 007a 3B1D     		add	r3, r7, #4
 210 007c 1B88     		ldrh	r3, [r3]
 211 007e 1B01     		lsl	r3, r3, #4
 212 0080 D318     		add	r3, r2, r3
 213 0082 9B7A     		ldrb	r3, [r3, #10]
 129:.\Generated_Source\PSoC4/BLE_custom.c ****                 cyBle_customCServ[locServIndex].customServChar[locCharIndex].descCount; 
 214              		.loc 1 129 0 discriminator 1
 215 0084 9BB2     		uxth	r3, r3
 216 0086 BA1C     		add	r2, r7, #2
 217 0088 1288     		ldrh	r2, [r2]
 218 008a 9A42     		cmp	r2, r3
 219 008c D4D3     		bcc	.L5
 124:.\Generated_Source\PSoC4/BLE_custom.c ****         {
 220              		.loc 1 124 0 discriminator 2
 221 008e 3B1D     		add	r3, r7, #4
 222 0090 1A88     		ldrh	r2, [r3]
 223 0092 3B1D     		add	r3, r7, #4
 224 0094 0132     		add	r2, r2, #1
 225 0096 1A80     		strh	r2, [r3]
 226              	.L3:
 124:.\Generated_Source\PSoC4/BLE_custom.c ****         {
 227              		.loc 1 124 0 is_stmt 0 discriminator 1
 228 0098 BB1D     		add	r3, r7, #6
 229 009a 1B88     		ldrh	r3, [r3]
 230 009c 0A4A     		ldr	r2, .L8
 231 009e 1B01     		lsl	r3, r3, #4
 232 00a0 D318     		add	r3, r2, r3
 233 00a2 0833     		add	r3, r3, #8
 234 00a4 5B78     		ldrb	r3, [r3, #1]
 235 00a6 9BB2     		uxth	r3, r3
 236 00a8 3A1D     		add	r2, r7, #4
 237 00aa 1288     		ldrh	r2, [r2]
 238 00ac 9A42     		cmp	r2, r3
 239 00ae B2D3     		bcc	.L6
 122:.\Generated_Source\PSoC4/BLE_custom.c ****     {
 240              		.loc 1 122 0 is_stmt 1 discriminator 2
 241 00b0 BB1D     		add	r3, r7, #6
 242 00b2 1A88     		ldrh	r2, [r3]
 243 00b4 BB1D     		add	r3, r7, #6
 244 00b6 0132     		add	r2, r2, #1
 245 00b8 1A80     		strh	r2, [r3]
 246              	.L2:
 122:.\Generated_Source\PSoC4/BLE_custom.c ****     {
 247              		.loc 1 122 0 is_stmt 0 discriminator 1
 248 00ba BB1D     		add	r3, r7, #6
 249 00bc 1B88     		ldrh	r3, [r3]
 250 00be 002B     		cmp	r3, #0
 251 00c0 A5D0     		beq	.L7
 135:.\Generated_Source\PSoC4/BLE_custom.c ****             }
 136:.\Generated_Source\PSoC4/BLE_custom.c ****         }
 137:.\Generated_Source\PSoC4/BLE_custom.c ****     }
 138:.\Generated_Source\PSoC4/BLE_custom.c **** 
 139:.\Generated_Source\PSoC4/BLE_custom.c **** #endif /* (CYBLE_CUSTOM_CLIENT) */
 140:.\Generated_Source\PSoC4/BLE_custom.c **** }
 252              		.loc 1 140 0 is_stmt 1
ARM GAS  C:\Users\YBOURA~1\AppData\Local\Temp\ccLqBgOE.s 			page 8


 253 00c2 BD46     		mov	sp, r7
 254 00c4 02B0     		add	sp, sp, #8
 255              		@ sp needed
 256 00c6 80BD     		pop	{r7, pc}
 257              	.L9:
 258              		.align	2
 259              	.L8:
 260 00c8 00000000 		.word	cyBle_customCServ
 261              		.cfi_endproc
 262              	.LFE2:
 263              		.size	CyBle_CustomInit, .-CyBle_CustomInit
 264              		.section	.text.CyBle_CustomcDiscoverServiceEventHandler,"ax",%progbits
 265              		.align	2
 266              		.global	CyBle_CustomcDiscoverServiceEventHandler
 267              		.code	16
 268              		.thumb_func
 269              		.type	CyBle_CustomcDiscoverServiceEventHandler, %function
 270              	CyBle_CustomcDiscoverServiceEventHandler:
 271              	.LFB3:
 141:.\Generated_Source\PSoC4/BLE_custom.c **** 
 142:.\Generated_Source\PSoC4/BLE_custom.c **** 
 143:.\Generated_Source\PSoC4/BLE_custom.c **** #ifdef CYBLE_CUSTOM_CLIENT
 144:.\Generated_Source\PSoC4/BLE_custom.c **** 
 145:.\Generated_Source\PSoC4/BLE_custom.c ****     
 146:.\Generated_Source\PSoC4/BLE_custom.c **** /******************************************************************************
 147:.\Generated_Source\PSoC4/BLE_custom.c **** * Function Name: CyBle_CustomcDiscoverServiceEventHandler
 148:.\Generated_Source\PSoC4/BLE_custom.c **** ***************************************************************************//**
 149:.\Generated_Source\PSoC4/BLE_custom.c **** * 
 150:.\Generated_Source\PSoC4/BLE_custom.c **** *  This function is called on receiving a Read By Group Response event or 
 151:.\Generated_Source\PSoC4/BLE_custom.c **** *  Read response with 128-bit service uuid. 
 152:.\Generated_Source\PSoC4/BLE_custom.c **** * 
 153:.\Generated_Source\PSoC4/BLE_custom.c **** *  \param *discServInfo: The pointer to a service information structure.
 154:.\Generated_Source\PSoC4/BLE_custom.c **** * 
 155:.\Generated_Source\PSoC4/BLE_custom.c **** * \return
 156:.\Generated_Source\PSoC4/BLE_custom.c **** *  None
 157:.\Generated_Source\PSoC4/BLE_custom.c **** * 
 158:.\Generated_Source\PSoC4/BLE_custom.c **** ******************************************************************************/
 159:.\Generated_Source\PSoC4/BLE_custom.c **** void CyBle_CustomcDiscoverServiceEventHandler(const CYBLE_DISC_SRVC128_INFO_T *discServInfo)
 160:.\Generated_Source\PSoC4/BLE_custom.c **** {
 272              		.loc 1 160 0
 273              		.cfi_startproc
 274 0000 80B5     		push	{r7, lr}
 275              		.cfi_def_cfa_offset 8
 276              		.cfi_offset 7, -8
 277              		.cfi_offset 14, -4
 278 0002 84B0     		sub	sp, sp, #16
 279              		.cfi_def_cfa_offset 24
 280 0004 00AF     		add	r7, sp, #0
 281              		.cfi_def_cfa_register 7
 282 0006 7860     		str	r0, [r7, #4]
 161:.\Generated_Source\PSoC4/BLE_custom.c ****     uint16 j;
 162:.\Generated_Source\PSoC4/BLE_custom.c ****     uint8 flag = 0u;
 283              		.loc 1 162 0
 284 0008 0D23     		mov	r3, #13
 285 000a FB18     		add	r3, r7, r3
 286 000c 0022     		mov	r2, #0
 287 000e 1A70     		strb	r2, [r3]
ARM GAS  C:\Users\YBOURA~1\AppData\Local\Temp\ccLqBgOE.s 			page 9


 163:.\Generated_Source\PSoC4/BLE_custom.c ****     
 164:.\Generated_Source\PSoC4/BLE_custom.c ****     /* Services with 128 bit UUID have discServInfo->uuid equal to 0 and address to 
 165:.\Generated_Source\PSoC4/BLE_custom.c ****        128 uuid is stored in cyBle_customCServ.uuid128
 166:.\Generated_Source\PSoC4/BLE_custom.c ****     */
 167:.\Generated_Source\PSoC4/BLE_custom.c **** 	for(j = 0u; (j < CYBLE_CUSTOMC_SERVICE_COUNT) && (flag == 0u); j++)
 288              		.loc 1 167 0
 289 0010 0E23     		mov	r3, #14
 290 0012 FB18     		add	r3, r7, r3
 291 0014 0022     		mov	r2, #0
 292 0016 1A80     		strh	r2, [r3]
 293 0018 46E0     		b	.L11
 294              	.L14:
 168:.\Generated_Source\PSoC4/BLE_custom.c ****     {
 169:.\Generated_Source\PSoC4/BLE_custom.c ****         if(cyBle_customCServ[j].uuidFormat == CYBLE_GATT_128_BIT_UUID_FORMAT)
 295              		.loc 1 169 0
 296 001a 0E23     		mov	r3, #14
 297 001c FB18     		add	r3, r7, r3
 298 001e 1B88     		ldrh	r3, [r3]
 299 0020 284A     		ldr	r2, .L15
 300 0022 1B01     		lsl	r3, r3, #4
 301 0024 D318     		add	r3, r2, r3
 302 0026 0833     		add	r3, r3, #8
 303 0028 1B78     		ldrb	r3, [r3]
 304 002a 022B     		cmp	r3, #2
 305 002c 35D1     		bne	.L12
 170:.\Generated_Source\PSoC4/BLE_custom.c ****         {
 171:.\Generated_Source\PSoC4/BLE_custom.c ****             if(memcmp(cyBle_customCServ[j].uuid, &discServInfo->uuid.uuid128, CYBLE_GATT_128_BIT_UU
 306              		.loc 1 171 0
 307 002e 0E23     		mov	r3, #14
 308 0030 FB18     		add	r3, r7, r3
 309 0032 1B88     		ldrh	r3, [r3]
 310 0034 234A     		ldr	r2, .L15
 311 0036 1B01     		lsl	r3, r3, #4
 312 0038 D318     		add	r3, r2, r3
 313 003a 5A68     		ldr	r2, [r3, #4]
 314 003c 7B68     		ldr	r3, [r7, #4]
 315 003e 0433     		add	r3, r3, #4
 316 0040 101C     		mov	r0, r2
 317 0042 191C     		mov	r1, r3
 318 0044 1022     		mov	r2, #16
 319 0046 FFF7FEFF 		bl	memcmp
 320 004a 031E     		sub	r3, r0, #0
 321 004c 25D1     		bne	.L12
 172:.\Generated_Source\PSoC4/BLE_custom.c ****             {
 173:.\Generated_Source\PSoC4/BLE_custom.c ****                 if(cyBle_serverInfo[j + (uint16)CYBLE_SRVI_CUSTOMS].range.startHandle == 
 322              		.loc 1 173 0
 323 004e 0E23     		mov	r3, #14
 324 0050 FB18     		add	r3, r7, r3
 325 0052 1B88     		ldrh	r3, [r3]
 326 0054 9A1C     		add	r2, r3, #2
 327 0056 1C49     		ldr	r1, .L15+4
 328 0058 131C     		mov	r3, r2
 329 005a 5B00     		lsl	r3, r3, #1
 330 005c 9B18     		add	r3, r3, r2
 331 005e 5B00     		lsl	r3, r3, #1
 332 0060 5B5A     		ldrh	r3, [r3, r1]
 333 0062 002B     		cmp	r3, #0
ARM GAS  C:\Users\YBOURA~1\AppData\Local\Temp\ccLqBgOE.s 			page 10


 334 0064 19D1     		bne	.L12
 174:.\Generated_Source\PSoC4/BLE_custom.c ****                    CYBLE_GATT_INVALID_ATTR_HANDLE_VALUE)
 175:.\Generated_Source\PSoC4/BLE_custom.c ****                 {
 176:.\Generated_Source\PSoC4/BLE_custom.c ****                     cyBle_serverInfo[j + (uint16)CYBLE_SRVI_CUSTOMS].range = discServInfo->range;
 335              		.loc 1 176 0
 336 0066 0E23     		mov	r3, #14
 337 0068 FB18     		add	r3, r7, r3
 338 006a 1B88     		ldrh	r3, [r3]
 339 006c 9A1C     		add	r2, r3, #2
 340 006e 1649     		ldr	r1, .L15+4
 341 0070 131C     		mov	r3, r2
 342 0072 5B00     		lsl	r3, r3, #1
 343 0074 9B18     		add	r3, r3, r2
 344 0076 5B00     		lsl	r3, r3, #1
 345 0078 7A68     		ldr	r2, [r7, #4]
 346 007a CB18     		add	r3, r1, r3
 347 007c 111C     		mov	r1, r2
 348 007e 0422     		mov	r2, #4
 349 0080 181C     		mov	r0, r3
 350 0082 FFF7FEFF 		bl	memcpy
 177:.\Generated_Source\PSoC4/BLE_custom.c ****                     cyBle_disCount++;
 351              		.loc 1 177 0
 352 0086 114B     		ldr	r3, .L15+8
 353 0088 1B78     		ldrb	r3, [r3]
 354 008a 0133     		add	r3, r3, #1
 355 008c DAB2     		uxtb	r2, r3
 356 008e 0F4B     		ldr	r3, .L15+8
 357 0090 1A70     		strb	r2, [r3]
 178:.\Generated_Source\PSoC4/BLE_custom.c ****                     flag = 1u;
 358              		.loc 1 178 0
 359 0092 0D23     		mov	r3, #13
 360 0094 FB18     		add	r3, r7, r3
 361 0096 0122     		mov	r2, #1
 362 0098 1A70     		strb	r2, [r3]
 363              	.L12:
 167:.\Generated_Source\PSoC4/BLE_custom.c ****     {
 364              		.loc 1 167 0 discriminator 2
 365 009a 0E23     		mov	r3, #14
 366 009c FB18     		add	r3, r7, r3
 367 009e 1A88     		ldrh	r2, [r3]
 368 00a0 0E23     		mov	r3, #14
 369 00a2 FB18     		add	r3, r7, r3
 370 00a4 0132     		add	r2, r2, #1
 371 00a6 1A80     		strh	r2, [r3]
 372              	.L11:
 167:.\Generated_Source\PSoC4/BLE_custom.c ****     {
 373              		.loc 1 167 0 is_stmt 0 discriminator 1
 374 00a8 0E23     		mov	r3, #14
 375 00aa FB18     		add	r3, r7, r3
 376 00ac 1B88     		ldrh	r3, [r3]
 377 00ae 002B     		cmp	r3, #0
 378 00b0 04D1     		bne	.L10
 167:.\Generated_Source\PSoC4/BLE_custom.c ****     {
 379              		.loc 1 167 0 discriminator 3
 380 00b2 0D23     		mov	r3, #13
 381 00b4 FB18     		add	r3, r7, r3
 382 00b6 1B78     		ldrb	r3, [r3]
ARM GAS  C:\Users\YBOURA~1\AppData\Local\Temp\ccLqBgOE.s 			page 11


 383 00b8 002B     		cmp	r3, #0
 384 00ba AED0     		beq	.L14
 385              	.L10:
 179:.\Generated_Source\PSoC4/BLE_custom.c ****                 }
 180:.\Generated_Source\PSoC4/BLE_custom.c ****             }
 181:.\Generated_Source\PSoC4/BLE_custom.c ****         }
 182:.\Generated_Source\PSoC4/BLE_custom.c ****     }
 183:.\Generated_Source\PSoC4/BLE_custom.c **** }
 386              		.loc 1 183 0 is_stmt 1
 387 00bc BD46     		mov	sp, r7
 388 00be 04B0     		add	sp, sp, #16
 389              		@ sp needed
 390 00c0 80BD     		pop	{r7, pc}
 391              	.L16:
 392 00c2 C046     		.align	2
 393              	.L15:
 394 00c4 00000000 		.word	cyBle_customCServ
 395 00c8 00000000 		.word	cyBle_serverInfo
 396 00cc 00000000 		.word	cyBle_disCount
 397              		.cfi_endproc
 398              	.LFE3:
 399              		.size	CyBle_CustomcDiscoverServiceEventHandler, .-CyBle_CustomcDiscoverServiceEventHandler
 400              		.section	.text.CyBle_CustomcDiscoverCharacteristicsEventHandler,"ax",%progbits
 401              		.align	2
 402              		.global	CyBle_CustomcDiscoverCharacteristicsEventHandler
 403              		.code	16
 404              		.thumb_func
 405              		.type	CyBle_CustomcDiscoverCharacteristicsEventHandler, %function
 406              	CyBle_CustomcDiscoverCharacteristicsEventHandler:
 407              	.LFB4:
 184:.\Generated_Source\PSoC4/BLE_custom.c **** 
 185:.\Generated_Source\PSoC4/BLE_custom.c **** 
 186:.\Generated_Source\PSoC4/BLE_custom.c **** /******************************************************************************
 187:.\Generated_Source\PSoC4/BLE_custom.c **** * Function Name: CyBle_CustomcDiscoverCharacteristicsEventHandler
 188:.\Generated_Source\PSoC4/BLE_custom.c **** ***************************************************************************//**
 189:.\Generated_Source\PSoC4/BLE_custom.c **** * 
 190:.\Generated_Source\PSoC4/BLE_custom.c **** *  This function is called on receiving a CYBLE_EVT_GATTC_READ_BY_TYPE_RSP
 191:.\Generated_Source\PSoC4/BLE_custom.c **** *  event. Based on the service index, an appropriate data structure is populated
 192:.\Generated_Source\PSoC4/BLE_custom.c **** *  using the data received as part of the callback.
 193:.\Generated_Source\PSoC4/BLE_custom.c **** * 
 194:.\Generated_Source\PSoC4/BLE_custom.c **** *  \param *discCharInfo: The pointer to a characteristic information structure.
 195:.\Generated_Source\PSoC4/BLE_custom.c **** *  \param discoveryService: The index of the service instance.
 196:.\Generated_Source\PSoC4/BLE_custom.c **** * 
 197:.\Generated_Source\PSoC4/BLE_custom.c **** * \return
 198:.\Generated_Source\PSoC4/BLE_custom.c **** *  None
 199:.\Generated_Source\PSoC4/BLE_custom.c **** * 
 200:.\Generated_Source\PSoC4/BLE_custom.c **** ******************************************************************************/
 201:.\Generated_Source\PSoC4/BLE_custom.c **** void CyBle_CustomcDiscoverCharacteristicsEventHandler(uint16 discoveryService, const CYBLE_DISC_CHA
 202:.\Generated_Source\PSoC4/BLE_custom.c **** {
 408              		.loc 1 202 0
 409              		.cfi_startproc
 410 0000 80B5     		push	{r7, lr}
 411              		.cfi_def_cfa_offset 8
 412              		.cfi_offset 7, -8
 413              		.cfi_offset 14, -4
 414 0002 84B0     		sub	sp, sp, #16
 415              		.cfi_def_cfa_offset 24
ARM GAS  C:\Users\YBOURA~1\AppData\Local\Temp\ccLqBgOE.s 			page 12


 416 0004 00AF     		add	r7, sp, #0
 417              		.cfi_def_cfa_register 7
 418 0006 021C     		mov	r2, r0
 419 0008 3960     		str	r1, [r7]
 420 000a BB1D     		add	r3, r7, #6
 421 000c 1A80     		strh	r2, [r3]
 203:.\Generated_Source\PSoC4/BLE_custom.c ****     uint16 locCharIndex;
 204:.\Generated_Source\PSoC4/BLE_custom.c ****     static CYBLE_GATT_DB_ATTR_HANDLE_T *customsLastEndHandle = NULL;
 205:.\Generated_Source\PSoC4/BLE_custom.c ****     static uint16 discoveryLastServ = 0u;    
 206:.\Generated_Source\PSoC4/BLE_custom.c ****     uint8 locReqHandle = 0u;
 422              		.loc 1 206 0
 423 000e 0D23     		mov	r3, #13
 424 0010 FB18     		add	r3, r7, r3
 425 0012 0022     		mov	r2, #0
 426 0014 1A70     		strb	r2, [r3]
 207:.\Generated_Source\PSoC4/BLE_custom.c **** 
 208:.\Generated_Source\PSoC4/BLE_custom.c ****     /* Update last characteristic endHandle to declaration handle of this characteristic */
 209:.\Generated_Source\PSoC4/BLE_custom.c ****     if(customsLastEndHandle != NULL)
 427              		.loc 1 209 0
 428 0016 774B     		ldr	r3, .L27
 429 0018 1B68     		ldr	r3, [r3]
 430 001a 002B     		cmp	r3, #0
 431 001c 0FD0     		beq	.L18
 210:.\Generated_Source\PSoC4/BLE_custom.c ****     {
 211:.\Generated_Source\PSoC4/BLE_custom.c ****         if(discoveryLastServ == discoveryService)
 432              		.loc 1 211 0
 433 001e 764B     		ldr	r3, .L27+4
 434 0020 1B88     		ldrh	r3, [r3]
 435 0022 BA1D     		add	r2, r7, #6
 436 0024 1288     		ldrh	r2, [r2]
 437 0026 9A42     		cmp	r2, r3
 438 0028 06D1     		bne	.L19
 212:.\Generated_Source\PSoC4/BLE_custom.c ****         {
 213:.\Generated_Source\PSoC4/BLE_custom.c ****             *customsLastEndHandle = discCharInfo->charDeclHandle - 1u;
 439              		.loc 1 213 0
 440 002a 724B     		ldr	r3, .L27
 441 002c 1B68     		ldr	r3, [r3]
 442 002e 3A68     		ldr	r2, [r7]
 443 0030 1288     		ldrh	r2, [r2]
 444 0032 013A     		sub	r2, r2, #1
 445 0034 92B2     		uxth	r2, r2
 446 0036 1A80     		strh	r2, [r3]
 447              	.L19:
 214:.\Generated_Source\PSoC4/BLE_custom.c ****         }
 215:.\Generated_Source\PSoC4/BLE_custom.c ****         customsLastEndHandle = NULL;
 448              		.loc 1 215 0
 449 0038 6E4B     		ldr	r3, .L27
 450 003a 0022     		mov	r2, #0
 451 003c 1A60     		str	r2, [r3]
 452              	.L18:
 216:.\Generated_Source\PSoC4/BLE_custom.c ****     }
 217:.\Generated_Source\PSoC4/BLE_custom.c ****     
 218:.\Generated_Source\PSoC4/BLE_custom.c ****     for(locCharIndex = 0u; (locCharIndex < cyBle_customCServ[discoveryService].charCount) && (locRe
 453              		.loc 1 218 0
 454 003e 0E23     		mov	r3, #14
 455 0040 FB18     		add	r3, r7, r3
 456 0042 0022     		mov	r2, #0
ARM GAS  C:\Users\YBOURA~1\AppData\Local\Temp\ccLqBgOE.s 			page 13


 457 0044 1A80     		strh	r2, [r3]
 458 0046 ADE0     		b	.L20
 459              	.L25:
 460              	.LBB2:
 219:.\Generated_Source\PSoC4/BLE_custom.c ****         locCharIndex++)
 220:.\Generated_Source\PSoC4/BLE_custom.c ****     {
 221:.\Generated_Source\PSoC4/BLE_custom.c ****         uint8 flag = 0u;
 461              		.loc 1 221 0
 462 0048 0C23     		mov	r3, #12
 463 004a FB18     		add	r3, r7, r3
 464 004c 0022     		mov	r2, #0
 465 004e 1A70     		strb	r2, [r3]
 222:.\Generated_Source\PSoC4/BLE_custom.c ****         
 223:.\Generated_Source\PSoC4/BLE_custom.c ****         /* Support 128 bit uuid */
 224:.\Generated_Source\PSoC4/BLE_custom.c ****         if((discCharInfo->uuidFormat == CYBLE_GATT_128_BIT_UUID_FORMAT) &&
 466              		.loc 1 224 0
 467 0050 3B68     		ldr	r3, [r7]
 468 0052 9B7D     		ldrb	r3, [r3, #22]
 469 0054 022B     		cmp	r3, #2
 470 0056 28D1     		bne	.L21
 225:.\Generated_Source\PSoC4/BLE_custom.c ****            (cyBle_customCServ[discoveryService].customServChar[locCharIndex].uuidFormat == 
 471              		.loc 1 225 0 discriminator 1
 472 0058 BB1D     		add	r3, r7, #6
 473 005a 1B88     		ldrh	r3, [r3]
 474 005c 674A     		ldr	r2, .L27+8
 475 005e 1B01     		lsl	r3, r3, #4
 476 0060 D318     		add	r3, r2, r3
 477 0062 0833     		add	r3, r3, #8
 478 0064 5A68     		ldr	r2, [r3, #4]
 479 0066 0E23     		mov	r3, #14
 480 0068 FB18     		add	r3, r7, r3
 481 006a 1B88     		ldrh	r3, [r3]
 482 006c 1B01     		lsl	r3, r3, #4
 483 006e D318     		add	r3, r2, r3
 484 0070 1B7A     		ldrb	r3, [r3, #8]
 224:.\Generated_Source\PSoC4/BLE_custom.c ****            (cyBle_customCServ[discoveryService].customServChar[locCharIndex].uuidFormat == 
 485              		.loc 1 224 0 discriminator 1
 486 0072 022B     		cmp	r3, #2
 487 0074 19D1     		bne	.L21
 226:.\Generated_Source\PSoC4/BLE_custom.c ****                 CYBLE_GATT_128_BIT_UUID_FORMAT))
 227:.\Generated_Source\PSoC4/BLE_custom.c ****         {
 228:.\Generated_Source\PSoC4/BLE_custom.c ****             if(memcmp(cyBle_customCServ[discoveryService].customServChar[locCharIndex].uuid, 
 488              		.loc 1 228 0
 489 0076 BB1D     		add	r3, r7, #6
 490 0078 1B88     		ldrh	r3, [r3]
 491 007a 604A     		ldr	r2, .L27+8
 492 007c 1B01     		lsl	r3, r3, #4
 493 007e D318     		add	r3, r2, r3
 494 0080 0833     		add	r3, r3, #8
 495 0082 5A68     		ldr	r2, [r3, #4]
 496 0084 0E23     		mov	r3, #14
 497 0086 FB18     		add	r3, r7, r3
 498 0088 1B88     		ldrh	r3, [r3]
 499 008a 1B01     		lsl	r3, r3, #4
 500 008c D318     		add	r3, r2, r3
 501 008e 5A68     		ldr	r2, [r3, #4]
 229:.\Generated_Source\PSoC4/BLE_custom.c ****                 &discCharInfo->uuid.uuid128, CYBLE_GATT_128_BIT_UUID_SIZE) == 0u)
ARM GAS  C:\Users\YBOURA~1\AppData\Local\Temp\ccLqBgOE.s 			page 14


 502              		.loc 1 229 0
 503 0090 3B68     		ldr	r3, [r7]
 504 0092 0633     		add	r3, r3, #6
 228:.\Generated_Source\PSoC4/BLE_custom.c ****                 &discCharInfo->uuid.uuid128, CYBLE_GATT_128_BIT_UUID_SIZE) == 0u)
 505              		.loc 1 228 0
 506 0094 101C     		mov	r0, r2
 507 0096 191C     		mov	r1, r3
 508 0098 1022     		mov	r2, #16
 509 009a FFF7FEFF 		bl	memcmp
 510 009e 031E     		sub	r3, r0, #0
 511 00a0 03D1     		bne	.L21
 230:.\Generated_Source\PSoC4/BLE_custom.c ****             {
 231:.\Generated_Source\PSoC4/BLE_custom.c ****                 flag = 1u;
 512              		.loc 1 231 0
 513 00a2 0C23     		mov	r3, #12
 514 00a4 FB18     		add	r3, r7, r3
 515 00a6 0122     		mov	r2, #1
 516 00a8 1A70     		strb	r2, [r3]
 517              	.L21:
 232:.\Generated_Source\PSoC4/BLE_custom.c ****             }
 233:.\Generated_Source\PSoC4/BLE_custom.c ****         }
 234:.\Generated_Source\PSoC4/BLE_custom.c ****         
 235:.\Generated_Source\PSoC4/BLE_custom.c ****         /* And support 16 bit uuid */
 236:.\Generated_Source\PSoC4/BLE_custom.c ****         if((discCharInfo->uuidFormat == CYBLE_GATT_16_BIT_UUID_FORMAT) &&
 518              		.loc 1 236 0
 519 00aa 3B68     		ldr	r3, [r7]
 520 00ac 9B7D     		ldrb	r3, [r3, #22]
 521 00ae 012B     		cmp	r3, #1
 522 00b0 28D1     		bne	.L22
 237:.\Generated_Source\PSoC4/BLE_custom.c ****            (cyBle_customCServ[discoveryService].customServChar[locCharIndex].uuidFormat == 
 523              		.loc 1 237 0 discriminator 1
 524 00b2 BB1D     		add	r3, r7, #6
 525 00b4 1B88     		ldrh	r3, [r3]
 526 00b6 514A     		ldr	r2, .L27+8
 527 00b8 1B01     		lsl	r3, r3, #4
 528 00ba D318     		add	r3, r2, r3
 529 00bc 0833     		add	r3, r3, #8
 530 00be 5A68     		ldr	r2, [r3, #4]
 531 00c0 0E23     		mov	r3, #14
 532 00c2 FB18     		add	r3, r7, r3
 533 00c4 1B88     		ldrh	r3, [r3]
 534 00c6 1B01     		lsl	r3, r3, #4
 535 00c8 D318     		add	r3, r2, r3
 536 00ca 1B7A     		ldrb	r3, [r3, #8]
 236:.\Generated_Source\PSoC4/BLE_custom.c ****            (cyBle_customCServ[discoveryService].customServChar[locCharIndex].uuidFormat == 
 537              		.loc 1 236 0 discriminator 1
 538 00cc 012B     		cmp	r3, #1
 539 00ce 19D1     		bne	.L22
 238:.\Generated_Source\PSoC4/BLE_custom.c ****                 CYBLE_GATT_16_BIT_UUID_FORMAT))
 239:.\Generated_Source\PSoC4/BLE_custom.c ****         {
 240:.\Generated_Source\PSoC4/BLE_custom.c ****             if(memcmp(cyBle_customCServ[discoveryService].customServChar[locCharIndex].uuid, 
 540              		.loc 1 240 0
 541 00d0 BB1D     		add	r3, r7, #6
 542 00d2 1B88     		ldrh	r3, [r3]
 543 00d4 494A     		ldr	r2, .L27+8
 544 00d6 1B01     		lsl	r3, r3, #4
 545 00d8 D318     		add	r3, r2, r3
ARM GAS  C:\Users\YBOURA~1\AppData\Local\Temp\ccLqBgOE.s 			page 15


 546 00da 0833     		add	r3, r3, #8
 547 00dc 5A68     		ldr	r2, [r3, #4]
 548 00de 0E23     		mov	r3, #14
 549 00e0 FB18     		add	r3, r7, r3
 550 00e2 1B88     		ldrh	r3, [r3]
 551 00e4 1B01     		lsl	r3, r3, #4
 552 00e6 D318     		add	r3, r2, r3
 553 00e8 5A68     		ldr	r2, [r3, #4]
 241:.\Generated_Source\PSoC4/BLE_custom.c ****                 &discCharInfo->uuid.uuid16, CYBLE_GATT_16_BIT_UUID_SIZE) == 0u)
 554              		.loc 1 241 0
 555 00ea 3B68     		ldr	r3, [r7]
 556 00ec 0633     		add	r3, r3, #6
 240:.\Generated_Source\PSoC4/BLE_custom.c ****                 &discCharInfo->uuid.uuid16, CYBLE_GATT_16_BIT_UUID_SIZE) == 0u)
 557              		.loc 1 240 0
 558 00ee 101C     		mov	r0, r2
 559 00f0 191C     		mov	r1, r3
 560 00f2 0222     		mov	r2, #2
 561 00f4 FFF7FEFF 		bl	memcmp
 562 00f8 031E     		sub	r3, r0, #0
 563 00fa 03D1     		bne	.L22
 242:.\Generated_Source\PSoC4/BLE_custom.c ****             {
 243:.\Generated_Source\PSoC4/BLE_custom.c ****                 flag = 1u;
 564              		.loc 1 243 0
 565 00fc 0C23     		mov	r3, #12
 566 00fe FB18     		add	r3, r7, r3
 567 0100 0122     		mov	r2, #1
 568 0102 1A70     		strb	r2, [r3]
 569              	.L22:
 244:.\Generated_Source\PSoC4/BLE_custom.c ****             }
 245:.\Generated_Source\PSoC4/BLE_custom.c ****         }
 246:.\Generated_Source\PSoC4/BLE_custom.c ****         
 247:.\Generated_Source\PSoC4/BLE_custom.c ****         if((flag == 1u) && 
 570              		.loc 1 247 0
 571 0104 0C23     		mov	r3, #12
 572 0106 FB18     		add	r3, r7, r3
 573 0108 1B78     		ldrb	r3, [r3]
 574 010a 012B     		cmp	r3, #1
 575 010c 43D1     		bne	.L23
 248:.\Generated_Source\PSoC4/BLE_custom.c ****            (cyBle_customCServ[discoveryService].customServChar[locCharIndex].customServCharHandle
 576              		.loc 1 248 0 discriminator 1
 577 010e BB1D     		add	r3, r7, #6
 578 0110 1B88     		ldrh	r3, [r3]
 579 0112 3A4A     		ldr	r2, .L27+8
 580 0114 1B01     		lsl	r3, r3, #4
 581 0116 D318     		add	r3, r2, r3
 582 0118 0833     		add	r3, r3, #8
 583 011a 5A68     		ldr	r2, [r3, #4]
 584 011c 0E23     		mov	r3, #14
 585 011e FB18     		add	r3, r7, r3
 586 0120 1B88     		ldrh	r3, [r3]
 587 0122 1B01     		lsl	r3, r3, #4
 588 0124 D318     		add	r3, r2, r3
 589 0126 1B88     		ldrh	r3, [r3]
 247:.\Generated_Source\PSoC4/BLE_custom.c ****            (cyBle_customCServ[discoveryService].customServChar[locCharIndex].customServCharHandle
 590              		.loc 1 247 0 discriminator 1
 591 0128 002B     		cmp	r3, #0
 592 012a 34D1     		bne	.L23
ARM GAS  C:\Users\YBOURA~1\AppData\Local\Temp\ccLqBgOE.s 			page 16


 249:.\Generated_Source\PSoC4/BLE_custom.c ****                 == CYBLE_GATT_INVALID_ATTR_HANDLE_VALUE))
 250:.\Generated_Source\PSoC4/BLE_custom.c ****         {
 251:.\Generated_Source\PSoC4/BLE_custom.c ****             cyBle_customCServ[discoveryService].customServChar[locCharIndex].customServCharHandle =
 593              		.loc 1 251 0
 594 012c BB1D     		add	r3, r7, #6
 595 012e 1B88     		ldrh	r3, [r3]
 596 0130 324A     		ldr	r2, .L27+8
 597 0132 1B01     		lsl	r3, r3, #4
 598 0134 D318     		add	r3, r2, r3
 599 0136 0833     		add	r3, r3, #8
 600 0138 5A68     		ldr	r2, [r3, #4]
 601 013a 0E23     		mov	r3, #14
 602 013c FB18     		add	r3, r7, r3
 603 013e 1B88     		ldrh	r3, [r3]
 604 0140 1B01     		lsl	r3, r3, #4
 605 0142 D318     		add	r3, r2, r3
 252:.\Generated_Source\PSoC4/BLE_custom.c ****                 discCharInfo->valueHandle;
 606              		.loc 1 252 0
 607 0144 3A68     		ldr	r2, [r7]
 608 0146 9288     		ldrh	r2, [r2, #4]
 251:.\Generated_Source\PSoC4/BLE_custom.c ****                 discCharInfo->valueHandle;
 609              		.loc 1 251 0
 610 0148 1A80     		strh	r2, [r3]
 253:.\Generated_Source\PSoC4/BLE_custom.c ****             cyBle_customCServ[discoveryService].customServChar[locCharIndex].properties = 
 611              		.loc 1 253 0
 612 014a BB1D     		add	r3, r7, #6
 613 014c 1B88     		ldrh	r3, [r3]
 614 014e 2B4A     		ldr	r2, .L27+8
 615 0150 1B01     		lsl	r3, r3, #4
 616 0152 D318     		add	r3, r2, r3
 617 0154 0833     		add	r3, r3, #8
 618 0156 5A68     		ldr	r2, [r3, #4]
 619 0158 0E23     		mov	r3, #14
 620 015a FB18     		add	r3, r7, r3
 621 015c 1B88     		ldrh	r3, [r3]
 622 015e 1B01     		lsl	r3, r3, #4
 623 0160 D318     		add	r3, r2, r3
 254:.\Generated_Source\PSoC4/BLE_custom.c ****                 discCharInfo->properties;
 624              		.loc 1 254 0
 625 0162 3A68     		ldr	r2, [r7]
 626 0164 9278     		ldrb	r2, [r2, #2]
 253:.\Generated_Source\PSoC4/BLE_custom.c ****             cyBle_customCServ[discoveryService].customServChar[locCharIndex].properties = 
 627              		.loc 1 253 0
 628 0166 5A72     		strb	r2, [r3, #9]
 255:.\Generated_Source\PSoC4/BLE_custom.c ****             /* Init pointer to characteristic endHandle */
 256:.\Generated_Source\PSoC4/BLE_custom.c ****             customsLastEndHandle = &cyBle_customCServ[discoveryService].customServChar[locCharIndex
 629              		.loc 1 256 0
 630 0168 BB1D     		add	r3, r7, #6
 631 016a 1B88     		ldrh	r3, [r3]
 632 016c 234A     		ldr	r2, .L27+8
 633 016e 1B01     		lsl	r3, r3, #4
 634 0170 D318     		add	r3, r2, r3
 635 0172 0833     		add	r3, r3, #8
 636 0174 5A68     		ldr	r2, [r3, #4]
 637 0176 0E23     		mov	r3, #14
 638 0178 FB18     		add	r3, r7, r3
 639 017a 1B88     		ldrh	r3, [r3]
ARM GAS  C:\Users\YBOURA~1\AppData\Local\Temp\ccLqBgOE.s 			page 17


 640 017c 1B01     		lsl	r3, r3, #4
 641 017e D318     		add	r3, r2, r3
 642 0180 9A1C     		add	r2, r3, #2
 643 0182 1C4B     		ldr	r3, .L27
 644 0184 1A60     		str	r2, [r3]
 257:.\Generated_Source\PSoC4/BLE_custom.c ****                                     customServCharEndHandle;
 258:.\Generated_Source\PSoC4/BLE_custom.c ****             /* Init service index of discovered characteristic */
 259:.\Generated_Source\PSoC4/BLE_custom.c ****             discoveryLastServ = discoveryService;
 645              		.loc 1 259 0
 646 0186 1C4B     		ldr	r3, .L27+4
 647 0188 BA1D     		add	r2, r7, #6
 648 018a 1288     		ldrh	r2, [r2]
 649 018c 1A80     		strh	r2, [r3]
 260:.\Generated_Source\PSoC4/BLE_custom.c ****             locReqHandle = 1u;
 650              		.loc 1 260 0
 651 018e 0D23     		mov	r3, #13
 652 0190 FB18     		add	r3, r7, r3
 653 0192 0122     		mov	r2, #1
 654 0194 1A70     		strb	r2, [r3]
 655              	.L23:
 656              	.LBE2:
 219:.\Generated_Source\PSoC4/BLE_custom.c ****     {
 657              		.loc 1 219 0
 658 0196 0E23     		mov	r3, #14
 659 0198 FB18     		add	r3, r7, r3
 660 019a 1A88     		ldrh	r2, [r3]
 661 019c 0E23     		mov	r3, #14
 662 019e FB18     		add	r3, r7, r3
 663 01a0 0132     		add	r2, r2, #1
 664 01a2 1A80     		strh	r2, [r3]
 665              	.L20:
 218:.\Generated_Source\PSoC4/BLE_custom.c ****         locCharIndex++)
 666              		.loc 1 218 0 discriminator 1
 667 01a4 BB1D     		add	r3, r7, #6
 668 01a6 1B88     		ldrh	r3, [r3]
 669 01a8 144A     		ldr	r2, .L27+8
 670 01aa 1B01     		lsl	r3, r3, #4
 671 01ac D318     		add	r3, r2, r3
 672 01ae 0833     		add	r3, r3, #8
 673 01b0 5B78     		ldrb	r3, [r3, #1]
 674 01b2 9BB2     		uxth	r3, r3
 675 01b4 0E22     		mov	r2, #14
 676 01b6 BA18     		add	r2, r7, r2
 677 01b8 1288     		ldrh	r2, [r2]
 678 01ba 9A42     		cmp	r2, r3
 679 01bc 05D2     		bcs	.L24
 218:.\Generated_Source\PSoC4/BLE_custom.c ****         locCharIndex++)
 680              		.loc 1 218 0 is_stmt 0 discriminator 2
 681 01be 0D23     		mov	r3, #13
 682 01c0 FB18     		add	r3, r7, r3
 683 01c2 1B78     		ldrb	r3, [r3]
 684 01c4 002B     		cmp	r3, #0
 685 01c6 00D1     		bne	.LCB517
 686 01c8 3EE7     		b	.L25	@long jump
 687              	.LCB517:
 688              	.L24:
 261:.\Generated_Source\PSoC4/BLE_custom.c ****         }
ARM GAS  C:\Users\YBOURA~1\AppData\Local\Temp\ccLqBgOE.s 			page 18


 262:.\Generated_Source\PSoC4/BLE_custom.c ****     }
 263:.\Generated_Source\PSoC4/BLE_custom.c ****     
 264:.\Generated_Source\PSoC4/BLE_custom.c ****     /* Init characteristic endHandle to Service endHandle.
 265:.\Generated_Source\PSoC4/BLE_custom.c ****        Characteristic endHandle will be updated to the declaration
 266:.\Generated_Source\PSoC4/BLE_custom.c ****        Handler of the following characteristic,
 267:.\Generated_Source\PSoC4/BLE_custom.c ****        in the following characteristic discovery procedure. */
 268:.\Generated_Source\PSoC4/BLE_custom.c ****     if(customsLastEndHandle != NULL)
 689              		.loc 1 268 0 is_stmt 1
 690 01ca 0A4B     		ldr	r3, .L27
 691 01cc 1B68     		ldr	r3, [r3]
 692 01ce 002B     		cmp	r3, #0
 693 01d0 0CD0     		beq	.L17
 269:.\Generated_Source\PSoC4/BLE_custom.c ****     {
 270:.\Generated_Source\PSoC4/BLE_custom.c ****         *customsLastEndHandle = cyBle_serverInfo[cyBle_disCount].range.endHandle;
 694              		.loc 1 270 0
 695 01d2 084B     		ldr	r3, .L27
 696 01d4 1A68     		ldr	r2, [r3]
 697 01d6 0A4B     		ldr	r3, .L27+12
 698 01d8 1B78     		ldrb	r3, [r3]
 699 01da 181C     		mov	r0, r3
 700 01dc 0949     		ldr	r1, .L27+16
 701 01de 031C     		mov	r3, r0
 702 01e0 5B00     		lsl	r3, r3, #1
 703 01e2 1B18     		add	r3, r3, r0
 704 01e4 5B00     		lsl	r3, r3, #1
 705 01e6 CB18     		add	r3, r1, r3
 706 01e8 5B88     		ldrh	r3, [r3, #2]
 707 01ea 1380     		strh	r3, [r2]
 708              	.L17:
 271:.\Generated_Source\PSoC4/BLE_custom.c ****     }
 272:.\Generated_Source\PSoC4/BLE_custom.c **** }
 709              		.loc 1 272 0
 710 01ec BD46     		mov	sp, r7
 711 01ee 04B0     		add	sp, sp, #16
 712              		@ sp needed
 713 01f0 80BD     		pop	{r7, pc}
 714              	.L28:
 715 01f2 C046     		.align	2
 716              	.L27:
 717 01f4 04000000 		.word	customsLastEndHandle.6140
 718 01f8 08000000 		.word	discoveryLastServ.6141
 719 01fc 00000000 		.word	cyBle_customCServ
 720 0200 00000000 		.word	cyBle_disCount
 721 0204 00000000 		.word	cyBle_serverInfo
 722              		.cfi_endproc
 723              	.LFE4:
 724              		.size	CyBle_CustomcDiscoverCharacteristicsEventHandler, .-CyBle_CustomcDiscoverCharacteristicsEven
 725              		.section	.text.CyBle_CustomcGetCharRange,"ax",%progbits
 726              		.align	2
 727              		.global	CyBle_CustomcGetCharRange
 728              		.code	16
 729              		.thumb_func
 730              		.type	CyBle_CustomcGetCharRange, %function
 731              	CyBle_CustomcGetCharRange:
 732              	.LFB5:
 273:.\Generated_Source\PSoC4/BLE_custom.c **** 
 274:.\Generated_Source\PSoC4/BLE_custom.c **** 
ARM GAS  C:\Users\YBOURA~1\AppData\Local\Temp\ccLqBgOE.s 			page 19


 275:.\Generated_Source\PSoC4/BLE_custom.c **** /****************************************************************************** 
 276:.\Generated_Source\PSoC4/BLE_custom.c **** * Function Name: CyBle_GetCustomCharRange
 277:.\Generated_Source\PSoC4/BLE_custom.c **** ***************************************************************************//**
 278:.\Generated_Source\PSoC4/BLE_custom.c **** * 
 279:.\Generated_Source\PSoC4/BLE_custom.c **** *  Returns a possible range of the current characteristic descriptor
 280:.\Generated_Source\PSoC4/BLE_custom.c **** *  which is pointed by custom service and char index.
 281:.\Generated_Source\PSoC4/BLE_custom.c **** * 
 282:.\Generated_Source\PSoC4/BLE_custom.c **** *  \param incrementIndex: Not zero value indicates that service and characteristic index
 283:.\Generated_Source\PSoC4/BLE_custom.c **** *                  should be incremented.
 284:.\Generated_Source\PSoC4/BLE_custom.c **** * \return
 285:.\Generated_Source\PSoC4/BLE_custom.c **** *  CYBLE_GATT_ATTR_HANDLE_RANGE_T range: the block of start and end handles.
 286:.\Generated_Source\PSoC4/BLE_custom.c **** * 
 287:.\Generated_Source\PSoC4/BLE_custom.c **** ******************************************************************************/
 288:.\Generated_Source\PSoC4/BLE_custom.c **** CYBLE_GATT_ATTR_HANDLE_RANGE_T CyBle_CustomcGetCharRange(uint8 incrementIndex)
 289:.\Generated_Source\PSoC4/BLE_custom.c **** {
 733              		.loc 1 289 0
 734              		.cfi_startproc
 735 0000 80B5     		push	{r7, lr}
 736              		.cfi_def_cfa_offset 8
 737              		.cfi_offset 7, -8
 738              		.cfi_offset 14, -4
 739 0002 84B0     		sub	sp, sp, #16
 740              		.cfi_def_cfa_offset 24
 741 0004 00AF     		add	r7, sp, #0
 742              		.cfi_def_cfa_register 7
 743 0006 021C     		mov	r2, r0
 744 0008 FB1D     		add	r3, r7, #7
 745 000a 1A70     		strb	r2, [r3]
 290:.\Generated_Source\PSoC4/BLE_custom.c ****     CYBLE_GATT_ATTR_HANDLE_RANGE_T charRange = {CYBLE_GATT_INVALID_ATTR_HANDLE_VALUE, CYBLE_GATT_IN
 746              		.loc 1 290 0
 747 000c 0823     		mov	r3, #8
 748 000e FB18     		add	r3, r7, r3
 749 0010 0022     		mov	r2, #0
 750 0012 1A80     		strh	r2, [r3]
 751 0014 0823     		mov	r3, #8
 752 0016 FB18     		add	r3, r7, r3
 753 0018 0022     		mov	r2, #0
 754 001a 5A80     		strh	r2, [r3, #2]
 755              	.L38:
 291:.\Generated_Source\PSoC4/BLE_custom.c **** 
 292:.\Generated_Source\PSoC4/BLE_custom.c ****     do{
 293:.\Generated_Source\PSoC4/BLE_custom.c ****         if(incrementIndex != CYBLE_DISCOVERY_INIT)
 756              		.loc 1 293 0
 757 001c FB1D     		add	r3, r7, #7
 758 001e 1B78     		ldrb	r3, [r3]
 759 0020 002B     		cmp	r3, #0
 760 0022 2DD0     		beq	.L30
 294:.\Generated_Source\PSoC4/BLE_custom.c ****         {
 295:.\Generated_Source\PSoC4/BLE_custom.c ****             if((cyBle_customDisCharIndex + 1u) < cyBle_customCServ[cyBle_customDisServIndex].charCo
 761              		.loc 1 295 0
 762 0024 4C4B     		ldr	r3, .L40
 763 0026 1B88     		ldrh	r3, [r3]
 764 0028 0133     		add	r3, r3, #1
 765 002a 4C4A     		ldr	r2, .L40+4
 766 002c 1288     		ldrh	r2, [r2]
 767 002e 4C49     		ldr	r1, .L40+8
 768 0030 1201     		lsl	r2, r2, #4
ARM GAS  C:\Users\YBOURA~1\AppData\Local\Temp\ccLqBgOE.s 			page 20


 769 0032 8A18     		add	r2, r1, r2
 770 0034 0832     		add	r2, r2, #8
 771 0036 5278     		ldrb	r2, [r2, #1]
 772 0038 9342     		cmp	r3, r2
 773 003a 06D2     		bcs	.L31
 296:.\Generated_Source\PSoC4/BLE_custom.c ****             {
 297:.\Generated_Source\PSoC4/BLE_custom.c ****                 cyBle_customDisCharIndex++;
 774              		.loc 1 297 0
 775 003c 464B     		ldr	r3, .L40
 776 003e 1B88     		ldrh	r3, [r3]
 777 0040 0133     		add	r3, r3, #1
 778 0042 9AB2     		uxth	r2, r3
 779 0044 444B     		ldr	r3, .L40
 780 0046 1A80     		strh	r2, [r3]
 781 0048 23E0     		b	.L34
 782              	.L31:
 298:.\Generated_Source\PSoC4/BLE_custom.c ****             }
 299:.\Generated_Source\PSoC4/BLE_custom.c ****             else 
 300:.\Generated_Source\PSoC4/BLE_custom.c ****             {
 301:.\Generated_Source\PSoC4/BLE_custom.c ****                 if((cyBle_customDisServIndex + 1u) < CYBLE_CUSTOMC_SERVICE_COUNT)
 783              		.loc 1 301 0
 784 004a 444B     		ldr	r3, .L40+4
 785 004c 1B88     		ldrh	r3, [r3]
 786 004e 0133     		add	r3, r3, #1
 787 0050 09D1     		bne	.L33
 302:.\Generated_Source\PSoC4/BLE_custom.c ****                 {
 303:.\Generated_Source\PSoC4/BLE_custom.c ****                     cyBle_customDisServIndex++;      /* Discover descriptors for next custom servic
 788              		.loc 1 303 0
 789 0052 424B     		ldr	r3, .L40+4
 790 0054 1B88     		ldrh	r3, [r3]
 791 0056 0133     		add	r3, r3, #1
 792 0058 9AB2     		uxth	r2, r3
 793 005a 404B     		ldr	r3, .L40+4
 794 005c 1A80     		strh	r2, [r3]
 304:.\Generated_Source\PSoC4/BLE_custom.c ****                     /* Set characteristic index to first characteristic of custom service */
 305:.\Generated_Source\PSoC4/BLE_custom.c ****                     cyBle_customDisCharIndex = 0u;
 795              		.loc 1 305 0
 796 005e 3E4B     		ldr	r3, .L40
 797 0060 0022     		mov	r2, #0
 798 0062 1A80     		strh	r2, [r3]
 799 0064 15E0     		b	.L34
 800              	.L33:
 306:.\Generated_Source\PSoC4/BLE_custom.c ****                 }
 307:.\Generated_Source\PSoC4/BLE_custom.c ****                 else /* Increment general discovery index when custom characteristic discovery is d
 308:.\Generated_Source\PSoC4/BLE_custom.c ****                 {
 309:.\Generated_Source\PSoC4/BLE_custom.c ****                     cyBle_disCount++;  
 801              		.loc 1 309 0
 802 0066 3F4B     		ldr	r3, .L40+12
 803 0068 1B78     		ldrb	r3, [r3]
 804 006a 0133     		add	r3, r3, #1
 805 006c DAB2     		uxtb	r2, r3
 806 006e 3D4B     		ldr	r3, .L40+12
 807 0070 1A70     		strb	r2, [r3]
 310:.\Generated_Source\PSoC4/BLE_custom.c ****                     cyBle_customDisCharIndex++;
 808              		.loc 1 310 0
 809 0072 394B     		ldr	r3, .L40
 810 0074 1B88     		ldrh	r3, [r3]
ARM GAS  C:\Users\YBOURA~1\AppData\Local\Temp\ccLqBgOE.s 			page 21


 811 0076 0133     		add	r3, r3, #1
 812 0078 9AB2     		uxth	r2, r3
 813 007a 374B     		ldr	r3, .L40
 814 007c 1A80     		strh	r2, [r3]
 815 007e 08E0     		b	.L34
 816              	.L30:
 311:.\Generated_Source\PSoC4/BLE_custom.c ****                 }
 312:.\Generated_Source\PSoC4/BLE_custom.c ****             }
 313:.\Generated_Source\PSoC4/BLE_custom.c ****         }
 314:.\Generated_Source\PSoC4/BLE_custom.c ****         else    /* Increment indexes in the following loop */
 315:.\Generated_Source\PSoC4/BLE_custom.c ****         {
 316:.\Generated_Source\PSoC4/BLE_custom.c ****             cyBle_customDisServIndex = 0u;
 817              		.loc 1 316 0
 818 0080 364B     		ldr	r3, .L40+4
 819 0082 0022     		mov	r2, #0
 820 0084 1A80     		strh	r2, [r3]
 317:.\Generated_Source\PSoC4/BLE_custom.c ****             cyBle_customDisCharIndex = 0u;
 821              		.loc 1 317 0
 822 0086 344B     		ldr	r3, .L40
 823 0088 0022     		mov	r2, #0
 824 008a 1A80     		strh	r2, [r3]
 318:.\Generated_Source\PSoC4/BLE_custom.c ****             incrementIndex = 1u;
 825              		.loc 1 318 0
 826 008c FB1D     		add	r3, r7, #7
 827 008e 0122     		mov	r2, #1
 828 0090 1A70     		strb	r2, [r3]
 829              	.L34:
 319:.\Generated_Source\PSoC4/BLE_custom.c ****         }            
 320:.\Generated_Source\PSoC4/BLE_custom.c ****         /* Read characteristic range */
 321:.\Generated_Source\PSoC4/BLE_custom.c ****         if(cyBle_customDisCharIndex < (cyBle_customCServ[cyBle_customDisServIndex].charCount))
 830              		.loc 1 321 0
 831 0092 324B     		ldr	r3, .L40+4
 832 0094 1B88     		ldrh	r3, [r3]
 833 0096 324A     		ldr	r2, .L40+8
 834 0098 1B01     		lsl	r3, r3, #4
 835 009a D318     		add	r3, r2, r3
 836 009c 0833     		add	r3, r3, #8
 837 009e 5B78     		ldrb	r3, [r3, #1]
 838 00a0 9AB2     		uxth	r2, r3
 839 00a2 2D4B     		ldr	r3, .L40
 840 00a4 1B88     		ldrh	r3, [r3]
 841 00a6 9A42     		cmp	r2, r3
 842 00a8 1FD9     		bls	.L35
 322:.\Generated_Source\PSoC4/BLE_custom.c ****         {
 323:.\Generated_Source\PSoC4/BLE_custom.c ****             charRange.startHandle = cyBle_customCServ[cyBle_customDisServIndex].
 843              		.loc 1 323 0
 844 00aa 2C4B     		ldr	r3, .L40+4
 845 00ac 1B88     		ldrh	r3, [r3]
 846 00ae 2C4A     		ldr	r2, .L40+8
 847 00b0 1B01     		lsl	r3, r3, #4
 848 00b2 D318     		add	r3, r2, r3
 849 00b4 0833     		add	r3, r3, #8
 850 00b6 5A68     		ldr	r2, [r3, #4]
 324:.\Generated_Source\PSoC4/BLE_custom.c ****                                 customServChar[cyBle_customDisCharIndex].customServCharHandle + 1u;
 851              		.loc 1 324 0
 852 00b8 274B     		ldr	r3, .L40
 853 00ba 1B88     		ldrh	r3, [r3]
ARM GAS  C:\Users\YBOURA~1\AppData\Local\Temp\ccLqBgOE.s 			page 22


 854 00bc 1B01     		lsl	r3, r3, #4
 855 00be D318     		add	r3, r2, r3
 856 00c0 1B88     		ldrh	r3, [r3]
 323:.\Generated_Source\PSoC4/BLE_custom.c ****                                 customServChar[cyBle_customDisCharIndex].customServCharHandle + 1u;
 857              		.loc 1 323 0
 858 00c2 0133     		add	r3, r3, #1
 859 00c4 9AB2     		uxth	r2, r3
 860 00c6 0823     		mov	r3, #8
 861 00c8 FB18     		add	r3, r7, r3
 862 00ca 1A80     		strh	r2, [r3]
 325:.\Generated_Source\PSoC4/BLE_custom.c ****             charRange.endHandle = cyBle_customCServ[cyBle_customDisServIndex].
 863              		.loc 1 325 0
 864 00cc 234B     		ldr	r3, .L40+4
 865 00ce 1B88     		ldrh	r3, [r3]
 866 00d0 234A     		ldr	r2, .L40+8
 867 00d2 1B01     		lsl	r3, r3, #4
 868 00d4 D318     		add	r3, r2, r3
 869 00d6 0833     		add	r3, r3, #8
 870 00d8 5A68     		ldr	r2, [r3, #4]
 326:.\Generated_Source\PSoC4/BLE_custom.c ****                                 customServChar[cyBle_customDisCharIndex].customServCharEndHandle;
 871              		.loc 1 326 0
 872 00da 1F4B     		ldr	r3, .L40
 873 00dc 1B88     		ldrh	r3, [r3]
 874 00de 1B01     		lsl	r3, r3, #4
 875 00e0 D318     		add	r3, r2, r3
 876 00e2 5A88     		ldrh	r2, [r3, #2]
 325:.\Generated_Source\PSoC4/BLE_custom.c ****             charRange.endHandle = cyBle_customCServ[cyBle_customDisServIndex].
 877              		.loc 1 325 0
 878 00e4 0823     		mov	r3, #8
 879 00e6 FB18     		add	r3, r7, r3
 880 00e8 5A80     		strh	r2, [r3, #2]
 881              	.L35:
 327:.\Generated_Source\PSoC4/BLE_custom.c ****         }
 328:.\Generated_Source\PSoC4/BLE_custom.c ****     }while(((charRange.startHandle == (CYBLE_GATT_INVALID_ATTR_HANDLE_VALUE + 1u)) || 
 882              		.loc 1 328 0
 883 00ea 0823     		mov	r3, #8
 884 00ec FB18     		add	r3, r7, r3
 885 00ee 1B88     		ldrh	r3, [r3]
 329:.\Generated_Source\PSoC4/BLE_custom.c ****             (charRange.endHandle == CYBLE_GATT_INVALID_ATTR_HANDLE_VALUE) ||
 330:.\Generated_Source\PSoC4/BLE_custom.c ****             (charRange.startHandle > charRange.endHandle)) && 
 331:.\Generated_Source\PSoC4/BLE_custom.c ****             (cyBle_customDisCharIndex < cyBle_customCServ[cyBle_customDisServIndex].charCount));
 886              		.loc 1 331 0
 887 00f0 012B     		cmp	r3, #1
 888 00f2 0CD0     		beq	.L36
 329:.\Generated_Source\PSoC4/BLE_custom.c ****             (charRange.endHandle == CYBLE_GATT_INVALID_ATTR_HANDLE_VALUE) ||
 889              		.loc 1 329 0
 890 00f4 0823     		mov	r3, #8
 891 00f6 FB18     		add	r3, r7, r3
 892 00f8 5B88     		ldrh	r3, [r3, #2]
 328:.\Generated_Source\PSoC4/BLE_custom.c ****             (charRange.endHandle == CYBLE_GATT_INVALID_ATTR_HANDLE_VALUE) ||
 893              		.loc 1 328 0
 894 00fa 002B     		cmp	r3, #0
 895 00fc 07D0     		beq	.L36
 330:.\Generated_Source\PSoC4/BLE_custom.c ****             (cyBle_customDisCharIndex < cyBle_customCServ[cyBle_customDisServIndex].charCount));
 896              		.loc 1 330 0
 897 00fe 0823     		mov	r3, #8
 898 0100 FB18     		add	r3, r7, r3
ARM GAS  C:\Users\YBOURA~1\AppData\Local\Temp\ccLqBgOE.s 			page 23


 899 0102 1A88     		ldrh	r2, [r3]
 900 0104 0823     		mov	r3, #8
 901 0106 FB18     		add	r3, r7, r3
 902 0108 5B88     		ldrh	r3, [r3, #2]
 329:.\Generated_Source\PSoC4/BLE_custom.c ****             (charRange.endHandle == CYBLE_GATT_INVALID_ATTR_HANDLE_VALUE) ||
 903              		.loc 1 329 0
 904 010a 9A42     		cmp	r2, r3
 905 010c 0CD9     		bls	.L37
 906              	.L36:
 907              		.loc 1 331 0 discriminator 1
 908 010e 134B     		ldr	r3, .L40+4
 909 0110 1B88     		ldrh	r3, [r3]
 910 0112 134A     		ldr	r2, .L40+8
 911 0114 1B01     		lsl	r3, r3, #4
 912 0116 D318     		add	r3, r2, r3
 913 0118 0833     		add	r3, r3, #8
 914 011a 5B78     		ldrb	r3, [r3, #1]
 915 011c 9AB2     		uxth	r2, r3
 916 011e 0E4B     		ldr	r3, .L40
 917 0120 1B88     		ldrh	r3, [r3]
 330:.\Generated_Source\PSoC4/BLE_custom.c ****             (cyBle_customDisCharIndex < cyBle_customCServ[cyBle_customDisServIndex].charCount));
 918              		.loc 1 330 0 discriminator 1
 919 0122 9A42     		cmp	r2, r3
 920 0124 00D9     		bls	.LCB728
 921 0126 79E7     		b	.L38	@long jump
 922              	.LCB728:
 923              	.L37:
 332:.\Generated_Source\PSoC4/BLE_custom.c ****     
 333:.\Generated_Source\PSoC4/BLE_custom.c ****     return(charRange);
 924              		.loc 1 333 0
 925 0128 0C23     		mov	r3, #12
 926 012a FB18     		add	r3, r7, r3
 927 012c 0822     		mov	r2, #8
 928 012e BA18     		add	r2, r7, r2
 929 0130 1268     		ldr	r2, [r2]
 930 0132 1A60     		str	r2, [r3]
 931 0134 0C23     		mov	r3, #12
 932 0136 FA18     		add	r2, r7, r3
 933 0138 0023     		mov	r3, #0
 934 013a 1188     		ldrh	r1, [r2]
 935 013c 0904     		lsl	r1, r1, #16
 936 013e 090C     		lsr	r1, r1, #16
 937 0140 1B0C     		lsr	r3, r3, #16
 938 0142 1B04     		lsl	r3, r3, #16
 939 0144 0B43     		orr	r3, r1
 940 0146 5288     		ldrh	r2, [r2, #2]
 941 0148 1204     		lsl	r2, r2, #16
 942 014a 1B04     		lsl	r3, r3, #16
 943 014c 1B0C     		lsr	r3, r3, #16
 944 014e 1343     		orr	r3, r2
 334:.\Generated_Source\PSoC4/BLE_custom.c **** }
 945              		.loc 1 334 0
 946 0150 181C     		mov	r0, r3
 947 0152 BD46     		mov	sp, r7
 948 0154 04B0     		add	sp, sp, #16
 949              		@ sp needed
 950 0156 80BD     		pop	{r7, pc}
ARM GAS  C:\Users\YBOURA~1\AppData\Local\Temp\ccLqBgOE.s 			page 24


 951              	.L41:
 952              		.align	2
 953              	.L40:
 954 0158 02000000 		.word	cyBle_customDisCharIndex
 955 015c 00000000 		.word	cyBle_customDisServIndex
 956 0160 00000000 		.word	cyBle_customCServ
 957 0164 00000000 		.word	cyBle_disCount
 958              		.cfi_endproc
 959              	.LFE5:
 960              		.size	CyBle_CustomcGetCharRange, .-CyBle_CustomcGetCharRange
 961              		.section	.text.CyBle_CustomcDiscoverCharDescriptorsEventHandler,"ax",%progbits
 962              		.align	2
 963              		.global	CyBle_CustomcDiscoverCharDescriptorsEventHandler
 964              		.code	16
 965              		.thumb_func
 966              		.type	CyBle_CustomcDiscoverCharDescriptorsEventHandler, %function
 967              	CyBle_CustomcDiscoverCharDescriptorsEventHandler:
 968              	.LFB6:
 335:.\Generated_Source\PSoC4/BLE_custom.c **** 
 336:.\Generated_Source\PSoC4/BLE_custom.c **** 
 337:.\Generated_Source\PSoC4/BLE_custom.c **** /******************************************************************************
 338:.\Generated_Source\PSoC4/BLE_custom.c **** * Function Name: CyBle_CustomcDiscoverCharDescriptorsEventHandler
 339:.\Generated_Source\PSoC4/BLE_custom.c **** ***************************************************************************//**
 340:.\Generated_Source\PSoC4/BLE_custom.c **** * 
 341:.\Generated_Source\PSoC4/BLE_custom.c **** *  This function is called on receiving a CYBLE_EVT_GATTC_FIND_INFO_RSP event.
 342:.\Generated_Source\PSoC4/BLE_custom.c **** *  Based on the descriptor UUID, an appropriate data structure is populated using
 343:.\Generated_Source\PSoC4/BLE_custom.c **** *  the data received as part of the callback.
 344:.\Generated_Source\PSoC4/BLE_custom.c **** * 
 345:.\Generated_Source\PSoC4/BLE_custom.c **** *  \param *discDescrInfo: The pointer to a descriptor information structure.
 346:.\Generated_Source\PSoC4/BLE_custom.c **** * 
 347:.\Generated_Source\PSoC4/BLE_custom.c **** * \return
 348:.\Generated_Source\PSoC4/BLE_custom.c **** *  None
 349:.\Generated_Source\PSoC4/BLE_custom.c **** * 
 350:.\Generated_Source\PSoC4/BLE_custom.c **** ******************************************************************************/
 351:.\Generated_Source\PSoC4/BLE_custom.c **** void CyBle_CustomcDiscoverCharDescriptorsEventHandler(const CYBLE_DISC_DESCR_INFO_T *discDescrInfo)
 352:.\Generated_Source\PSoC4/BLE_custom.c **** {
 969              		.loc 1 352 0
 970              		.cfi_startproc
 971 0000 80B5     		push	{r7, lr}
 972              		.cfi_def_cfa_offset 8
 973              		.cfi_offset 7, -8
 974              		.cfi_offset 14, -4
 975 0002 84B0     		sub	sp, sp, #16
 976              		.cfi_def_cfa_offset 24
 977 0004 00AF     		add	r7, sp, #0
 978              		.cfi_def_cfa_register 7
 979 0006 7860     		str	r0, [r7, #4]
 353:.\Generated_Source\PSoC4/BLE_custom.c ****     uint8 locDescIndex;
 354:.\Generated_Source\PSoC4/BLE_custom.c ****     uint8 locReqHandle = 0u;
 980              		.loc 1 354 0
 981 0008 0E23     		mov	r3, #14
 982 000a FB18     		add	r3, r7, r3
 983 000c 0022     		mov	r2, #0
 984 000e 1A70     		strb	r2, [r3]
 355:.\Generated_Source\PSoC4/BLE_custom.c **** 
 356:.\Generated_Source\PSoC4/BLE_custom.c ****     for(locDescIndex = 0u; (locDescIndex < cyBle_customCServ[cyBle_customDisServIndex].
 985              		.loc 1 356 0
ARM GAS  C:\Users\YBOURA~1\AppData\Local\Temp\ccLqBgOE.s 			page 25


 986 0010 0F23     		mov	r3, #15
 987 0012 FB18     		add	r3, r7, r3
 988 0014 0022     		mov	r2, #0
 989 0016 1A70     		strb	r2, [r3]
 990 0018 BBE0     		b	.L43
 991              	.L48:
 992              	.LBB3:
 357:.\Generated_Source\PSoC4/BLE_custom.c ****           customServChar[cyBle_customDisCharIndex].descCount) && (locReqHandle == 0u); locDescIndex
 358:.\Generated_Source\PSoC4/BLE_custom.c ****     {
 359:.\Generated_Source\PSoC4/BLE_custom.c ****         uint8 flag = 0u;
 993              		.loc 1 359 0
 994 001a 0D23     		mov	r3, #13
 995 001c FB18     		add	r3, r7, r3
 996 001e 0022     		mov	r2, #0
 997 0020 1A70     		strb	r2, [r3]
 360:.\Generated_Source\PSoC4/BLE_custom.c ****         
 361:.\Generated_Source\PSoC4/BLE_custom.c ****         if((discDescrInfo->uuidFormat == CYBLE_GATT_128_BIT_UUID_FORMAT) &&
 998              		.loc 1 361 0
 999 0022 7B68     		ldr	r3, [r7, #4]
 1000 0024 1B7D     		ldrb	r3, [r3, #20]
 1001 0026 022B     		cmp	r3, #2
 1002 0028 38D1     		bne	.L44
 362:.\Generated_Source\PSoC4/BLE_custom.c ****            (cyBle_customCServ[cyBle_customDisServIndex].customServChar[cyBle_customDisCharIndex].
 1003              		.loc 1 362 0 discriminator 1
 1004 002a 674B     		ldr	r3, .L49
 1005 002c 1B88     		ldrh	r3, [r3]
 1006 002e 674A     		ldr	r2, .L49+4
 1007 0030 1B01     		lsl	r3, r3, #4
 1008 0032 D318     		add	r3, r2, r3
 1009 0034 0833     		add	r3, r3, #8
 1010 0036 5A68     		ldr	r2, [r3, #4]
 1011 0038 654B     		ldr	r3, .L49+8
 1012 003a 1B88     		ldrh	r3, [r3]
 1013 003c 1B01     		lsl	r3, r3, #4
 1014 003e D318     		add	r3, r2, r3
 1015 0040 D968     		ldr	r1, [r3, #12]
 363:.\Generated_Source\PSoC4/BLE_custom.c ****              customServCharDesc[locDescIndex].uuidFormat == CYBLE_GATT_128_BIT_UUID_FORMAT))
 1016              		.loc 1 363 0 discriminator 1
 1017 0042 0F23     		mov	r3, #15
 1018 0044 FB18     		add	r3, r7, r3
 1019 0046 1A78     		ldrb	r2, [r3]
 1020 0048 131C     		mov	r3, r2
 1021 004a 5B00     		lsl	r3, r3, #1
 1022 004c 9B18     		add	r3, r3, r2
 1023 004e 9B00     		lsl	r3, r3, #2
 1024 0050 CB18     		add	r3, r1, r3
 1025 0052 1B7A     		ldrb	r3, [r3, #8]
 361:.\Generated_Source\PSoC4/BLE_custom.c ****            (cyBle_customCServ[cyBle_customDisServIndex].customServChar[cyBle_customDisCharIndex].
 1026              		.loc 1 361 0 discriminator 1
 1027 0054 022B     		cmp	r3, #2
 1028 0056 21D1     		bne	.L44
 364:.\Generated_Source\PSoC4/BLE_custom.c ****         {
 365:.\Generated_Source\PSoC4/BLE_custom.c ****             if(memcmp(cyBle_customCServ[cyBle_customDisServIndex].
 1029              		.loc 1 365 0
 1030 0058 5B4B     		ldr	r3, .L49
 1031 005a 1B88     		ldrh	r3, [r3]
 1032 005c 5B4A     		ldr	r2, .L49+4
ARM GAS  C:\Users\YBOURA~1\AppData\Local\Temp\ccLqBgOE.s 			page 26


 1033 005e 1B01     		lsl	r3, r3, #4
 1034 0060 D318     		add	r3, r2, r3
 1035 0062 0833     		add	r3, r3, #8
 1036 0064 5A68     		ldr	r2, [r3, #4]
 366:.\Generated_Source\PSoC4/BLE_custom.c ****                 customServChar[cyBle_customDisCharIndex].customServCharDesc[locDescIndex].uuid, 
 1037              		.loc 1 366 0
 1038 0066 5A4B     		ldr	r3, .L49+8
 1039 0068 1B88     		ldrh	r3, [r3]
 1040 006a 1B01     		lsl	r3, r3, #4
 1041 006c D318     		add	r3, r2, r3
 1042 006e D968     		ldr	r1, [r3, #12]
 1043 0070 0F23     		mov	r3, #15
 1044 0072 FB18     		add	r3, r7, r3
 1045 0074 1A78     		ldrb	r2, [r3]
 1046 0076 131C     		mov	r3, r2
 1047 0078 5B00     		lsl	r3, r3, #1
 1048 007a 9B18     		add	r3, r3, r2
 1049 007c 9B00     		lsl	r3, r3, #2
 1050 007e CB18     		add	r3, r1, r3
 365:.\Generated_Source\PSoC4/BLE_custom.c ****                 customServChar[cyBle_customDisCharIndex].customServCharDesc[locDescIndex].uuid, 
 1051              		.loc 1 365 0
 1052 0080 5A68     		ldr	r2, [r3, #4]
 367:.\Generated_Source\PSoC4/BLE_custom.c ****                 &discDescrInfo->uuid.uuid128, CYBLE_GATT_128_BIT_UUID_SIZE) == 0u)
 1053              		.loc 1 367 0
 1054 0082 7B68     		ldr	r3, [r7, #4]
 1055 0084 0433     		add	r3, r3, #4
 365:.\Generated_Source\PSoC4/BLE_custom.c ****                 customServChar[cyBle_customDisCharIndex].customServCharDesc[locDescIndex].uuid, 
 1056              		.loc 1 365 0
 1057 0086 101C     		mov	r0, r2
 1058 0088 191C     		mov	r1, r3
 1059 008a 1022     		mov	r2, #16
 1060 008c FFF7FEFF 		bl	memcmp
 1061 0090 031E     		sub	r3, r0, #0
 1062 0092 03D1     		bne	.L44
 368:.\Generated_Source\PSoC4/BLE_custom.c ****             {
 369:.\Generated_Source\PSoC4/BLE_custom.c ****                 flag = 1u;
 1063              		.loc 1 369 0
 1064 0094 0D23     		mov	r3, #13
 1065 0096 FB18     		add	r3, r7, r3
 1066 0098 0122     		mov	r2, #1
 1067 009a 1A70     		strb	r2, [r3]
 1068              	.L44:
 370:.\Generated_Source\PSoC4/BLE_custom.c ****             }
 371:.\Generated_Source\PSoC4/BLE_custom.c ****         }
 372:.\Generated_Source\PSoC4/BLE_custom.c ****         
 373:.\Generated_Source\PSoC4/BLE_custom.c ****         if((discDescrInfo->uuidFormat == CYBLE_GATT_16_BIT_UUID_FORMAT) &&
 1069              		.loc 1 373 0
 1070 009c 7B68     		ldr	r3, [r7, #4]
 1071 009e 1B7D     		ldrb	r3, [r3, #20]
 1072 00a0 012B     		cmp	r3, #1
 1073 00a2 38D1     		bne	.L45
 374:.\Generated_Source\PSoC4/BLE_custom.c ****            (cyBle_customCServ[cyBle_customDisServIndex].customServChar[cyBle_customDisCharIndex].
 1074              		.loc 1 374 0 discriminator 1
 1075 00a4 484B     		ldr	r3, .L49
 1076 00a6 1B88     		ldrh	r3, [r3]
 1077 00a8 484A     		ldr	r2, .L49+4
 1078 00aa 1B01     		lsl	r3, r3, #4
ARM GAS  C:\Users\YBOURA~1\AppData\Local\Temp\ccLqBgOE.s 			page 27


 1079 00ac D318     		add	r3, r2, r3
 1080 00ae 0833     		add	r3, r3, #8
 1081 00b0 5A68     		ldr	r2, [r3, #4]
 1082 00b2 474B     		ldr	r3, .L49+8
 1083 00b4 1B88     		ldrh	r3, [r3]
 1084 00b6 1B01     		lsl	r3, r3, #4
 1085 00b8 D318     		add	r3, r2, r3
 1086 00ba D968     		ldr	r1, [r3, #12]
 375:.\Generated_Source\PSoC4/BLE_custom.c ****              customServCharDesc[locDescIndex].uuidFormat == CYBLE_GATT_16_BIT_UUID_FORMAT))
 1087              		.loc 1 375 0 discriminator 1
 1088 00bc 0F23     		mov	r3, #15
 1089 00be FB18     		add	r3, r7, r3
 1090 00c0 1A78     		ldrb	r2, [r3]
 1091 00c2 131C     		mov	r3, r2
 1092 00c4 5B00     		lsl	r3, r3, #1
 1093 00c6 9B18     		add	r3, r3, r2
 1094 00c8 9B00     		lsl	r3, r3, #2
 1095 00ca CB18     		add	r3, r1, r3
 1096 00cc 1B7A     		ldrb	r3, [r3, #8]
 373:.\Generated_Source\PSoC4/BLE_custom.c ****            (cyBle_customCServ[cyBle_customDisServIndex].customServChar[cyBle_customDisCharIndex].
 1097              		.loc 1 373 0 discriminator 1
 1098 00ce 012B     		cmp	r3, #1
 1099 00d0 21D1     		bne	.L45
 376:.\Generated_Source\PSoC4/BLE_custom.c ****         {
 377:.\Generated_Source\PSoC4/BLE_custom.c ****             if(memcmp(cyBle_customCServ[cyBle_customDisServIndex].
 1100              		.loc 1 377 0
 1101 00d2 3D4B     		ldr	r3, .L49
 1102 00d4 1B88     		ldrh	r3, [r3]
 1103 00d6 3D4A     		ldr	r2, .L49+4
 1104 00d8 1B01     		lsl	r3, r3, #4
 1105 00da D318     		add	r3, r2, r3
 1106 00dc 0833     		add	r3, r3, #8
 1107 00de 5A68     		ldr	r2, [r3, #4]
 378:.\Generated_Source\PSoC4/BLE_custom.c ****                 customServChar[cyBle_customDisCharIndex].customServCharDesc[locDescIndex].uuid, 
 1108              		.loc 1 378 0
 1109 00e0 3B4B     		ldr	r3, .L49+8
 1110 00e2 1B88     		ldrh	r3, [r3]
 1111 00e4 1B01     		lsl	r3, r3, #4
 1112 00e6 D318     		add	r3, r2, r3
 1113 00e8 D968     		ldr	r1, [r3, #12]
 1114 00ea 0F23     		mov	r3, #15
 1115 00ec FB18     		add	r3, r7, r3
 1116 00ee 1A78     		ldrb	r2, [r3]
 1117 00f0 131C     		mov	r3, r2
 1118 00f2 5B00     		lsl	r3, r3, #1
 1119 00f4 9B18     		add	r3, r3, r2
 1120 00f6 9B00     		lsl	r3, r3, #2
 1121 00f8 CB18     		add	r3, r1, r3
 377:.\Generated_Source\PSoC4/BLE_custom.c ****                 customServChar[cyBle_customDisCharIndex].customServCharDesc[locDescIndex].uuid, 
 1122              		.loc 1 377 0
 1123 00fa 5A68     		ldr	r2, [r3, #4]
 379:.\Generated_Source\PSoC4/BLE_custom.c ****                 &discDescrInfo->uuid.uuid16, CYBLE_GATT_16_BIT_UUID_SIZE) == 0u)
 1124              		.loc 1 379 0
 1125 00fc 7B68     		ldr	r3, [r7, #4]
 1126 00fe 0433     		add	r3, r3, #4
 377:.\Generated_Source\PSoC4/BLE_custom.c ****                 customServChar[cyBle_customDisCharIndex].customServCharDesc[locDescIndex].uuid, 
 1127              		.loc 1 377 0
ARM GAS  C:\Users\YBOURA~1\AppData\Local\Temp\ccLqBgOE.s 			page 28


 1128 0100 101C     		mov	r0, r2
 1129 0102 191C     		mov	r1, r3
 1130 0104 0222     		mov	r2, #2
 1131 0106 FFF7FEFF 		bl	memcmp
 1132 010a 031E     		sub	r3, r0, #0
 1133 010c 03D1     		bne	.L45
 380:.\Generated_Source\PSoC4/BLE_custom.c ****             {
 381:.\Generated_Source\PSoC4/BLE_custom.c ****                 flag = 1u;
 1134              		.loc 1 381 0
 1135 010e 0D23     		mov	r3, #13
 1136 0110 FB18     		add	r3, r7, r3
 1137 0112 0122     		mov	r2, #1
 1138 0114 1A70     		strb	r2, [r3]
 1139              	.L45:
 382:.\Generated_Source\PSoC4/BLE_custom.c ****             }
 383:.\Generated_Source\PSoC4/BLE_custom.c ****         }
 384:.\Generated_Source\PSoC4/BLE_custom.c ****         
 385:.\Generated_Source\PSoC4/BLE_custom.c ****         if((flag == 1u) && 
 1140              		.loc 1 385 0
 1141 0116 0D23     		mov	r3, #13
 1142 0118 FB18     		add	r3, r7, r3
 1143 011a 1B78     		ldrb	r3, [r3]
 1144 011c 012B     		cmp	r3, #1
 1145 011e 31D1     		bne	.L46
 386:.\Generated_Source\PSoC4/BLE_custom.c ****            (cyBle_customCServ[cyBle_customDisServIndex].customServChar[cyBle_customDisCharIndex].
 1146              		.loc 1 386 0 discriminator 1
 1147 0120 294B     		ldr	r3, .L49
 1148 0122 1B88     		ldrh	r3, [r3]
 1149 0124 294A     		ldr	r2, .L49+4
 1150 0126 1B01     		lsl	r3, r3, #4
 1151 0128 D318     		add	r3, r2, r3
 1152 012a 0833     		add	r3, r3, #8
 1153 012c 5A68     		ldr	r2, [r3, #4]
 1154 012e 284B     		ldr	r3, .L49+8
 1155 0130 1B88     		ldrh	r3, [r3]
 1156 0132 1B01     		lsl	r3, r3, #4
 1157 0134 D318     		add	r3, r2, r3
 1158 0136 D968     		ldr	r1, [r3, #12]
 387:.\Generated_Source\PSoC4/BLE_custom.c ****                customServCharDesc[locDescIndex].descHandle == CYBLE_GATT_INVALID_ATTR_HANDLE_VALUE)
 1159              		.loc 1 387 0 discriminator 1
 1160 0138 0F23     		mov	r3, #15
 1161 013a FB18     		add	r3, r7, r3
 1162 013c 1A78     		ldrb	r2, [r3]
 1163 013e 131C     		mov	r3, r2
 1164 0140 5B00     		lsl	r3, r3, #1
 1165 0142 9B18     		add	r3, r3, r2
 1166 0144 9B00     		lsl	r3, r3, #2
 1167 0146 CB18     		add	r3, r1, r3
 1168 0148 1B88     		ldrh	r3, [r3]
 385:.\Generated_Source\PSoC4/BLE_custom.c ****            (cyBle_customCServ[cyBle_customDisServIndex].customServChar[cyBle_customDisCharIndex].
 1169              		.loc 1 385 0 discriminator 1
 1170 014a 002B     		cmp	r3, #0
 1171 014c 1AD1     		bne	.L46
 388:.\Generated_Source\PSoC4/BLE_custom.c ****         {
 389:.\Generated_Source\PSoC4/BLE_custom.c ****             cyBle_customCServ[cyBle_customDisServIndex].customServChar[cyBle_customDisCharIndex].
 1172              		.loc 1 389 0
 1173 014e 1E4B     		ldr	r3, .L49
ARM GAS  C:\Users\YBOURA~1\AppData\Local\Temp\ccLqBgOE.s 			page 29


 1174 0150 1B88     		ldrh	r3, [r3]
 1175 0152 1E4A     		ldr	r2, .L49+4
 1176 0154 1B01     		lsl	r3, r3, #4
 1177 0156 D318     		add	r3, r2, r3
 1178 0158 0833     		add	r3, r3, #8
 1179 015a 5A68     		ldr	r2, [r3, #4]
 1180 015c 1C4B     		ldr	r3, .L49+8
 1181 015e 1B88     		ldrh	r3, [r3]
 1182 0160 1B01     		lsl	r3, r3, #4
 1183 0162 D318     		add	r3, r2, r3
 1184 0164 D968     		ldr	r1, [r3, #12]
 390:.\Generated_Source\PSoC4/BLE_custom.c ****                 customServCharDesc[locDescIndex].descHandle = discDescrInfo->descrHandle;
 1185              		.loc 1 390 0
 1186 0166 0F23     		mov	r3, #15
 1187 0168 FB18     		add	r3, r7, r3
 1188 016a 1A78     		ldrb	r2, [r3]
 1189 016c 131C     		mov	r3, r2
 1190 016e 5B00     		lsl	r3, r3, #1
 1191 0170 9B18     		add	r3, r3, r2
 1192 0172 9B00     		lsl	r3, r3, #2
 1193 0174 CB18     		add	r3, r1, r3
 1194 0176 7A68     		ldr	r2, [r7, #4]
 1195 0178 5288     		ldrh	r2, [r2, #2]
 1196 017a 1A80     		strh	r2, [r3]
 391:.\Generated_Source\PSoC4/BLE_custom.c ****             locReqHandle = 1u;
 1197              		.loc 1 391 0
 1198 017c 0E23     		mov	r3, #14
 1199 017e FB18     		add	r3, r7, r3
 1200 0180 0122     		mov	r2, #1
 1201 0182 1A70     		strb	r2, [r3]
 1202              	.L46:
 1203              	.LBE3:
 357:.\Generated_Source\PSoC4/BLE_custom.c ****     {
 1204              		.loc 1 357 0
 1205 0184 0F23     		mov	r3, #15
 1206 0186 FB18     		add	r3, r7, r3
 1207 0188 1A78     		ldrb	r2, [r3]
 1208 018a 0F23     		mov	r3, #15
 1209 018c FB18     		add	r3, r7, r3
 1210 018e 0132     		add	r2, r2, #1
 1211 0190 1A70     		strb	r2, [r3]
 1212              	.L43:
 356:.\Generated_Source\PSoC4/BLE_custom.c ****           customServChar[cyBle_customDisCharIndex].descCount) && (locReqHandle == 0u); locDescIndex
 1213              		.loc 1 356 0 discriminator 1
 1214 0192 0D4B     		ldr	r3, .L49
 1215 0194 1B88     		ldrh	r3, [r3]
 1216 0196 0D4A     		ldr	r2, .L49+4
 1217 0198 1B01     		lsl	r3, r3, #4
 1218 019a D318     		add	r3, r2, r3
 1219 019c 0833     		add	r3, r3, #8
 1220 019e 5A68     		ldr	r2, [r3, #4]
 357:.\Generated_Source\PSoC4/BLE_custom.c ****     {
 1221              		.loc 1 357 0 discriminator 1
 1222 01a0 0B4B     		ldr	r3, .L49+8
 1223 01a2 1B88     		ldrh	r3, [r3]
 1224 01a4 1B01     		lsl	r3, r3, #4
 1225 01a6 D318     		add	r3, r2, r3
ARM GAS  C:\Users\YBOURA~1\AppData\Local\Temp\ccLqBgOE.s 			page 30


 1226 01a8 9B7A     		ldrb	r3, [r3, #10]
 356:.\Generated_Source\PSoC4/BLE_custom.c ****           customServChar[cyBle_customDisCharIndex].descCount) && (locReqHandle == 0u); locDescIndex
 1227              		.loc 1 356 0 discriminator 1
 1228 01aa 0F22     		mov	r2, #15
 1229 01ac BA18     		add	r2, r7, r2
 1230 01ae 1278     		ldrb	r2, [r2]
 1231 01b0 9A42     		cmp	r2, r3
 1232 01b2 05D2     		bcs	.L42
 357:.\Generated_Source\PSoC4/BLE_custom.c ****     {
 1233              		.loc 1 357 0
 1234 01b4 0E23     		mov	r3, #14
 1235 01b6 FB18     		add	r3, r7, r3
 1236 01b8 1B78     		ldrb	r3, [r3]
 1237 01ba 002B     		cmp	r3, #0
 1238 01bc 00D1     		bne	.LCB1015
 1239 01be 2CE7     		b	.L48	@long jump
 1240              	.LCB1015:
 1241              	.L42:
 392:.\Generated_Source\PSoC4/BLE_custom.c ****         }
 393:.\Generated_Source\PSoC4/BLE_custom.c ****     }
 394:.\Generated_Source\PSoC4/BLE_custom.c **** }
 1242              		.loc 1 394 0
 1243 01c0 BD46     		mov	sp, r7
 1244 01c2 04B0     		add	sp, sp, #16
 1245              		@ sp needed
 1246 01c4 80BD     		pop	{r7, pc}
 1247              	.L50:
 1248 01c6 C046     		.align	2
 1249              	.L49:
 1250 01c8 00000000 		.word	cyBle_customDisServIndex
 1251 01cc 00000000 		.word	cyBle_customCServ
 1252 01d0 02000000 		.word	cyBle_customDisCharIndex
 1253              		.cfi_endproc
 1254              	.LFE6:
 1255              		.size	CyBle_CustomcDiscoverCharDescriptorsEventHandler, .-CyBle_CustomcDiscoverCharDescriptorsEven
 1256              		.bss
 1257              		.align	2
 1258              	customsLastEndHandle.6140:
 1259 0004 00000000 		.space	4
 1260              		.align	1
 1261              	discoveryLastServ.6141:
 1262 0008 0000     		.space	2
 1263 000a 0000     		.text
 1264              	.Letext0:
 1265              		.file 2 ".\\Generated_Source\\PSoC4\\cytypes.h"
 1266              		.file 3 ".\\Generated_Source\\PSoC4\\BLE_StackGatt.h"
 1267              		.file 4 ".\\Generated_Source\\PSoC4\\BLE_gatt.h"
 1268              		.file 5 ".\\Generated_Source\\PSoC4\\BLE_custom.h"
 1269              		.file 6 ".\\Generated_Source\\PSoC4\\BLE_Stack.h"
 1270              		.file 7 ".\\Generated_Source\\PSoC4\\BLE_eventHandler.h"