ARM GAS  C:\Users\YBOURA~1\AppData\Local\Temp\cclqRrH9.s 			page 1


   1              		.cpu cortex-m0
   2              		.fpu softvfp
   3              		.eabi_attribute 20, 1
   4              		.eabi_attribute 21, 1
   5              		.eabi_attribute 23, 3
   6              		.eabi_attribute 24, 1
   7              		.eabi_attribute 25, 1
   8              		.eabi_attribute 26, 1
   9              		.eabi_attribute 30, 6
  10              		.eabi_attribute 34, 0
  11              		.eabi_attribute 18, 4
  12              		.code	16
  13              		.file	"common.c"
  14              		.text
  15              	.Ltext0:
  16              		.cfi_sections	.debug_frame
  17              		.section	.text._write,"ax",%progbits
  18              		.align	2
  19              		.global	_write
  20              		.code	16
  21              		.thumb_func
  22              		.type	_write, %function
  23              	_write:
  24              	.LFB35:
  25              		.file 1 ".\\common.c"
   1:.\common.c    **** /*******************************************************************************
   2:.\common.c    **** * File Name: debug.c
   3:.\common.c    **** *
   4:.\common.c    **** * Version: 1.0
   5:.\common.c    **** *
   6:.\common.c    **** * Description:
   7:.\common.c    **** *  This file contains functions for printf functionality.
   8:.\common.c    **** *
   9:.\common.c    **** * Hardware Dependency:
  10:.\common.c    **** *  CY8CKIT-042 BLE
  11:.\common.c    **** *
  12:.\common.c    **** ********************************************************************************
  13:.\common.c    **** * Copyright 2014, Cypress Semiconductor Corporation.  All rights reserved.
  14:.\common.c    **** * You may use this file only in accordance with the license, terms, conditions,
  15:.\common.c    **** * disclaimers, and limitations in the end user license agreement accompanying
  16:.\common.c    **** * the software package with which this file was provided.
  17:.\common.c    **** *******************************************************************************/
  18:.\common.c    **** 
  19:.\common.c    **** #include <project.h>
  20:.\common.c    **** #include <stdio.h>
  21:.\common.c    **** 
  22:.\common.c    **** 
  23:.\common.c    **** #if defined(__ARMCC_VERSION)
  24:.\common.c    **** 
  25:.\common.c    **** /* For MDK/RVDS compiler revise fputc function for printf functionality */
  26:.\common.c    **** struct __FILE
  27:.\common.c    **** {
  28:.\common.c    ****     int handle;
  29:.\common.c    **** };
  30:.\common.c    **** 
  31:.\common.c    **** enum
  32:.\common.c    **** {
ARM GAS  C:\Users\YBOURA~1\AppData\Local\Temp\cclqRrH9.s 			page 2


  33:.\common.c    ****     STDIN_HANDLE,
  34:.\common.c    ****     STDOUT_HANDLE,
  35:.\common.c    ****     STDERR_HANDLE
  36:.\common.c    **** };
  37:.\common.c    **** 
  38:.\common.c    **** FILE __stdin = {STDIN_HANDLE};
  39:.\common.c    **** FILE __stdout = {STDOUT_HANDLE};
  40:.\common.c    **** FILE __stderr = {STDERR_HANDLE};
  41:.\common.c    **** 
  42:.\common.c    **** int fputc(int ch, FILE *file)
  43:.\common.c    **** {
  44:.\common.c    ****     int ret = EOF;
  45:.\common.c    **** 
  46:.\common.c    ****     switch( file->handle )
  47:.\common.c    ****     {
  48:.\common.c    ****         case STDOUT_HANDLE:
  49:.\common.c    ****             UART_DEB_UartPutChar(ch);
  50:.\common.c    ****             ret = ch ;
  51:.\common.c    ****             break ;
  52:.\common.c    **** 
  53:.\common.c    ****         case STDERR_HANDLE:
  54:.\common.c    ****             ret = ch ;
  55:.\common.c    ****             break ;
  56:.\common.c    **** 
  57:.\common.c    ****         default:
  58:.\common.c    ****             file = file;
  59:.\common.c    ****             break ;
  60:.\common.c    ****     }
  61:.\common.c    ****     return ret ;
  62:.\common.c    **** }
  63:.\common.c    **** 
  64:.\common.c    **** #elif defined (__ICCARM__)      /* IAR */
  65:.\common.c    **** 
  66:.\common.c    **** /* For IAR compiler revise __write() function for printf functionality */
  67:.\common.c    **** size_t __write(int handle, const unsigned char * buffer, size_t size)
  68:.\common.c    **** {
  69:.\common.c    ****     size_t nChars = 0;
  70:.\common.c    **** 
  71:.\common.c    ****     if (buffer == 0)
  72:.\common.c    ****     {
  73:.\common.c    ****         /*
  74:.\common.c    ****          * This means that we should flush internal buffers.  Since we
  75:.\common.c    ****          * don't we just return.  (Remember, "handle" == -1 means that all
  76:.\common.c    ****          * handles should be flushed.)
  77:.\common.c    ****          */
  78:.\common.c    ****         return (0);
  79:.\common.c    ****     }
  80:.\common.c    **** 
  81:.\common.c    ****     for (/* Empty */; size != 0; --size)
  82:.\common.c    ****     {
  83:.\common.c    ****         UART_DEB_UartPutChar(*buffer++);
  84:.\common.c    ****         ++nChars;
  85:.\common.c    ****     }
  86:.\common.c    **** 
  87:.\common.c    ****     return (nChars);
  88:.\common.c    **** }
  89:.\common.c    **** 
ARM GAS  C:\Users\YBOURA~1\AppData\Local\Temp\cclqRrH9.s 			page 3


  90:.\common.c    **** #else  /* (__GNUC__)  GCC */
  91:.\common.c    **** 
  92:.\common.c    **** /* For GCC compiler revise _write() function for printf functionality */
  93:.\common.c    **** int _write(int file, char *ptr, int len)
  94:.\common.c    **** {
  26              		.loc 1 94 0
  27              		.cfi_startproc
  28 0000 80B5     		push	{r7, lr}
  29              		.cfi_def_cfa_offset 8
  30              		.cfi_offset 7, -8
  31              		.cfi_offset 14, -4
  32 0002 86B0     		sub	sp, sp, #24
  33              		.cfi_def_cfa_offset 32
  34 0004 00AF     		add	r7, sp, #0
  35              		.cfi_def_cfa_register 7
  36 0006 F860     		str	r0, [r7, #12]
  37 0008 B960     		str	r1, [r7, #8]
  38 000a 7A60     		str	r2, [r7, #4]
  95:.\common.c    ****     int i;
  96:.\common.c    ****     file = file;
  97:.\common.c    ****     for (i = 0; i < len; i++)
  39              		.loc 1 97 0
  40 000c 0023     		mov	r3, #0
  41 000e 7B61     		str	r3, [r7, #20]
  42 0010 09E0     		b	.L2
  43              	.L3:
  98:.\common.c    ****     {
  99:.\common.c    ****         UART_UartPutChar(*ptr++);
  44              		.loc 1 99 0 discriminator 3
  45 0012 BB68     		ldr	r3, [r7, #8]
  46 0014 5A1C     		add	r2, r3, #1
  47 0016 BA60     		str	r2, [r7, #8]
  48 0018 1B78     		ldrb	r3, [r3]
  49 001a 181C     		mov	r0, r3
  50 001c FFF7FEFF 		bl	UART_SpiUartWriteTxData
  97:.\common.c    ****     {
  51              		.loc 1 97 0 discriminator 3
  52 0020 7B69     		ldr	r3, [r7, #20]
  53 0022 0133     		add	r3, r3, #1
  54 0024 7B61     		str	r3, [r7, #20]
  55              	.L2:
  97:.\common.c    ****     {
  56              		.loc 1 97 0 is_stmt 0 discriminator 1
  57 0026 7A69     		ldr	r2, [r7, #20]
  58 0028 7B68     		ldr	r3, [r7, #4]
  59 002a 9A42     		cmp	r2, r3
  60 002c F1DB     		blt	.L3
 100:.\common.c    ****     }
 101:.\common.c    ****     return len;
  61              		.loc 1 101 0 is_stmt 1
  62 002e 7B68     		ldr	r3, [r7, #4]
 102:.\common.c    **** }
  63              		.loc 1 102 0
  64 0030 181C     		mov	r0, r3
  65 0032 BD46     		mov	sp, r7
  66 0034 06B0     		add	sp, sp, #24
  67              		@ sp needed
ARM GAS  C:\Users\YBOURA~1\AppData\Local\Temp\cclqRrH9.s 			page 4


  68 0036 80BD     		pop	{r7, pc}
  69              		.cfi_endproc
  70              	.LFE35:
  71              		.size	_write, .-_write
  72              		.text
  73              	.Letext0:
  74              		.file 2 "Generated_Source\\PSoC4/cytypes.h"